 clidemo

 Timestamp is 597acef5 (Fri Jul 28 13:43:17 2017)

 Preferred load address is 00400000

 Start         Length     Name                   Class
 0001:00000000 0001f087H .text$mn                CODE
 0002:00000000 000001bcH .idata$5                DATA
 0002:000001bc 00000004H .00cfg                  DATA
 0002:000001c0 00000004H .CRT$XCA                DATA
 0002:000001c4 00000004H .CRT$XCAA               DATA
 0002:000001c8 00000004H .CRT$XCZ                DATA
 0002:000001cc 00000004H .CRT$XIA                DATA
 0002:000001d0 00000004H .CRT$XIAA               DATA
 0002:000001d4 00000004H .CRT$XIAC               DATA
 0002:000001d8 0000000cH .CRT$XIC                DATA
 0002:000001e4 00000004H .CRT$XIZ                DATA
 0002:000001e8 00000004H .CRT$XPA                DATA
 0002:000001ec 00000008H .CRT$XPX                DATA
 0002:000001f4 00000004H .CRT$XPXA               DATA
 0002:000001f8 00000004H .CRT$XPZ                DATA
 0002:000001fc 00000004H .CRT$XTA                DATA
 0002:00000200 00000010H .CRT$XTZ                DATA
 0002:00000210 00007c30H .rdata                  DATA
 0002:00007e3c 00000000H .rdata$r                DATA
 0002:00007e40 0000000cH .rdata$sxdata           DATA
 0002:00007e4c 000002a4H .rdata$zzzdbg           DATA
 0002:000080f0 00000004H .rtc$IAA                DATA
 0002:000080f4 00000004H .rtc$IZZ                DATA
 0002:000080f8 00000004H .rtc$TAA                DATA
 0002:000080fc 00000004H .rtc$TZZ                DATA
 0002:00008100 0000048cH .xdata$x                DATA
 0002:0000858c 00000000H .edata                  DATA
 0002:0000858c 0000003cH .idata$2                DATA
 0002:000085c8 00000014H .idata$3                DATA
 0002:000085dc 000001bcH .idata$4                DATA
 0002:00008798 00000656H .idata$6                DATA
 0003:00000000 00000fe0H .data                   DATA
 0003:00000fe0 00000000H .data$r                 DATA
 0003:00000fe0 00000db4H .bss                    DATA
 0004:00000000 0000008cH .gfids$x                DATA
 0004:0000008c 00000020H .gfids$y                DATA

  Address         Publics by Value              Rva+Base       Lib:Object

 0000:00000000       __except_list              00000000     <absolute>
 0000:00000000       ___guard_longjmp_count     00000000     <absolute>
 0000:00000000       ___guard_fids_count        00000000     <absolute>
 0000:00000000       ___guard_longjmp_table     00000000     <absolute>
 0000:00000000       ___guard_iat_table         00000000     <absolute>
 0000:00000000       ___guard_iat_count         00000000     <absolute>
 0000:00000000       ___guard_fids_table        00000000     <absolute>
 0000:00000000       ___dynamic_value_reloc_table 00000000     <absolute>
 0000:00000003       ___safe_se_handler_count   00000003     <absolute>
 0000:00000100       ___guard_flags             00000100     <absolute>
 0000:00000000       ___ImageBase               00400000     <linker-defined>
 0001:00000000       _app_main                  00401000 f   clidemo.obj
 0001:00000260       _main                      00401260 f   clidemo.obj
 0001:000003c0       ___local_stdio_printf_options 004013c0 f i pjlib-util-i386-win32-vc8-release-static:errno.obj
 0001:000003d0       __snprintf                 004013d0 f i pjlib-util-i386-win32-vc8-release-static:errno.obj
 0001:00000410       _pjlib_util_init           00401410 f   pjlib-util-i386-win32-vc8-release-static:errno.obj
 0001:00000430       _pjlib_util_strerror       00401430 f   pjlib-util-i386-win32-vc8-release-static:errno.obj
 0001:000019a0       _pj_cli_add_cmd_from_xml   004029a0 f   pjlib-util-i386-win32-vc8-release-static:cli.obj
 0001:00001a60       _pj_cli_cfg_default        00402a60 f   pjlib-util-i386-win32-vc8-release-static:cli.obj
 0001:00001a90       _pj_cli_create             00402a90 f   pjlib-util-i386-win32-vc8-release-static:cli.obj
 0001:00001bb0       _pj_cli_destroy            00402bb0 f   pjlib-util-i386-win32-vc8-release-static:cli.obj
 0001:00001c20       _pj_cli_get_param          00402c20 f   pjlib-util-i386-win32-vc8-release-static:cli.obj
 0001:00001c40       _pj_cli_is_quitting        00402c40 f   pjlib-util-i386-win32-vc8-release-static:cli.obj
 0001:00001c60       _pj_cli_quit               00402c60 f   pjlib-util-i386-win32-vc8-release-static:cli.obj
 0001:00001cc0       _pj_cli_register_front_end 00402cc0 f   pjlib-util-i386-win32-vc8-release-static:cli.obj
 0001:00001cd0       _pj_cli_sess_end_session   00402cd0 f   pjlib-util-i386-win32-vc8-release-static:cli.obj
 0001:00001cf0       _pj_cli_sess_exec          00402cf0 f   pjlib-util-i386-win32-vc8-release-static:cli.obj
 0001:00001e00       _pj_cli_sess_parse         00402e00 f   pjlib-util-i386-win32-vc8-release-static:cli.obj
 0001:000021b0       _pj_cli_write_log          004031b0 f   pjlib-util-i386-win32-vc8-release-static:cli.obj
 0001:000021f0       _sprintf                   004031f0 f i pjlib-util-i386-win32-vc8-release-static:cli.obj
 0001:00002520       _pj_cli_console_cfg_default 00403520 f   pjlib-util-i386-win32-vc8-release-static:cli_console.obj
 0001:00002540       _pj_cli_console_create     00403540 f   pjlib-util-i386-win32-vc8-release-static:cli_console.obj
 0001:00002700       _pj_cli_console_process    00403700 f   pjlib-util-i386-win32-vc8-release-static:cli_console.obj
 0001:00002770       _printf                    00403770 f i pjlib-util-i386-win32-vc8-release-static:cli_console.obj
 0001:00003730       _pj_cli_telnet_cfg_default 00404730 f   pjlib-util-i386-win32-vc8-release-static:cli_telnet.obj
 0001:00003760       _pj_cli_telnet_create      00404760 f   pjlib-util-i386-win32-vc8-release-static:cli_telnet.obj
 0001:00005330       _pj_scan_advance_n         00406330 f   pjlib-util-i386-win32-vc8-release-static:scanner.obj
 0001:00005370       _pj_scan_fini              00406370 f   pjlib-util-i386-win32-vc8-release-static:scanner.obj
 0001:00005390       _pj_scan_get_char          00406390 f   pjlib-util-i386-win32-vc8-release-static:scanner.obj
 0001:000053d0       _pj_scan_get_quotes        004063d0 f   pjlib-util-i386-win32-vc8-release-static:scanner.obj
 0001:00005490       _pj_scan_get_until_ch      00406490 f   pjlib-util-i386-win32-vc8-release-static:scanner.obj
 0001:000054f0       _pj_scan_get_until_chr     004064f0 f   pjlib-util-i386-win32-vc8-release-static:scanner.obj
 0001:00005570       _pj_scan_init              00406570 f   pjlib-util-i386-win32-vc8-release-static:scanner.obj
 0001:000055c0       _pj_scan_skip_whitespace   004065c0 f   pjlib-util-i386-win32-vc8-release-static:scanner.obj
 0001:000056a0       _pj_scan_strcmp            004066a0 f   pjlib-util-i386-win32-vc8-release-static:scanner.obj
 0001:000056f0       _pj_xml_parse              004066f0 f   pjlib-util-i386-win32-vc8-release-static:xml.obj
 0001:00005b10       _pj_atexit                 00406b10 f   pjlib-i386-win32-vc8-release-static:os_core_win32.obj
 0001:00005b40       _pj_atomic_dec_and_get     00406b40 f   pjlib-i386-win32-vc8-release-static:os_core_win32.obj
 0001:00005b90       _pj_atomic_destroy         00406b90 f   pjlib-i386-win32-vc8-release-static:os_core_win32.obj
 0001:00005bb0       _pj_atomic_inc             00406bb0 f   pjlib-i386-win32-vc8-release-static:os_core_win32.obj
 0001:00005c00       _pj_enter_critical_section 00406c00 f   pjlib-i386-win32-vc8-release-static:os_core_win32.obj
 0001:00005c10       _pj_init                   00406c10 f   pjlib-i386-win32-vc8-release-static:os_core_win32.obj
 0001:00005d50       _pj_leave_critical_section 00406d50 f   pjlib-i386-win32-vc8-release-static:os_core_win32.obj
 0001:00005da0       _pj_mutex_create           00406da0 f   pjlib-i386-win32-vc8-release-static:os_core_win32.obj
 0001:00005df0       _pj_mutex_create_recursive 00406df0 f   pjlib-i386-win32-vc8-release-static:os_core_win32.obj
 0001:00005df0       _pj_mutex_create_simple    00406df0 f   pjlib-i386-win32-vc8-release-static:os_core_win32.obj
 0001:00005e40       _pj_mutex_destroy          00406e40 f   pjlib-i386-win32-vc8-release-static:os_core_win32.obj
 0001:00005ea0       _pj_mutex_lock             00406ea0 f   pjlib-i386-win32-vc8-release-static:os_core_win32.obj
 0001:00005f10       _pj_mutex_trylock          00406f10 f   pjlib-i386-win32-vc8-release-static:os_core_win32.obj
 0001:00005f90       _pj_mutex_unlock           00406f90 f   pjlib-i386-win32-vc8-release-static:os_core_win32.obj
 0001:00005ff0       _pj_sem_create             00406ff0 f   pjlib-i386-win32-vc8-release-static:os_core_win32.obj
 0001:00006100       _pj_sem_destroy            00407100 f   pjlib-i386-win32-vc8-release-static:os_core_win32.obj
 0001:00006190       _pj_sem_post               00407190 f   pjlib-i386-win32-vc8-release-static:os_core_win32.obj
 0001:00006220       _pj_sem_trywait            00407220 f   pjlib-i386-win32-vc8-release-static:os_core_win32.obj
 0001:00006280       _pj_sem_wait               00407280 f   pjlib-i386-win32-vc8-release-static:os_core_win32.obj
 0001:00006390       _pj_shutdown               00407390 f   pjlib-i386-win32-vc8-release-static:os_core_win32.obj
 0001:000064d0       _pj_term_set_color         004074d0 f   pjlib-i386-win32-vc8-release-static:os_core_win32.obj
 0001:000065a0       _pj_thread_check_stack     004075a0 f   pjlib-i386-win32-vc8-release-static:os_core_win32.obj
 0001:000065e0       _pj_thread_create          004075e0 f   pjlib-i386-win32-vc8-release-static:os_core_win32.obj
 0001:00006720       _pj_thread_destroy         00407720 f   pjlib-i386-win32-vc8-release-static:os_core_win32.obj
 0001:000067b0       _pj_thread_get_name        004077b0 f   pjlib-i386-win32-vc8-release-static:os_core_win32.obj
 0001:00006800       _pj_thread_init            00407800 f   pjlib-i386-win32-vc8-release-static:os_core_win32.obj
 0001:00006860       _pj_thread_join            00407860 f   pjlib-i386-win32-vc8-release-static:os_core_win32.obj
 0001:00006920       _pj_thread_local_alloc     00407920 f   pjlib-i386-win32-vc8-release-static:os_core_win32.obj
 0001:00006970       _pj_thread_local_free      00407970 f   pjlib-i386-win32-vc8-release-static:os_core_win32.obj
 0001:000069c0       _pj_thread_local_get       004079c0 f   pjlib-i386-win32-vc8-release-static:os_core_win32.obj
 0001:000069d0       _pj_thread_local_set       004079d0 f   pjlib-i386-win32-vc8-release-static:os_core_win32.obj
 0001:00006a10       _pj_thread_register        00407a10 f   pjlib-i386-win32-vc8-release-static:os_core_win32.obj
 0001:00006ad0       _pj_thread_sleep           00407ad0 f   pjlib-i386-win32-vc8-release-static:os_core_win32.obj
 0001:00006b20       _pj_thread_this            00407b20 f   pjlib-i386-win32-vc8-release-static:os_core_win32.obj
 0001:00006bd0       _pj_errno_clear_handlers   00407bd0 f   pjlib-i386-win32-vc8-release-static:errno.obj
 0001:00006bf0       _pj_perror_1               00407bf0 f   pjlib-i386-win32-vc8-release-static:errno.obj
 0001:00006cb0       _pj_register_strerror      00407cb0 f   pjlib-i386-win32-vc8-release-static:errno.obj
 0001:00006d90       _pj_strerror               00407d90 f   pjlib-i386-win32-vc8-release-static:errno.obj
 0001:00006f20       _pj_log                    00407f20 f   pjlib-i386-win32-vc8-release-static:log.obj
 0001:00007420       _pj_log_1                  00408420 f   pjlib-i386-win32-vc8-release-static:log.obj
 0001:00007440       _pj_log_3                  00408440 f   pjlib-i386-win32-vc8-release-static:log.obj
 0001:00007460       _pj_log_4                  00408460 f   pjlib-i386-win32-vc8-release-static:log.obj
 0001:00007480       _pj_log_5                  00408480 f   pjlib-i386-win32-vc8-release-static:log.obj
 0001:000074a0       _pj_log_get_color          004084a0 f   pjlib-i386-win32-vc8-release-static:log.obj
 0001:00007510       _pj_log_get_decor          00408510 f   pjlib-i386-win32-vc8-release-static:log.obj
 0001:00007520       _pj_log_get_level          00408520 f   pjlib-i386-win32-vc8-release-static:log.obj
 0001:00007530       _pj_log_init               00408530 f   pjlib-i386-win32-vc8-release-static:log.obj
 0001:000075a0       _pj_log_set_decor          004085a0 f   pjlib-i386-win32-vc8-release-static:log.obj
 0001:000075b0       _pj_log_set_log_func       004085b0 f   pjlib-i386-win32-vc8-release-static:log.obj
 0001:00007630       _pj_str                    00408630 f   pjlib-i386-win32-vc8-release-static:string.obj
 0001:00007650       _pj_strassign              00408650 f   pjlib-i386-win32-vc8-release-static:string.obj
 0001:00007670       _pj_strcat                 00408670 f   pjlib-i386-win32-vc8-release-static:string.obj
 0001:000076a0       _pj_strcat2                004086a0 f   pjlib-i386-win32-vc8-release-static:string.obj
 0001:000076e0       _pj_strcmp                 004086e0 f   pjlib-i386-win32-vc8-release-static:string.obj
 0001:00007740       _pj_strcmp2                00408740 f   pjlib-i386-win32-vc8-release-static:string.obj
 0001:000077b0       _pj_strcpy                 004087b0 f   pjlib-i386-win32-vc8-release-static:string.obj
 0001:000077e0       _pj_strdup                 004087e0 f   pjlib-i386-win32-vc8-release-static:string.obj
 0001:00007820       _pj_strdup2                00408820 f   pjlib-i386-win32-vc8-release-static:string.obj
 0001:00007880       _pj_stricmp                00408880 f   pjlib-i386-win32-vc8-release-static:string.obj
 0001:000078f0       _pj_stricmp2               004088f0 f   pjlib-i386-win32-vc8-release-static:string.obj
 0001:00007950       _pj_strltrim               00408950 f   pjlib-i386-win32-vc8-release-static:string.obj
 0001:00007990       _pj_strncmp                00408990 f   pjlib-i386-win32-vc8-release-static:string.obj
 0001:00007a20       _pj_strncpy_with_null      00408a20 f   pjlib-i386-win32-vc8-release-static:string.obj
 0001:00007a60       _pj_strrtrim               00408a60 f   pjlib-i386-win32-vc8-release-static:string.obj
 0001:00007aa0       _pj_strtol                 00408aa0 f   pjlib-i386-win32-vc8-release-static:string.obj
 0001:00007b00       _pj_strtoul                00408b00 f   pjlib-i386-win32-vc8-release-static:string.obj
 0001:00007b60       _pj_strtrim                00408b60 f   pjlib-i386-win32-vc8-release-static:string.obj
 0001:00007bd0       _pj_utoa                   00408bd0 f   pjlib-i386-win32-vc8-release-static:string.obj
 0001:00007bf0       _pj_utoa_pad               00408bf0 f   pjlib-i386-win32-vc8-release-static:string.obj
 0001:00008010       _pj_caching_pool_destroy   00409010 f   pjlib-i386-win32-vc8-release-static:pool_caching.obj
 0001:000080f0       _pj_caching_pool_init      004090f0 f   pjlib-i386-win32-vc8-release-static:pool_caching.obj
 0001:000081b0       _pj_list_erase             004091b0 f   pjlib-i386-win32-vc8-release-static:list.obj
 0001:000081d0       _pj_list_insert_after      004091d0 f   pjlib-i386-win32-vc8-release-static:list.obj
 0001:000081f0       _pj_list_insert_before     004091f0 f   pjlib-i386-win32-vc8-release-static:list.obj
 0001:00008210       _pj_list_insert_nodes_after 00409210 f   pjlib-i386-win32-vc8-release-static:list.obj
 0001:00008230       _pj_list_search            00409230 f   pjlib-i386-win32-vc8-release-static:list.obj
 0001:00008270       _pj_list_size              00409270 f   pjlib-i386-win32-vc8-release-static:list.obj
 0001:000082d0       _pj_exception_id_alloc     004092d0 f   pjlib-i386-win32-vc8-release-static:except.obj
 0001:00008320       _pj_exception_id_free      00409320 f   pjlib-i386-win32-vc8-release-static:except.obj
 0001:00008360       _pj_pop_exception_handler_ 00409360 f   pjlib-i386-win32-vc8-release-static:except.obj
 0001:00008390       _pj_push_exception_handler_ 00409390 f   pjlib-i386-win32-vc8-release-static:except.obj
 0001:000083e0       _pj_throw_exception_       004093e0 f   pjlib-i386-win32-vc8-release-static:except.obj
 0001:000086a0       _pj_hash_create            004096a0 f   pjlib-i386-win32-vc8-release-static:hash.obj
 0001:000086f0       _pj_hash_first             004096f0 f   pjlib-i386-win32-vc8-release-static:hash.obj
 0001:00008730       _pj_hash_get               00409730 f   pjlib-i386-win32-vc8-release-static:hash.obj
 0001:00008760       _pj_hash_next              00409760 f   pjlib-i386-win32-vc8-release-static:hash.obj
 0001:000087b0       _pj_hash_set               004097b0 f   pjlib-i386-win32-vc8-release-static:hash.obj
 0001:00008810       _pj_hash_this              00409810 f   pjlib-i386-win32-vc8-release-static:hash.obj
 0001:00008830       _pj_pool_alloc             00409830 f   pjlib-i386-win32-vc8-release-static:pool.obj
 0001:00008880       _pj_pool_allocate_find     00409880 f   pjlib-i386-win32-vc8-release-static:pool.obj
 0001:00008960       _pj_pool_calloc            00409960 f   pjlib-i386-win32-vc8-release-static:pool.obj
 0001:000089c0       _pj_pool_create            004099c0 f   pjlib-i386-win32-vc8-release-static:pool.obj
 0001:00008a50       _pj_pool_create_int        00409a50 f   pjlib-i386-win32-vc8-release-static:pool.obj
 0001:00008b00       _pj_pool_destroy_int       00409b00 f   pjlib-i386-win32-vc8-release-static:pool.obj
 0001:00008b40       _pj_pool_get_capacity      00409b40 f   pjlib-i386-win32-vc8-release-static:pool.obj
 0001:00008b50       _pj_pool_get_used_size     00409b50 f   pjlib-i386-win32-vc8-release-static:pool.obj
 0001:00008b80       _pj_pool_getobjname        00409b80 f   pjlib-i386-win32-vc8-release-static:pool.obj
 0001:00008b90       _pj_pool_init_int          00409b90 f   pjlib-i386-win32-vc8-release-static:pool.obj
 0001:00008c00       _pj_pool_release           00409c00 f   pjlib-i386-win32-vc8-release-static:pool.obj
 0001:00008c20       _pj_pool_reset             00409c20 f   pjlib-i386-win32-vc8-release-static:pool.obj
 0001:00008d70       ?ioqueue_dispatch_exception_event@@YAXPAUpj_ioqueue_t@@PAUpj_ioqueue_key_t@@@Z 00409d70 f   pjlib-i386-win32-vc8-release-static:ioqueue_select.obj
 0001:00008ea0       ?ioqueue_dispatch_read_event@@YAXPAUpj_ioqueue_t@@PAUpj_ioqueue_key_t@@@Z 00409ea0 f   pjlib-i386-win32-vc8-release-static:ioqueue_select.obj
 0001:000090c0       ?ioqueue_dispatch_write_event@@YAXPAUpj_ioqueue_t@@PAUpj_ioqueue_key_t@@@Z 0040a0c0 f   pjlib-i386-win32-vc8-release-static:ioqueue_select.obj
 0001:000094c0       _pj_ioqueue_accept         0040a4c0 f   pjlib-i386-win32-vc8-release-static:ioqueue_select.obj
 0001:00009610       _pj_ioqueue_create         0040a610 f   pjlib-i386-win32-vc8-release-static:ioqueue_select.obj
 0001:000097b0       _pj_ioqueue_destroy        0040a7b0 f   pjlib-i386-win32-vc8-release-static:ioqueue_select.obj
 0001:00009870       _pj_ioqueue_get_user_data  0040a870 f   pjlib-i386-win32-vc8-release-static:ioqueue_select.obj
 0001:00009890       _pj_ioqueue_lock_key       0040a890 f   pjlib-i386-win32-vc8-release-static:ioqueue_select.obj
 0001:000098c0       _pj_ioqueue_op_key_init    0040a8c0 f   pjlib-i386-win32-vc8-release-static:ioqueue_select.obj
 0001:000098e0       _pj_ioqueue_poll           0040a8e0 f   pjlib-i386-win32-vc8-release-static:ioqueue_select.obj
 0001:00009c10       _pj_ioqueue_recv           0040ac10 f   pjlib-i386-win32-vc8-release-static:ioqueue_select.obj
 0001:00009d30       _pj_ioqueue_recvfrom       0040ad30 f   pjlib-i386-win32-vc8-release-static:ioqueue_select.obj
 0001:00009e60       _pj_ioqueue_register_sock2 0040ae60 f   pjlib-i386-win32-vc8-release-static:ioqueue_select.obj
 0001:00009f80       _pj_ioqueue_send           0040af80 f   pjlib-i386-win32-vc8-release-static:ioqueue_select.obj
 0001:0000a120       _pj_ioqueue_set_concurrency 0040b120 f   pjlib-i386-win32-vc8-release-static:ioqueue_select.obj
 0001:0000a140       _pj_ioqueue_set_lock       0040b140 f   pjlib-i386-win32-vc8-release-static:ioqueue_select.obj
 0001:0000a180       _pj_ioqueue_unlock_key     0040b180 f   pjlib-i386-win32-vc8-release-static:ioqueue_select.obj
 0001:0000a1b0       _pj_ioqueue_unregister     0040b1b0 f   pjlib-i386-win32-vc8-release-static:ioqueue_select.obj
 0001:0000a290       _pj_gethostname            0040b290 f   pjlib-i386-win32-vc8-release-static:sock_bsd.obj
 0001:0000a310       _pj_htons                  0040b310 f   pjlib-i386-win32-vc8-release-static:sock_bsd.obj
 0001:0000a320       _pj_inet_aton              0040b320 f   pjlib-i386-win32-vc8-release-static:sock_bsd.obj
 0001:0000a3b0       _pj_ntohl                  0040b3b0 f   pjlib-i386-win32-vc8-release-static:sock_bsd.obj
 0001:0000a3c0       _pj_ntohs                  0040b3c0 f   pjlib-i386-win32-vc8-release-static:sock_bsd.obj
 0001:0000a3d0       _pj_sock_accept            0040b3d0 f   pjlib-i386-win32-vc8-release-static:sock_bsd.obj
 0001:0000a440       _pj_sock_bind              0040b440 f   pjlib-i386-win32-vc8-release-static:sock_bsd.obj
 0001:0000a4b0       _pj_sock_close             0040b4b0 f   pjlib-i386-win32-vc8-release-static:sock_bsd.obj
 0001:0000a500       _pj_sock_getsockname       0040b500 f   pjlib-i386-win32-vc8-release-static:sock_bsd.obj
 0001:0000a560       _pj_sock_getsockopt        0040b560 f   pjlib-i386-win32-vc8-release-static:sock_bsd.obj
 0001:0000a5d0       _pj_sock_listen            0040b5d0 f   pjlib-i386-win32-vc8-release-static:sock_bsd.obj
 0001:0000a620       _pj_sock_recv              0040b620 f   pjlib-i386-win32-vc8-release-static:sock_bsd.obj
 0001:0000a690       _pj_sock_recvfrom          0040b690 f   pjlib-i386-win32-vc8-release-static:sock_bsd.obj
 0001:0000a700       _pj_sock_send              0040b700 f   pjlib-i386-win32-vc8-release-static:sock_bsd.obj
 0001:0000a770       _pj_sock_sendto            0040b770 f   pjlib-i386-win32-vc8-release-static:sock_bsd.obj
 0001:0000a7e0       _pj_sock_setsockopt        0040b7e0 f   pjlib-i386-win32-vc8-release-static:sock_bsd.obj
 0001:0000a860       _pj_sock_socket            0040b860 f   pjlib-i386-win32-vc8-release-static:sock_bsd.obj
 0001:0000a910       _pj_sockaddr_in_get_port   0040b910 f   pjlib-i386-win32-vc8-release-static:sock_common.obj
 0001:0000a930       _pj_sockaddr_in_init       0040b930 f   pjlib-i386-win32-vc8-release-static:sock_common.obj
 0001:0000a980       _pj_sockaddr_in_set_str_addr 0040b980 f   pjlib-i386-win32-vc8-release-static:sock_common.obj
 0001:0000ae30       _pj_activesock_close       0040be30 f   pjlib-i386-win32-vc8-release-static:activesock.obj
 0001:0000ae70       _pj_activesock_create      0040be70 f   pjlib-i386-win32-vc8-release-static:activesock.obj
 0001:0000aff0       _pj_activesock_get_user_data 0040bff0 f   pjlib-i386-win32-vc8-release-static:activesock.obj
 0001:0000b010       _pj_activesock_send        0040c010 f   pjlib-i386-win32-vc8-release-static:activesock.obj
 0001:0000b0e0       _pj_activesock_start_accept 0040c0e0 f   pjlib-i386-win32-vc8-release-static:activesock.obj
 0001:0000b1b0       _pj_activesock_start_read  0040c1b0 f   pjlib-i386-win32-vc8-release-static:activesock.obj
 0001:0000b320       _pj_get_timestamp          0040c320 f   pjlib-i386-win32-vc8-release-static:os_timestamp_win32.obj
 0001:0000b380       _pj_get_timestamp_freq     0040c380 f   pjlib-i386-win32-vc8-release-static:os_timestamp_win32.obj
 0001:0000b460       _pj_generate_unique_string 0040c460 f   pjlib-i386-win32-vc8-release-static:guid_win32.obj
 0001:0000b4b0       _pj_get_netos_error        0040c4b0 f   pjlib-i386-win32-vc8-release-static:os_error_win32.obj
 0001:0000b4d0       _platform_strerror         0040c4d0 f   pjlib-i386-win32-vc8-release-static:os_error_win32.obj
 0001:0000b5b0       _pj_log_write              0040c5b0 f   pjlib-i386-win32-vc8-release-static:log_writer_stdout.obj
 0001:0000b610       _pj_gettimeofday           0040c610 f   pjlib-i386-win32-vc8-release-static:os_time_win32.obj
 0001:0000b6c0       _pj_time_decode            0040c6c0 f   pjlib-i386-win32-vc8-release-static:os_time_win32.obj
 0001:0000b970       _pj_grp_lock_acquire       0040c970 f   pjlib-i386-win32-vc8-release-static:lock.obj
 0001:0000b980       _pj_grp_lock_add_ref       0040c980 f   pjlib-i386-win32-vc8-release-static:lock.obj
 0001:0000b9a0       _pj_grp_lock_dec_ref       0040c9a0 f   pjlib-i386-win32-vc8-release-static:lock.obj
 0001:0000b9d0       _pj_grp_lock_release       0040c9d0 f   pjlib-i386-win32-vc8-release-static:lock.obj
 0001:0000b9e0       _pj_lock_acquire           0040c9e0 f   pjlib-i386-win32-vc8-release-static:lock.obj
 0001:0000ba00       _pj_lock_create_null_mutex 0040ca00 f   pjlib-i386-win32-vc8-release-static:lock.obj
 0001:0000ba20       _pj_lock_create_recursive_mutex 0040ca20 f   pjlib-i386-win32-vc8-release-static:lock.obj
 0001:0000ba40       _pj_lock_create_simple_mutex 0040ca40 f   pjlib-i386-win32-vc8-release-static:lock.obj
 0001:0000ba60       _pj_lock_destroy           0040ca60 f   pjlib-i386-win32-vc8-release-static:lock.obj
 0001:0000ba80       _pj_lock_release           0040ca80 f   pjlib-i386-win32-vc8-release-static:lock.obj
 0001:0000baa0       _pj_pool_create_on_buf     0040caa0 f   pjlib-i386-win32-vc8-release-static:pool_buf.obj
 0001:0000bc70       _pj_time_val_normalize     0040cc70 f   pjlib-i386-win32-vc8-release-static:types.obj
 0001:0000bd00       _pj_elapsed_time           0040cd00 f   pjlib-i386-win32-vc8-release-static:os_timestamp_common.obj
 0001:0000bdb0       _pj_gettickcount           0040cdb0 f   pjlib-i386-win32-vc8-release-static:os_timestamp_common.obj
 0001:0000bdf0       _PJ_FD_CLR                 0040cdf0 f   pjlib-i386-win32-vc8-release-static:sock_select.obj
 0001:0000be70       _PJ_FD_COUNT               0040ce70 f   pjlib-i386-win32-vc8-release-static:sock_select.obj
 0001:0000be80       _PJ_FD_ISSET               0040ce80 f   pjlib-i386-win32-vc8-release-static:sock_select.obj
 0001:0000beb0       _PJ_FD_SET                 0040ceb0 f   pjlib-i386-win32-vc8-release-static:sock_select.obj
 0001:0000bf20       _PJ_FD_ZERO                0040cf20 f   pjlib-i386-win32-vc8-release-static:sock_select.obj
 0001:0000bf50       _pj_sock_select            0040cf50 f   pjlib-i386-win32-vc8-release-static:sock_select.obj
 0001:0000bfc0       _pj_gethostbyname          0040cfc0 f   pjlib-i386-win32-vc8-release-static:addr_resolv_sock.obj
 0001:0000c07c       ___WSAFDIsSet@8            0040d07c f   ws2_32:WS2_32.dll
 0001:0000c082       @__security_check_cookie@4 0040d082 f   LIBCMT:_secchk_.obj
 0001:0000c2c0       _mainCRTStartup            0040d2c0 f   LIBCMT:exe_main.obj
 0001:0000c2ca       ___raise_securityfailure   0040d2ca f   LIBCMT:gs_report.obj
 0001:0000c2f2       ___report_gsfailure        0040d2f2 f   LIBCMT:gs_report.obj
 0001:0000c3ed       ___report_rangecheckfailure 0040d3ed f   LIBCMT:gs_report.obj
 0001:0000c3f9       ___report_securityfailure  0040d3f9 f   LIBCMT:gs_report.obj
 0001:0000c4d0       __alldiv                   0040d4d0 f   LIBCMT:lldiv.obj
 0001:0000c580       __allmul                   0040d580 f   LIBCMT:llmul.obj
 0001:0000c5c0       __ftoui3                   0040d5c0 f   LIBCMT:_ftol3_.obj
 0001:0000c5cf       __ftoul3                   0040d5cf f   LIBCMT:_ftol3_.obj
 0001:0000c5de       __ftol3                    0040d5de f   LIBCMT:_ftol3_.obj
 0001:0000c5eb       __ftol3_NaN                0040d5eb f   LIBCMT:_ftol3_.obj
 0001:0000c603       __ftol3_work               0040d603 f   LIBCMT:_ftol3_.obj
 0001:0000c689       __ftol3_common             0040d689 f   LIBCMT:_ftol3_.obj
 0001:0000c74b       __ftol3_arg_error          0040d74b f   LIBCMT:_ftol3_.obj
 0001:0000c75d       __ftol3_except             0040d75d f   LIBCMT:_ftol3_.obj
 0001:0000c7a1       __dtoui3                   0040d7a1 f   LIBCMT:_ftol3_.obj
 0001:0000c7b0       __dtoul3                   0040d7b0 f   LIBCMT:_ftol3_.obj
 0001:0000c7bf       __dtol3                    0040d7bf f   LIBCMT:_ftol3_.obj
 0001:0000c7cc       __dtol3_NaN                0040d7cc f   LIBCMT:_ftol3_.obj
 0001:0000c7e9       __dtol3_work               0040d7e9 f   LIBCMT:_ftol3_.obj
 0001:0000c8d0       __ultod3                   0040d8d0 f   LIBCMT:_ftol3_.obj
 0001:0000c910       __ltod3                    0040d910 f   LIBCMT:_ftol3_.obj
 0001:0000c937       ??$__crt_fast_encode_pointer@PAX@@YAPAXQAX@Z 0040d937 f i libvcruntime:winapi_downlevel.obj
 0001:0000c937       ??$__crt_fast_encode_pointer@PAP6AXXZ@@YAPAP6AXXZQAP6AXXZ@Z 0040d937 f i LIBCMT:utility.obj
 0001:0000c998       ___scrt_acquire_startup_lock 0040d998 f   LIBCMT:utility.obj
 0001:0000c9cd       ___scrt_initialize_crt     0040d9cd f   LIBCMT:utility.obj
 0001:0000ca06       ___scrt_initialize_onexit_tables 0040da06 f   LIBCMT:utility.obj
 0001:0000ca9d       ___scrt_is_nonwritable_in_current_image 0040da9d f   LIBCMT:utility.obj
 0001:0000cb27       ___scrt_release_startup_lock 0040db27 f   LIBCMT:utility.obj
 0001:0000cb44       ___scrt_uninitialize_crt   0040db44 f   LIBCMT:utility.obj
 0001:0000cb6c       __onexit                   0040db6c f   LIBCMT:utility.obj
 0001:0000cba7       _atexit                    0040dba7 f   LIBCMT:utility.obj
 0001:0000cbbc       ___security_init_cookie    0040dbbc f   LIBCMT:gs_support.obj
 0001:0000cc58       __get_startup_argv_mode    0040dc58 f   LIBCMT:argv_mode.obj
 0001:0000cc5c       __get_startup_file_mode    0040dc5c f   LIBCMT:file_mode.obj
 0001:0000cc62       ?__scrt_initialize_type_info@@YAXXZ 0040dc62 f   LIBCMT:tncleanup.obj
 0001:0000cc6e       __initialize_default_precision 0040dc6e f   LIBCMT:default_precision.obj
 0001:0000cc8f       ___local_stdio_scanf_options 0040dc8f f i LIBCMT:default_local_stdio_options.obj
 0001:0000cc95       ___scrt_initialize_default_local_stdio_options 0040dc95 f   LIBCMT:default_local_stdio_options.obj
 0001:0000ccb2       ___scrt_is_user_matherr_present 0040dcb2 f   LIBCMT:matherr_detection.obj
 0001:0000ccbe       ___scrt_get_dyn_tls_init_callback 0040dcbe f   LIBCMT:dyn_tls_init.obj
 0001:0000ccc4       ___scrt_get_dyn_tls_dtor_callback 0040dcc4 f   LIBCMT:dyn_tls_dtor.obj
 0001:0000ccca       ___scrt_fastfail           0040dcca f   LIBCMT:utility_desktop.obj
 0001:0000cdf0       __matherr                  0040ddf0 f   LIBCMT:matherr.obj
 0001:0000cdf0       __get_startup_commit_mode  0040ddf0 f   LIBCMT:commit_mode.obj
 0001:0000cdf0       __get_startup_new_mode     0040ddf0 f   LIBCMT:new_mode.obj
 0001:0000cdf0       __get_startup_thread_locale_mode 0040ddf0 f   LIBCMT:thread_locale.obj
 0001:0000cdf0       ___scrt_initialize_winrt   0040ddf0 f   LIBCMT:utility_desktop.obj
 0001:0000cdf3       ___scrt_is_managed_app     0040ddf3 f   LIBCMT:utility_desktop.obj
 0001:0000ce37       ___scrt_set_unhandled_exception_filter 0040de37 f   LIBCMT:utility_desktop.obj
 0001:0000ce43       ___scrt_unhandled_exception_filter@4 0040de43 f   LIBCMT:utility_desktop.obj
 0001:0000ce84       __crt_debugger_hook        0040de84 f   LIBCMT:utility_desktop.obj
 0001:0000ce8c       __RTC_Initialize           0040de8c f   LIBCMT:_initsect_.obj
 0001:0000ceb7       __RTC_Terminate            0040deb7 f   LIBCMT:_initsect_.obj
 0001:0000cee2       @_guard_check_icall@4      0040dee2 f i LIBCMT:checkcfg.obj
 0001:0000cef0       __SEH_prolog4              0040def0 f   LIBCMT:_sehprolg4_.obj
 0001:0000cf36       __SEH_epilog4              0040df36 f   LIBCMT:_sehprolg4_.obj
 0001:0000cf4b       ___isa_available_init      0040df4b f   LIBCMT:_cpu_disp_.obj
 0001:0000d0e5       ___scrt_is_ucrt_dll_in_use 0040e0e5 f   LIBCMT:ucrt_detection.obj
 0001:0000d0f2       _IsProcessorFeaturePresent@4 0040e0f2 f   kernel32:KERNEL32.dll
 0001:0000d100       __setjmp3                  0040e100 f   libvcruntime:_setjmp3_.obj
 0001:0000d180       _memcpy                    0040e180 f   libvcruntime:memcpy.obj
 0001:0000d700       _memset                    0040e700 f   libvcruntime:memset.obj
 0001:0000d860       _memmove                   0040e860 f   libvcruntime:memmove.obj
 0001:0000dde0       _memchr                    0040ede0 f   libvcruntime:memchr.obj
 0001:0000de90       _strchr                    0040ee90 f   libvcruntime:strchr.obj
 0001:0000defe       ___from_strstr_to_strchr   0040eefe     libvcruntime:strchr.obj
 0001:0000dfbb       _longjmp                   0040efbb f   libvcruntime:longjmpc.obj
 0001:0000e010       __except_handler4          0040f010 f   libvcruntime:_chandler4_.obj
 0001:0000e176       ___vcrt_initialize         0040f176 f   libvcruntime:initialization.obj
 0001:0000e19f       ___vcrt_uninitialize       0040f19f f   libvcruntime:initialization.obj
 0001:0000e1c0       __global_unwind2           0040f1c0 f   libvcruntime:_exsup_.obj
 0001:0000e225       __local_unwind2            0040f225 f   libvcruntime:_exsup_.obj
 0001:0000e2a9       __abnormal_termination     0040f2a9 f   libvcruntime:_exsup_.obj
 0001:0000e2cc       __NLG_Notify1              0040f2cc f   libvcruntime:_exsup_.obj
 0001:0000e2d5       __NLG_Notify               0040f2d5 f   libvcruntime:_exsup_.obj
 0001:0000e2ec       __NLG_Dispatch             0040f2ec     libvcruntime:_exsup_.obj
 0001:0000e2ec       __NLG_Dispatch2            0040f2ec     libvcruntime:_exsup_.obj
 0001:0000e2f4       __NLG_Call                 0040f2f4 f   libvcruntime:_exsup_.obj
 0001:0000e2f6       __NLG_Return2              0040f2f6     libvcruntime:_exsup_.obj
 0001:0000e300       ___longjmp_internal        0040f300 f   libvcruntime:_longjmp_.obj
 0001:0000e3b1       __initialize_denormal_control 0040f3b1 f   LIBCMT:denormal_control.obj
 0001:0000e3b1       ___except_validate_jump_buffer 0040f3b1 f   libvcruntime:jbcxrval.obj
 0001:0000e3b1       ___except_validate_context_record 0040f3b1 f   libvcruntime:jbcxrval.obj
 0001:0000e3b1       __initialize_invalid_parameter_handler 0040f3b1 f   LIBCMT:invalid_parameter_handler.obj
 0001:0000e3b1       @_guard_check_icall_nop@4  0040f3b1 f   LIBCMT:guard_support.obj
 0001:0000e3c0       __local_unwind4            0040f3c0 f   libvcruntime:_exsup4_.obj
 0001:0000e496       __seh_longjmp_unwind4@4    0040f496 f   libvcruntime:_exsup4_.obj
 0001:0000e4be       @_EH4_CallFilterFunc@8     0040f4be f   libvcruntime:_exsup4_.obj
 0001:0000e4d5       @_EH4_TransferToHandler@8  0040f4d5 f   libvcruntime:_exsup4_.obj
 0001:0000e4ee       @_EH4_GlobalUnwind2@8      0040f4ee f   libvcruntime:_exsup4_.obj
 0001:0000e507       @_EH4_LocalUnwind@16       0040f507 f   libvcruntime:_exsup4_.obj
 0001:0000e51e       ___vcrt_freefls@4          0040f51e f   libvcruntime:per_thread_data.obj
 0001:0000e53a       ___vcrt_initialize_ptd     0040f53a f   libvcruntime:per_thread_data.obj
 0001:0000e56d       ___vcrt_uninitialize_ptd   0040f56d f   libvcruntime:per_thread_data.obj
 0001:0000e588       ___vcrt_initialize_locks   0040f588 f   libvcruntime:locks.obj
 0001:0000e5c4       ___vcrt_uninitialize_locks 0040f5c4 f   libvcruntime:locks.obj
 0001:0000e714       ___vcrt_FlsAlloc           0040f714 f   libvcruntime:winapi_downlevel.obj
 0001:0000e74e       ___vcrt_FlsFree            0040f74e f   libvcruntime:winapi_downlevel.obj
 0001:0000e788       ___vcrt_FlsSetValue        0040f788 f   libvcruntime:winapi_downlevel.obj
 0001:0000e7c5       ___vcrt_InitializeCriticalSectionEx 0040f7c5 f   libvcruntime:winapi_downlevel.obj
 0001:0000e80b       ___vcrt_initialize_winapi_thunks 0040f80b f   libvcruntime:winapi_downlevel.obj
 0001:0000e845       ___vcrt_uninitialize_winapi_thunks 0040f845 f   libvcruntime:winapi_downlevel.obj
 0001:0000e877       ___vcrt_initialize_pure_virtual_call_handler 0040f877 f   libvcruntime:purevirt_data.obj
 0001:0000e894       __rt_probe_read4@4         0040f894 f   libvcruntime:_sehsupp_.obj
 0001:0000e8d8       ??$?RV<lambda_db08b09ef7aa9d4f8620ce68402612bc>@@AAV<lambda_4f2c1eaeead2a5fc776db5b62ea0fb9b>@@V<lambda_3ae262bc35d4ba6a3825c4f6bcaaf95c>@@@?$__crt_seh_guarded_call@H@@QAEH$$QAV<lambda_db08b09ef7aa9d4f8620ce68402612bc>@@AAV<lambda_4f2c1eaeead2a5fc776db5b62ea0fb9b>@@$$QAV<lambda_3ae262bc35d4ba6a3825c4f6bcaaf95c>@@@Z 0040f8d8 f i libucrt:output.obj
 0001:0000e929       ??$__acrt_lock_stream_and_call@V<lambda_4f2c1eaeead2a5fc776db5b62ea0fb9b>@@@@YAHQAU_iobuf@@$$QAV<lambda_4f2c1eaeead2a5fc776db5b62ea0fb9b>@@@Z 0040f929 f i libucrt:output.obj
 0001:0000eacd       ??$count@D@formatting_buffer@__crt_stdio_output@@QBEIXZ 0040facd f i libucrt:output.obj
 0001:0000eae5       ??$ensure_buffer_is_big_enough@D@formatting_buffer@__crt_stdio_output@@QAE_NI@Z 0040fae5 f i libucrt:output.obj
 0001:0000eb6b       ??$is_wide_character_specifier@D@__crt_stdio_output@@YA_N_KDW4length_modifier@0@@Z 0040fb6b f i libucrt:output.obj
 0001:0000ebab       ??$scratch_data@D@formatting_buffer@__crt_stdio_output@@QAEPADXZ 0040fbab f i libucrt:output.obj
 0001:0000ebc9       ??$type_case_integer_parse_into_buffer@I@?$output_processor@DV?$stream_output_adapter@D@__crt_stdio_output@@V?$standard_base@DV?$stream_output_adapter@D@__crt_stdio_output@@@2@@__crt_stdio_output@@AAEXII_N@Z 0040fbc9 f i libucrt:output.obj
 0001:0000ebc9       ??$type_case_integer_parse_into_buffer@I@?$output_processor@DV?$string_output_adapter@D@__crt_stdio_output@@V?$standard_base@DV?$string_output_adapter@D@__crt_stdio_output@@@2@@__crt_stdio_output@@AAEXII_N@Z 0040fbc9 f i libucrt:output.obj
 0001:0000ec3e       ??$type_case_integer_parse_into_buffer@_K@?$output_processor@DV?$stream_output_adapter@D@__crt_stdio_output@@V?$standard_base@DV?$stream_output_adapter@D@__crt_stdio_output@@@2@@__crt_stdio_output@@AAEX_KI_N@Z 0040fc3e f i libucrt:output.obj
 0001:0000ec3e       ??$type_case_integer_parse_into_buffer@_K@?$output_processor@DV?$string_output_adapter@D@__crt_stdio_output@@V?$standard_base@DV?$string_output_adapter@D@__crt_stdio_output@@@2@@__crt_stdio_output@@AAEX_KI_N@Z 0040fc3e f i libucrt:output.obj
 0001:0000ecc6       ??$write_multiple_characters@V?$stream_output_adapter@D@__crt_stdio_output@@D@__crt_stdio_output@@YAXABV?$stream_output_adapter@D@0@DHQAH@Z 0040fcc6 f i libucrt:output.obj
 0001:0000ecf2       ??$write_multiple_characters@V?$string_output_adapter@D@__crt_stdio_output@@D@__crt_stdio_output@@YAXABV?$string_output_adapter@D@0@DHQAH@Z 0040fcf2 f i libucrt:output.obj
 0001:0000ed1e       ??0?$common_data@D@__crt_stdio_output@@IAE@XZ 0040fd1e f i libucrt:output.obj
 0001:0000ed65       ??0?$output_adapter_data@DV?$string_output_adapter@D@__crt_stdio_output@@@__crt_stdio_output@@IAE@ABV?$string_output_adapter@D@1@_KQBDQAU__crt_locale_pointers@@QAD@Z 0040fd65 f i libucrt:output.obj
 0001:0000ed65       ??0?$output_adapter_data@DV?$stream_output_adapter@D@__crt_stdio_output@@@__crt_stdio_output@@IAE@ABV?$stream_output_adapter@D@1@_KQBDQAU__crt_locale_pointers@@QAD@Z 0040fd65 f i libucrt:output.obj
 0001:0000eda1       ??0?$output_processor@DV?$string_output_adapter@D@__crt_stdio_output@@V?$standard_base@DV?$string_output_adapter@D@__crt_stdio_output@@@2@@__crt_stdio_output@@QAE@ABV?$string_output_adapter@D@1@_KQBDQAU__crt_locale_pointers@@QAD@Z 0040fda1 f i libucrt:output.obj
 0001:0000eda1       ??0?$output_processor@DV?$stream_output_adapter@D@__crt_stdio_output@@V?$standard_base@DV?$stream_output_adapter@D@__crt_stdio_output@@@2@@__crt_stdio_output@@QAE@ABV?$stream_output_adapter@D@1@_KQBDQAU__crt_locale_pointers@@QAD@Z 0040fda1 f i libucrt:output.obj
 0001:0000edd6       ??0_LocaleUpdate@@QAE@QAU__crt_locale_pointers@@@Z 0040fdd6 f i libucrt:output.obj
 0001:0000ee59       ??1formatting_buffer@__crt_stdio_output@@QAE@XZ 0040fe59 f i libucrt:output.obj
 0001:0000ee73       ??4?$__crt_unique_heap_ptr@DU__crt_internal_free_policy@@@@QAEAAV0@$$QAV0@@Z 0040fe73 f i libucrt:output.obj
 0001:0000ef54       ?crop_zeroes@__crt_stdio_output@@YAXPADQAU__crt_locale_pointers@@@Z 0040ff54 f i libucrt:output.obj
 0001:0000efab       ?find_next_state@?$output_processor@DV?$string_output_adapter@D@__crt_stdio_output@@V?$standard_base@DV?$string_output_adapter@D@__crt_stdio_output@@@2@@__crt_stdio_output@@ABE?AW4state@2@DW432@@Z 0040ffab f i libucrt:output.obj
 0001:0000efab       ?find_next_state@?$output_processor@DV?$stream_output_adapter@D@__crt_stdio_output@@V?$standard_base@DV?$stream_output_adapter@D@__crt_stdio_output@@@2@@__crt_stdio_output@@ABE?AW4state@2@DW432@@Z 0040ffab f i libucrt:output.obj
 0001:0000efdd       ?force_decimal_point@__crt_stdio_output@@YAXPADQAU__crt_locale_pointers@@@Z 0040ffdd f i libucrt:output.obj
 0001:0000f039       ?parse_int_from_format_string@?$output_processor@DV?$string_output_adapter@D@__crt_stdio_output@@V?$standard_base@DV?$string_output_adapter@D@__crt_stdio_output@@@2@@__crt_stdio_output@@AAE_NQAH@Z 00410039 f i libucrt:output.obj
 0001:0000f039       ?parse_int_from_format_string@?$output_processor@DV?$stream_output_adapter@D@__crt_stdio_output@@V?$standard_base@DV?$stream_output_adapter@D@__crt_stdio_output@@@2@@__crt_stdio_output@@AAE_NQAH@Z 00410039 f i libucrt:output.obj
 0001:0000f095       ?process@?$output_processor@DV?$stream_output_adapter@D@__crt_stdio_output@@V?$standard_base@DV?$stream_output_adapter@D@__crt_stdio_output@@@2@@__crt_stdio_output@@QAEHXZ 00410095 f i libucrt:output.obj
 0001:0000f1b1       ?process@?$output_processor@DV?$string_output_adapter@D@__crt_stdio_output@@V?$standard_base@DV?$string_output_adapter@D@__crt_stdio_output@@@2@@__crt_stdio_output@@QAEHXZ 004101b1 f i libucrt:output.obj
 0001:0000f2cd       ?state_case_flag@?$output_processor@DV?$string_output_adapter@D@__crt_stdio_output@@V?$standard_base@DV?$string_output_adapter@D@__crt_stdio_output@@@2@@__crt_stdio_output@@AAE_NXZ 004102cd f i libucrt:output.obj
 0001:0000f2cd       ?state_case_flag@?$output_processor@DV?$stream_output_adapter@D@__crt_stdio_output@@V?$standard_base@DV?$stream_output_adapter@D@__crt_stdio_output@@@2@@__crt_stdio_output@@AAE_NXZ 004102cd f i libucrt:output.obj
 0001:0000f30a       ?state_case_normal@?$output_processor@DV?$stream_output_adapter@D@__crt_stdio_output@@V?$standard_base@DV?$stream_output_adapter@D@__crt_stdio_output@@@2@@__crt_stdio_output@@AAE_NXZ 0041030a f i libucrt:output.obj
 0001:0000f329       ?state_case_normal@?$output_processor@DV?$string_output_adapter@D@__crt_stdio_output@@V?$standard_base@DV?$string_output_adapter@D@__crt_stdio_output@@@2@@__crt_stdio_output@@AAE_NXZ 00410329 f i libucrt:output.obj
 0001:0000f348       ?state_case_normal_common@?$output_processor@DV?$stream_output_adapter@D@__crt_stdio_output@@V?$standard_base@DV?$stream_output_adapter@D@__crt_stdio_output@@@2@@__crt_stdio_output@@AAE_NXZ 00410348 f i libucrt:output.obj
 0001:0000f372       ?state_case_normal_common@?$output_processor@DV?$string_output_adapter@D@__crt_stdio_output@@V?$standard_base@DV?$string_output_adapter@D@__crt_stdio_output@@@2@@__crt_stdio_output@@AAE_NXZ 00410372 f i libucrt:output.obj
 0001:0000f39c       ?state_case_normal_tchar@?$output_processor@DV?$stream_output_adapter@D@__crt_stdio_output@@V?$standard_base@DV?$stream_output_adapter@D@__crt_stdio_output@@@2@@__crt_stdio_output@@AAE_ND@Z 0041039c f i libucrt:output.obj
 0001:0000f3fd       ?state_case_normal_tchar@?$output_processor@DV?$string_output_adapter@D@__crt_stdio_output@@V?$standard_base@DV?$string_output_adapter@D@__crt_stdio_output@@@2@@__crt_stdio_output@@AAE_ND@Z 004103fd f i libucrt:output.obj
 0001:0000f45e       ?state_case_precision@?$output_processor@DV?$stream_output_adapter@D@__crt_stdio_output@@V?$standard_base@DV?$stream_output_adapter@D@__crt_stdio_output@@@2@@__crt_stdio_output@@AAE_NXZ 0041045e f i libucrt:output.obj
 0001:0000f45e       ?state_case_precision@?$output_processor@DV?$string_output_adapter@D@__crt_stdio_output@@V?$standard_base@DV?$string_output_adapter@D@__crt_stdio_output@@@2@@__crt_stdio_output@@AAE_NXZ 0041045e f i libucrt:output.obj
 0001:0000f486       ?state_case_size@?$output_processor@DV?$stream_output_adapter@D@__crt_stdio_output@@V?$standard_base@DV?$stream_output_adapter@D@__crt_stdio_output@@@2@@__crt_stdio_output@@AAE_NXZ 00410486 f i libucrt:output.obj
 0001:0000f5ef       ?state_case_size@?$output_processor@DV?$string_output_adapter@D@__crt_stdio_output@@V?$standard_base@DV?$string_output_adapter@D@__crt_stdio_output@@@2@@__crt_stdio_output@@AAE_NXZ 004105ef f i libucrt:output.obj
 0001:0000f758       ?state_case_type@?$output_processor@DV?$stream_output_adapter@D@__crt_stdio_output@@V?$standard_base@DV?$stream_output_adapter@D@__crt_stdio_output@@@2@@__crt_stdio_output@@AAE_NXZ 00410758 f i libucrt:output.obj
 0001:0000f987       ?state_case_type@?$output_processor@DV?$string_output_adapter@D@__crt_stdio_output@@V?$standard_base@DV?$string_output_adapter@D@__crt_stdio_output@@@2@@__crt_stdio_output@@AAE_NXZ 00410987 f i libucrt:output.obj
 0001:0000fbb6       ?state_case_width@?$output_processor@DV?$string_output_adapter@D@__crt_stdio_output@@V?$standard_base@DV?$string_output_adapter@D@__crt_stdio_output@@@2@@__crt_stdio_output@@AAE_NXZ 00410bb6 f i libucrt:output.obj
 0001:0000fbb6       ?state_case_width@?$output_processor@DV?$stream_output_adapter@D@__crt_stdio_output@@V?$standard_base@DV?$stream_output_adapter@D@__crt_stdio_output@@@2@@__crt_stdio_output@@AAE_NXZ 00410bb6 f i libucrt:output.obj
 0001:0000fbe1       ?to_integer_size@__crt_stdio_output@@YAIW4length_modifier@1@@Z 00410be1 f i libucrt:output.obj
 0001:0000fc3d       ?type_case_Z@?$output_processor@DV?$stream_output_adapter@D@__crt_stdio_output@@V?$standard_base@DV?$stream_output_adapter@D@__crt_stdio_output@@@2@@__crt_stdio_output@@AAE_NXZ 00410c3d f i libucrt:output.obj
 0001:0000fc3d       ?type_case_Z@?$output_processor@DV?$string_output_adapter@D@__crt_stdio_output@@V?$standard_base@DV?$string_output_adapter@D@__crt_stdio_output@@@2@@__crt_stdio_output@@AAE_NXZ 00410c3d f i libucrt:output.obj
 0001:0000fca0       ?type_case_a@?$output_processor@DV?$stream_output_adapter@D@__crt_stdio_output@@V?$standard_base@DV?$stream_output_adapter@D@__crt_stdio_output@@@2@@__crt_stdio_output@@AAE_NXZ 00410ca0 f i libucrt:output.obj
 0001:0000fca0       ?type_case_a@?$output_processor@DV?$string_output_adapter@D@__crt_stdio_output@@V?$standard_base@DV?$string_output_adapter@D@__crt_stdio_output@@@2@@__crt_stdio_output@@AAE_NXZ 00410ca0 f i libucrt:output.obj
 0001:0000fdfa       ?type_case_c_tchar@?$output_processor@DV?$string_output_adapter@D@__crt_stdio_output@@V?$standard_base@DV?$string_output_adapter@D@__crt_stdio_output@@@2@@__crt_stdio_output@@AAE_ND@Z 00410dfa f i libucrt:output.obj
 0001:0000fdfa       ?type_case_c_tchar@?$output_processor@DV?$stream_output_adapter@D@__crt_stdio_output@@V?$standard_base@DV?$stream_output_adapter@D@__crt_stdio_output@@@2@@__crt_stdio_output@@AAE_ND@Z 00410dfa f i libucrt:output.obj
 0001:0000fe8a       ?type_case_integer@?$output_processor@DV?$string_output_adapter@D@__crt_stdio_output@@V?$standard_base@DV?$string_output_adapter@D@__crt_stdio_output@@@2@@__crt_stdio_output@@AAE_NI_N@Z 00410e8a f i libucrt:output.obj
 0001:0000fe8a       ?type_case_integer@?$output_processor@DV?$stream_output_adapter@D@__crt_stdio_output@@V?$standard_base@DV?$stream_output_adapter@D@__crt_stdio_output@@@2@@__crt_stdio_output@@AAE_NI_N@Z 00410e8a f i libucrt:output.obj
 0001:0000ffd4       ?type_case_n@?$output_processor@DV?$stream_output_adapter@D@__crt_stdio_output@@V?$standard_base@DV?$stream_output_adapter@D@__crt_stdio_output@@@2@@__crt_stdio_output@@AAE_NXZ 00410fd4 f i libucrt:output.obj
 0001:0000ffd4       ?type_case_n@?$output_processor@DV?$string_output_adapter@D@__crt_stdio_output@@V?$standard_base@DV?$string_output_adapter@D@__crt_stdio_output@@@2@@__crt_stdio_output@@AAE_NXZ 00410fd4 f i libucrt:output.obj
 0001:00010048       ?type_case_o@?$output_processor@DV?$string_output_adapter@D@__crt_stdio_output@@V?$standard_base@DV?$string_output_adapter@D@__crt_stdio_output@@@2@@__crt_stdio_output@@AAE_NXZ 00411048 f i libucrt:output.obj
 0001:00010048       ?type_case_o@?$output_processor@DV?$stream_output_adapter@D@__crt_stdio_output@@V?$standard_base@DV?$stream_output_adapter@D@__crt_stdio_output@@@2@@__crt_stdio_output@@AAE_NXZ 00411048 f i libucrt:output.obj
 0001:00010067       ?type_case_p@?$output_processor@DV?$stream_output_adapter@D@__crt_stdio_output@@V?$standard_base@DV?$stream_output_adapter@D@__crt_stdio_output@@@2@@__crt_stdio_output@@AAE_NXZ 00411067 f i libucrt:output.obj
 0001:00010067       ?type_case_p@?$output_processor@DV?$string_output_adapter@D@__crt_stdio_output@@V?$standard_base@DV?$string_output_adapter@D@__crt_stdio_output@@@2@@__crt_stdio_output@@AAE_NXZ 00411067 f i libucrt:output.obj
 0001:0001007f       ?type_case_s@?$output_processor@DV?$string_output_adapter@D@__crt_stdio_output@@V?$standard_base@DV?$string_output_adapter@D@__crt_stdio_output@@@2@@__crt_stdio_output@@AAE_NXZ 0041107f f i libucrt:output.obj
 0001:0001007f       ?type_case_s@?$output_processor@DV?$stream_output_adapter@D@__crt_stdio_output@@V?$standard_base@DV?$stream_output_adapter@D@__crt_stdio_output@@@2@@__crt_stdio_output@@AAE_NXZ 0041107f f i libucrt:output.obj
 0001:000100f2       ?validate@?$stream_output_adapter@D@__crt_stdio_output@@QBE_NXZ 004110f2 f i libucrt:output.obj
 0001:00010113       ?validate_stream_is_ansi_if_required@?$__acrt_stdio_char_traits@D@@SA_NQAU_iobuf@@@Z 00411113 f i libucrt:output.obj
 0001:00010195       ?write_character@?$stream_output_adapter@D@__crt_stdio_output@@QBEXDQAH@Z 00411195 f i libucrt:output.obj
 0001:000101d2       ?write_character@?$string_output_adapter@D@__crt_stdio_output@@QBE_NDQAH@Z 004111d2 f i libucrt:output.obj
 0001:00010214       ?write_stored_string_tchar@?$output_processor@DV?$stream_output_adapter@D@__crt_stdio_output@@V?$standard_base@DV?$stream_output_adapter@D@__crt_stdio_output@@@2@@__crt_stdio_output@@AAE_ND@Z 00411214 f i libucrt:output.obj
 0001:000102bb       ?write_stored_string_tchar@?$output_processor@DV?$string_output_adapter@D@__crt_stdio_output@@V?$standard_base@DV?$string_output_adapter@D@__crt_stdio_output@@@2@@__crt_stdio_output@@AAE_ND@Z 004112bb f i libucrt:output.obj
 0001:00010362       ?write_string@?$stream_output_adapter@D@__crt_stdio_output@@QBEXQBDHQAH1@Z 00411362 f i libucrt:output.obj
 0001:000103ec       ?write_string@?$string_output_adapter@D@__crt_stdio_output@@QBEXQBDHQAH1@Z 004113ec f i libucrt:output.obj
 0001:0001047f       ___stdio_common_vfprintf   0041147f f   libucrt:output.obj
 0001:000104f6       ___stdio_common_vsprintf   004114f6 f   libucrt:output.obj
 0001:0001051a       ___acrt_initialize_stdio   0041151a f   libucrt:_file.obj
 0001:000105e2       ___acrt_iob_func           004115e2 f   libucrt:_file.obj
 0001:000105f2       ___acrt_uninitialize_stdio 004115f2 f   libucrt:_file.obj
 0001:0001063e       __lock_file                0041163e f   libucrt:_file.obj
 0001:00010652       __unlock_file              00411652 f   libucrt:_file.obj
 0001:0001072b       _fgets                     0041172b f   libucrt:fgets.obj
 0001:00010848       _freopen                   00411848 f   libucrt:freopen.obj
 0001:00010870       ??$?RV<lambda_1fb4243d5e107ad4daf16ff362ca4a34>@@AAV<lambda_55f9cbce55698c0319f95c01c080475b>@@V<lambda_d740392b9cecdfa14abfd902a66ab607>@@@?$__crt_seh_guarded_call@H@@QAEH$$QAV<lambda_1fb4243d5e107ad4daf16ff362ca4a34>@@AAV<lambda_55f9cbce55698c0319f95c01c080475b>@@$$QAV<lambda_d740392b9cecdfa14abfd902a66ab607>@@@Z 00411870 f i libucrt:puts.obj
 0001:000108c1       ??$__acrt_lock_stream_and_call@V<lambda_55f9cbce55698c0319f95c01c080475b>@@@@YAHQAU_iobuf@@$$QAV<lambda_55f9cbce55698c0319f95c01c080475b>@@@Z 004118c1 f i libucrt:puts.obj
 0001:0001094b       _puts                      0041194b f   libucrt:puts.obj
 0001:00010a30       _strncpy                   00411a30 f   libucrt:strncpy.obj
 0001:00010b54       __chvalidchk_l             00411b54 f i libucrt:_ctype.obj
 0001:00010b7e       __ischartype_l             00411b7e f i libucrt:_ctype.obj
 0001:00010bb1       __isdigit_l                00411bb1 f i libucrt:_ctype.obj
 0001:00010be9       __isspace_l                00411be9 f i libucrt:_ctype.obj
 0001:00010c21       _isdigit                   00411c21 f i libucrt:_ctype.obj
 0001:00010c4e       _isspace                   00411c4e f i libucrt:_ctype.obj
 0001:00010c80       _strncmp                   00411c80 f   libucrt:strncmp.obj
 0001:00010cf8       __strnicmp                 00411cf8 f   libucrt:strnicmp.obj
 0001:00010d64       __strnicmp_l               00411d64 f   libucrt:strnicmp.obj
 0001:00010f82       __tolower_l                00411f82 f   libucrt:tolower_toupper.obj
 0001:00010f9c       _tolower                   00411f9c f   libucrt:tolower_toupper.obj
 0001:00010fcc       _free                      00411fcc f   libucrt:free.obj
 0001:00010fd1       _malloc                    00411fd1 f   libucrt:malloc.obj
 0001:00010fe0       _fmod                      00411fe0 f   libucrt:87fmod.obj
 0001:00010fea       __CIfmod                   00411fea f   libucrt:87fmod.obj
 0001:00011002       __seh_filter_exe           00412002 f   libucrt:exception_filter.obj
 0001:00011175       __query_app_type           00412175 f   libucrt:report_runtime_error.obj
 0001:0001117b       __set_app_type             0041217b f   libucrt:report_runtime_error.obj
 0001:0001118a       ___acrt_has_user_matherr   0041218a f   libucrt:matherr.obj
 0001:000111a3       ___acrt_initialize_user_matherr 004121a3 f   libucrt:matherr.obj
 0001:000111b7       ___acrt_invoke_user_matherr 004121b7 f   libucrt:matherr.obj
 0001:00011200       ___setusermatherr          00412200 f   libucrt:matherr.obj
 0001:000114ae       ___acrt_allocate_buffer_for_argv 004124ae f   libucrt:argv_parsing.obj
 0001:00011503       __configure_narrow_argv    00412503 f   libucrt:argv_parsing.obj
 0001:00011715       ??$uninitialize@A6AXAAPAPA_W@Z@?$dual_state_global@PAPA_W@__crt_state_management@@QAEXA6AXAAPAPA_W@Z@Z 00412715 f i libucrt:environment_initialization.obj
 0001:00011715       ??$uninitialize@A6AXAAPAPAD@Z@?$dual_state_global@PAPAD@__crt_state_management@@QAEXA6AXAAPAPAD@Z@Z 00412715 f i libucrt:environment_initialization.obj
 0001:0001178b       ___dcrt_get_or_create_narrow_environment_nolock 0041278b f   libucrt:environment_initialization.obj
 0001:00011790       ___dcrt_uninitialize_environments_nolock 00412790 f   libucrt:environment_initialization.obj
 0001:000117c7       __get_initial_narrow_environment 004127c7 f   libucrt:environment_initialization.obj
 0001:000117db       __initialize_narrow_environment 004127db f   libucrt:environment_initialization.obj
 0001:000117e0       __initterm                 004127e0 f   libucrt:initterm.obj
 0001:0001183c       __initterm_e               0041283c f   libucrt:initterm.obj
 0001:00011a58       ___acrt_initialize_thread_local_exit_callback 00412a58 f   libucrt:exit.obj
 0001:00011a67       __c_exit                   00412a67 f   libucrt:exit.obj
 0001:00011a76       __cexit                    00412a76 f   libucrt:exit.obj
 0001:00011a85       __exit                     00412a85 f   libucrt:exit.obj
 0001:00011a9b       __register_thread_local_exe_atexit_callback 00412a9b f   libucrt:exit.obj
 0001:00011ad3       _exit                      00412ad3 f   libucrt:exit.obj
 0001:00011ae9       __get_fmode                00412ae9 f   libucrt:setmode.obj
 0001:00011b15       __set_fmode                00412b15 f   libucrt:setmode.obj
 0001:00011b52       __setmode_nolock           00412b52 f   libucrt:setmode.obj
 0001:00011c23       ___acrt_initialize_command_line 00412c23 f   libucrt:argv_data.obj
 0001:00011c3c       ___p___argc                00412c3c f   libucrt:argv_data.obj
 0001:00011c42       ___p___argv                00412c42 f   libucrt:argv_data.obj
 0001:00011c48       ___acrt_set_locale_changed 00412c48 f   libucrt:wsetlocale.obj
 0001:00011c53       ___acrt_uninitialize_locale 00412c53 f   libucrt:wsetlocale.obj
 0001:00011ca5       __configthreadlocale       00412ca5 f   libucrt:wsetlocale.obj
 0001:00011d07       __query_new_mode           00412d07 f   libucrt:new_mode.obj
 0001:00011d0d       __set_new_mode             00412d0d f   libucrt:new_mode.obj
 0001:00011d3c       ___p__commode              00412d3c f   libucrt:ncommode.obj
 0001:00011d42       __errcode                  00412d42 f   libucrt:fpexcept.obj
 0001:00011d76       __except1                  00412d76 f   libucrt:fpexcept.obj
 0001:00011e44       __handle_exc               00412e44 f   libucrt:fpexcept.obj
 0001:00012024       __raise_exc                00413024 f   libucrt:fpexcept.obj
 0001:00012047       __raise_exc_ex             00413047 f   libucrt:fpexcept.obj
 0001:00012338       __set_errno_from_matherr   00413338 f   libucrt:fpexcept.obj
 0001:00012367       __umatherr                 00413367 f   libucrt:fpexcept.obj
 0001:00012409       ??$?RV<lambda_800076c951b434888f4765a74a194fcc>@@AAV<lambda_4e60a939b0d047cfe11ddc22648dfba9>@@V<lambda_6dbb1268764f43b569ce7b67e331d33a>@@@?$__crt_seh_guarded_call@H@@QAEH$$QAV<lambda_800076c951b434888f4765a74a194fcc>@@AAV<lambda_4e60a939b0d047cfe11ddc22648dfba9>@@$$QAV<lambda_6dbb1268764f43b569ce7b67e331d33a>@@@Z 00413409 f i libucrt:onexit.obj
 0001:0001245a       ??$?RV<lambda_995298e7d72eb4c2aab26c0585b3abe5>@@AAV<lambda_275893d493268fdec8709772e3fcec0e>@@V<lambda_293819299cbf9a7022e18b56a874bb5c>@@@?$__crt_seh_guarded_call@H@@QAEH$$QAV<lambda_995298e7d72eb4c2aab26c0585b3abe5>@@AAV<lambda_275893d493268fdec8709772e3fcec0e>@@$$QAV<lambda_293819299cbf9a7022e18b56a874bb5c>@@@Z 0041345a f i libucrt:onexit.obj
 0001:000124ab       ??$__acrt_lock_and_call@V<lambda_275893d493268fdec8709772e3fcec0e>@@@@YAHW4__acrt_lock_id@@$$QAV<lambda_275893d493268fdec8709772e3fcec0e>@@@Z 004134ab f i libucrt:onexit.obj
 0001:000124d3       ??$__acrt_lock_and_call@V<lambda_4e60a939b0d047cfe11ddc22648dfba9>@@@@YAHW4__acrt_lock_id@@$$QAV<lambda_4e60a939b0d047cfe11ddc22648dfba9>@@@Z 004134d3 f i libucrt:onexit.obj
 0001:000124fb       ??$__crt_fast_encode_pointer@P6AHXZ@@YAP6AHXZQ6AHXZ@Z 004134fb f i libucrt:onexit.obj
 0001:000124fb       ??$__crt_fast_encode_pointer@P6GXPAXK0@Z@@YAP6GXPAXK0@ZQ6GX0K0@Z@Z 004134fb f i libucrt:exit.obj
 0001:000124fb       ??$__crt_fast_encode_pointer@P6AHPAU_exception@@@Z@@YAP6AHPAU_exception@@@ZQ6AH0@Z@Z 004134fb f i libucrt:matherr.obj
 0001:0001277b       __crt_atexit               0041377b f   libucrt:onexit.obj
 0001:00012791       __execute_onexit_table     00413791 f   libucrt:onexit.obj
 0001:000127ae       __initialize_onexit_table  004137ae f   libucrt:onexit.obj
 0001:000127eb       __register_onexit_function 004137eb f   libucrt:onexit.obj
 0001:00012843       __should_initialize_environment 00413843 f   LIBCMT:env_mode.obj
 0001:00012843       ___acrt_uninitialize_command_line 00413843 f   libucrt:argv_data.obj
 0001:00012903       ___acrt_initialize         00413903 f   libucrt:initialization.obj
 0001:00012915       ___acrt_uninitialize       00413915 f   libucrt:initialization.obj
 0001:00012927       __controlfp_s              00413927 f   libucrt:contrlfp.obj
 0001:00012986       _terminate                 00413986 f   libucrt:terminate.obj
 0001:000129c2       __free_base                004139c2 f   libucrt:free_base.obj
 0001:000129fc       __malloc_base              004139fc f   libucrt:malloc_base.obj
 0001:00012a4a       _strcpy_s                  00413a4a f   libucrt:strcpy_s.obj
 0001:00012aa4       _abort                     00413aa4 f   libucrt:abort.obj
 0001:00012ae7       __calloc_base              00413ae7 f   libucrt:calloc_base.obj
 0001:00012b44       ??$is_overflow_condition@K@__crt_strtox@@YA_NIK@Z 00413b44 f i libucrt:atox.obj
 0001:00012b77       ??$parse_integer@KV?$c_string_character_source@D@__crt_strtox@@@__crt_strtox@@YAKQAU__crt_locale_pointers@@V?$c_string_character_source@D@0@H_N@Z 00413b77 f i libucrt:atox.obj
 0001:00012d9f       ?unget@?$c_string_character_source@D@__crt_strtox@@QAEXD@Z 00413d9f f i libucrt:atox.obj
 0001:00012dc7       ?validate@?$string_output_adapter@D@__crt_stdio_output@@QBE_NXZ 00413dc7 f i libucrt:output.obj
 0001:00012dc7       ?validate@?$c_string_character_source@D@__crt_strtox@@QBE_NXZ 00413dc7 f i libucrt:atox.obj
 0001:00012de2       ?initialize@?$dual_state_global@PAPAD@__crt_state_management@@QAEXQAPAD@Z 00413de2 f i libucrt:environment_initialization.obj
 0001:00012de2       ?initialize@?$dual_state_global@P6AXPB_W00II@Z@__crt_state_management@@QAEXQ6AXPB_W00II@Z@Z 00413de2 f i libucrt:invalid_parameter.obj
 0001:00012de2       ?initialize@?$dual_state_global@P6AXH@Z@__crt_state_management@@QAEXQ6AXH@Z@Z 00413de2 f i libucrt:signal.obj
 0001:00012de2       ?initialize@?$dual_state_global@PAU__crt_locale_data@@@__crt_state_management@@QAEXQAU__crt_locale_data@@@Z 00413de2 f i libucrt:initialization.obj
 0001:00012de2       ?initialize@?$dual_state_global@P6AHI@Z@__crt_state_management@@QAEXQ6AHI@Z@Z 00413de2 f i libucrt:new_handler.obj
 0001:00012de2       ?initialize@?$dual_state_global@P6AHPAU_exception@@@Z@__crt_state_management@@QAEXQ6AHPAU_exception@@@Z@Z 00413de2 f i libucrt:matherr.obj
 0001:00012e13       ___acrt_call_reportfault   00413e13 f   libucrt:invalid_parameter.obj
 0001:00012f4e       ___acrt_initialize_invalid_parameter_handler 00413f4e f   libucrt:invalid_parameter.obj
 0001:00012f62       __invalid_parameter        00413f62 f   libucrt:invalid_parameter.obj
 0001:00012fdd       __invalid_parameter_noinfo 00413fdd f   libucrt:invalid_parameter.obj
 0001:00012fed       __invoke_watson            00413fed f   libucrt:invalid_parameter.obj
 0001:00013020       ___acrt_errno_from_os_error 00414020 f   libucrt:errno.obj
 0001:00013063       ___acrt_errno_map_os_error 00414063 f   libucrt:errno.obj
 0001:00013086       ___doserrno                00414086 f   libucrt:errno.obj
 0001:00013099       __errno                    00414099 f   libucrt:errno.obj
 0001:000130ac       ??$make_c_string_character_source@DPAPAD@__crt_strtox@@YA?AV?$c_string_character_source@D@0@QBDQAPAD@Z 004140ac f i libucrt:strtox.obj
 0001:000130c7       _strtol                    004140c7 f   libucrt:strtox.obj
 0001:000130f3       __mbtowc_l                 004140f3 f   libucrt:mbtowc.obj
 0001:000131ed       _mbtowc                    004141ed f   libucrt:mbtowc.obj
 0001:00013207       __wctomb_s_l               00414207 f   libucrt:wctomb.obj
 0001:00013328       _wctomb_s                  00414328 f   libucrt:wctomb.obj
 0001:00013345       _strnlen                   00414345 f   libucrt:strnlen.obj
 0001:0001346c       _wcsnlen                   0041446c f   libucrt:strnlen.obj
 0001:00013623       ??$?RV<lambda_3518db117f0e7cdb002338c5d3c47b6c>@@AAV<lambda_b2ea41f6bbb362cd97d94c6828d90b61>@@V<lambda_abdedf541bb04549bc734292b4a045d4>@@@?$__crt_seh_guarded_call@X@@QAEX$$QAV<lambda_3518db117f0e7cdb002338c5d3c47b6c>@@AAV<lambda_b2ea41f6bbb362cd97d94c6828d90b61>@@$$QAV<lambda_abdedf541bb04549bc734292b4a045d4>@@@Z 00414623 f i libucrt:per_thread_data.obj
 0001:00013673       ??$?RV<lambda_51b6e8b1eb166f2a3faf91f424b38130>@@AAV<lambda_6250bd4b2a391816dd638c3bf72b0bcb>@@V<lambda_0b5a4a3e68152e1d9b943535f5f47bed>@@@?$__crt_seh_guarded_call@X@@QAEX$$QAV<lambda_51b6e8b1eb166f2a3faf91f424b38130>@@AAV<lambda_6250bd4b2a391816dd638c3bf72b0bcb>@@$$QAV<lambda_0b5a4a3e68152e1d9b943535f5f47bed>@@@Z 00414673 f i libucrt:per_thread_data.obj
 0001:000136d4       ??$?RV<lambda_5b71d36f03204c0beab531769a5b5694>@@AAV<lambda_be2b3da3f62db62e9dad5dc70221a656>@@V<lambda_8f9ce462984622f9bf76b59e2aaaf805>@@@?$__crt_seh_guarded_call@X@@QAEX$$QAV<lambda_5b71d36f03204c0beab531769a5b5694>@@AAV<lambda_be2b3da3f62db62e9dad5dc70221a656>@@$$QAV<lambda_8f9ce462984622f9bf76b59e2aaaf805>@@@Z 004146d4 f i libucrt:per_thread_data.obj
 0001:0001371f       ??$?RV<lambda_9df27f884b057bc3edfc946cb5b7cf47>@@AAV<lambda_e69574bed617af4e071282c136b37893>@@V<lambda_cc0d902bcbbeb830f749456577db4721>@@@?$__crt_seh_guarded_call@X@@QAEX$$QAV<lambda_9df27f884b057bc3edfc946cb5b7cf47>@@AAV<lambda_e69574bed617af4e071282c136b37893>@@$$QAV<lambda_cc0d902bcbbeb830f749456577db4721>@@@Z 0041471f f i libucrt:per_thread_data.obj
 0001:00013767       ??$__acrt_lock_and_call@V<lambda_6250bd4b2a391816dd638c3bf72b0bcb>@@@@YAXW4__acrt_lock_id@@$$QAV<lambda_6250bd4b2a391816dd638c3bf72b0bcb>@@@Z 00414767 f i libucrt:per_thread_data.obj
 0001:0001378f       ??$__acrt_lock_and_call@V<lambda_b2ea41f6bbb362cd97d94c6828d90b61>@@@@YAXW4__acrt_lock_id@@$$QAV<lambda_b2ea41f6bbb362cd97d94c6828d90b61>@@@Z 0041478f f i libucrt:per_thread_data.obj
 0001:000137b7       ??$__acrt_lock_and_call@V<lambda_be2b3da3f62db62e9dad5dc70221a656>@@@@YAXW4__acrt_lock_id@@$$QAV<lambda_be2b3da3f62db62e9dad5dc70221a656>@@@Z 004147b7 f i libucrt:per_thread_data.obj
 0001:000137df       ??$__acrt_lock_and_call@V<lambda_e69574bed617af4e071282c136b37893>@@@@YAXW4__acrt_lock_id@@$$QAV<lambda_e69574bed617af4e071282c136b37893>@@@Z 004147df f i libucrt:per_thread_data.obj
 0001:00013995       ___acrt_getptd             00414995 f   libucrt:per_thread_data.obj
 0001:00013a19       ___acrt_getptd_noexit      00414a19 f   libucrt:per_thread_data.obj
 0001:00013a9e       ___acrt_initialize_ptd     00414a9e f   libucrt:per_thread_data.obj
 0001:00013aca       ___acrt_uninitialize_ptd   00414aca f   libucrt:per_thread_data.obj
 0001:00013ae4       ___acrt_update_locale_info 00414ae4 f   libucrt:locale_update.obj
 0001:00013b11       ___acrt_update_multibyte_info 00414b11 f   libucrt:locale_update.obj
 0001:00013b3e       ?__acrt_fp_classify@@YA?AW4__acrt_fp_class@@ABN@Z 00414b3e f i libucrt:cvt.obj
 0001:00013baa       ?__acrt_fp_is_negative@@YA_NABN@Z 00414baa f i libucrt:cvt.obj
 0001:00014409       ___acrt_fp_format          00415409 f   libucrt:cvt.obj
 0001:00014553       __fileno                   00415553 f   libucrt:fileno.obj
 0001:00014579       __fputc_nolock             00415579 f   libucrt:fputc.obj
 0001:000145a2       __get_printf_count_output  004155a2 f   libucrt:printf_count_output.obj
 0001:000145b7       ___acrt_stdio_begin_temporary_buffering_nolock 004155b7 f   libucrt:_sftbuf.obj
 0001:0001466c       ___acrt_stdio_end_temporary_buffering_nolock 0041566c f   libucrt:_sftbuf.obj
 0001:00014811       ___acrt_initialize_lowio   00415811 f   libucrt:ioinit.obj
 0001:00014867       ___acrt_uninitialize_lowio 00415867 f   libucrt:ioinit.obj
 0001:000149c4       ___acrt_AreFileApisANSI@0  004159c4 f   libucrt:winapi_thunks.obj
 0001:00014a12       ___acrt_CompareStringEx@36 00415a12 f   libucrt:winapi_thunks.obj
 0001:00014a86       ___acrt_FlsAlloc@4         00415a86 f   libucrt:winapi_thunks.obj
 0001:00014adc       ___acrt_FlsFree@4          00415adc f   libucrt:winapi_thunks.obj
 0001:00014b32       ___acrt_FlsGetValue@4      00415b32 f   libucrt:winapi_thunks.obj
 0001:00014b88       ___acrt_FlsSetValue@8      00415b88 f   libucrt:winapi_thunks.obj
 0001:00014be1       ___acrt_InitializeCriticalSectionEx@12 00415be1 f   libucrt:winapi_thunks.obj
 0001:00014c43       ___acrt_LCMapStringEx@36   00415c43 f   libucrt:winapi_thunks.obj
 0001:00014ccb       ___acrt_LocaleNameToLCID@8 00415ccb f   libucrt:winapi_thunks.obj
 0001:00014d27       ___acrt_initialize_winapi_thunks 00415d27 f   libucrt:winapi_thunks.obj
 0001:00014d4d       ___acrt_is_packaged_app    00415d4d f   libucrt:winapi_thunks.obj
 0001:00014dd4       ___acrt_uninitialize_winapi_thunks 00415dd4 f   libucrt:winapi_thunks.obj
 0001:00014e0a       __fcloseall                00415e0a f   libucrt:closeall.obj
 0001:00014eaa       ___acrt_stdio_flush_nolock 00415eaa f   libucrt:fflush.obj
 0001:00014f10       __fflush_nolock            00415f10 f   libucrt:fflush.obj
 0001:00014f57       __flushall                 00415f57 f   libucrt:fflush.obj
 0001:00015038       ___acrt_stdio_free_buffer_nolock 00416038 f   libucrt:_freebuf.obj
 0001:00015076       __fgetc_nolock             00416076 f   libucrt:fgetc.obj
 0001:000150b2       __getc_nolock              004160b2 f   libucrt:fgetc.obj
 0001:000150bd       __fclose_nolock            004160bd f   libucrt:fclose.obj
 0001:00015133       _fclose                    00416133 f   libucrt:fclose.obj
 0001:000151b3       ??$__acrt_stdio_parse_mode@D@@YA?AU__acrt_stdio_stream_mode@@QBD@Z 004161b3 f i libucrt:openfile.obj
 0001:0001546a       ?__acrt_stdio_parse_mode_D@@YA_NAAU__acrt_stdio_stream_mode@@@Z 0041646a f i libucrt:openfile.obj
 0001:00015485       ?__acrt_stdio_parse_mode_T@@YA_NAAU__acrt_stdio_stream_mode@@@Z 00416485 f i libucrt:openfile.obj
 0001:000154a4       ?__acrt_stdio_parse_mode_b@@YA_NAAU__acrt_stdio_stream_mode@@@Z 004164a4 f i libucrt:openfile.obj
 0001:000154c4       ?__acrt_stdio_parse_mode_c@@YA_NAAU__acrt_stdio_stream_mode@@AA_N@Z 004164c4 f i libucrt:openfile.obj
 0001:000154e6       ?__acrt_stdio_parse_mode_n@@YA_NAAU__acrt_stdio_stream_mode@@AA_N@Z 004164e6 f i libucrt:openfile.obj
 0001:00015508       ?__acrt_stdio_parse_mode_plus@@YA_NAAU__acrt_stdio_stream_mode@@AA_N@Z 00416508 f i libucrt:openfile.obj
 0001:0001553d       ?__acrt_stdio_parse_mode_t@@YA_NAAU__acrt_stdio_stream_mode@@@Z 0041653d f i libucrt:openfile.obj
 0001:0001555d       __openfile                 0041655d f   libucrt:openfile.obj
 0001:00015568       __fwrite_nolock            00416568 f   libucrt:fwrite.obj
 0001:000156e1       ___pctype_func             004166e1 f   libucrt:ctype.obj
 0001:00015707       __isctype_l                00416707 f   libucrt:isctype.obj
 0001:000157e0       ___ascii_strnicmp          004167e0 f   libucrt:_strnicm.obj
 0001:00015841       __isleadbyte_l             00416841 f i libucrt:_wctype.obj
 0001:00015a97       ___acrt_LCMapStringA       00416a97 f   libucrt:lcmapstringa.obj
 0001:00015ae2       __freea_crt                00416ae2 f i libucrt:lcmapstringa.obj
 0001:00015b10       __cintrindisp2             00416b10 f   libucrt:87cdisp.obj
 0001:00015b54       __cintrindisp1             00416b54 f   libucrt:87cdisp.obj
 0001:00015b97       __ctrandisp2               00416b97 f   libucrt:87cdisp.obj
 0001:00015d26       __ctrandisp1               00416d26 f   libucrt:87cdisp.obj
 0001:00015d59       __fload                    00416d59 f   libucrt:87cdisp.obj
 0001:00015da0       __trandisp1                00416da0 f   libucrt:87disp.obj
 0001:00015e07       __trandisp2                00416e07 f   libucrt:87disp.obj
 0001:00015e93       __rttospopde               00416e93     libucrt:87disp.obj
 0001:00015e98       __rttospop                 00416e98     libucrt:87disp.obj
 0001:00015e9a       __rtnospop                 00416e9a     libucrt:87disp.obj
 0001:00015e9c       __rttosnpop                00416e9c     libucrt:87disp.obj
 0001:00015e9d       __rtnospopde               00416e9d     libucrt:87disp.obj
 0001:00015ea4       __rtzeropop                00416ea4     libucrt:87disp.obj
 0001:00015ea6       __rtzeronpop               00416ea6     libucrt:87disp.obj
 0001:00015eab       __rtzerospop               00416eab     libucrt:87disp.obj
 0001:00015eb8       __rtonepop                 00416eb8     libucrt:87disp.obj
 0001:00015eba       __rtonenpop                00416eba     libucrt:87disp.obj
 0001:00015ebf       __tosnan1                  00416ebf     libucrt:87disp.obj
 0001:00015eea       __nosnan2                  00416eea     libucrt:87disp.obj
 0001:00015eec       __tosnan2                  00416eec     libucrt:87disp.obj
 0001:00015f14       __nan2                     00416f14     libucrt:87disp.obj
 0001:00015f53       __rtindfpop                00416f53     libucrt:87disp.obj
 0001:00015f55       __rtindfnpop               00416f55     libucrt:87disp.obj
 0001:00015f66       __rttosnpopde              00416f66     libucrt:87disp.obj
 0001:00015f70       __rtatan2inf               00416f70     libucrt:87disp.obj
 0001:00015f8d       __rtchsifneg               00416f8d     libucrt:87disp.obj
 0001:00016356       ??1?$argument_list@D@?A0xb0e4b824@@QAE@XZ 00417356 f i libucrt:argv_wildcards.obj
 0001:0001637b       ?append@?$argument_list@D@?A0xb0e4b824@@QAEHQAD@Z 0041737b f i libucrt:argv_wildcards.obj
 0001:000163b0       ?expand_if_necessary@?$argument_list@D@?A0xb0e4b824@@AAEHXZ 004173b0 f i libucrt:argv_wildcards.obj
 0001:00016437       ___acrt_expand_narrow_argv_wildcards 00417437 f   libucrt:argv_wildcards.obj
 0001:00016442       ??$?RV<lambda_978dc153c237d78434369da87b74ff60>@@AAV<lambda_ad1ced32f4ac17aa236e5ef05d6b3b7c>@@V<lambda_4a8533e2866a575feecb8298ce776b0d>@@@?$__crt_seh_guarded_call@X@@QAEX$$QAV<lambda_978dc153c237d78434369da87b74ff60>@@AAV<lambda_ad1ced32f4ac17aa236e5ef05d6b3b7c>@@$$QAV<lambda_4a8533e2866a575feecb8298ce776b0d>@@@Z 00417442 f i libucrt:mbctype.obj
 0001:00016485       ??$__acrt_lock_and_call@V<lambda_ad1ced32f4ac17aa236e5ef05d6b3b7c>@@@@YAXW4__acrt_lock_id@@$$QAV<lambda_ad1ced32f4ac17aa236e5ef05d6b3b7c>@@@Z 00417485 f i libucrt:mbctype.obj
 0001:0001691c       ___acrt_initialize_multibyte 0041791c f   libucrt:mbctype.obj
 0001:0001693a       ___acrt_update_thread_multibyte_data 0041793a f   libucrt:mbctype.obj
 0001:000169dc       __setmbcp_nolock           004179dc f   libucrt:mbctype.obj
 0001:00016c26       __ismbblead                00417c26 f   libucrt:ismbbyte.obj
 0001:00016c75       ___dcrt_get_narrow_environment_from_os 00417c75 f   libucrt:get_environment_from_os.obj
 0001:00017038       ___dcrt_set_variable_in_narrow_environment_nolock 00418038 f   libucrt:setenv.obj
 0001:00017043       ___acrt_initialize_locks   00418043 f   libucrt:locks.obj
 0001:00017084       ___acrt_lock               00418084 f   libucrt:locks.obj
 0001:0001709b       ___acrt_uninitialize_locks 0041809b f   libucrt:locks.obj
 0001:000170cc       ___acrt_unlock             004180cc f   libucrt:locks.obj
 0001:000170e3       ___acrt_lowio_create_handle_array 004180e3 f   libucrt:osfinfo.obj
 0001:0001715d       ___acrt_lowio_destroy_handle_array 0041815d f   libucrt:osfinfo.obj
 0001:00017192       ___acrt_lowio_ensure_fh_exists 00418192 f   libucrt:osfinfo.obj
 0001:0001722a       ___acrt_lowio_lock_fh      0041822a f   libucrt:osfinfo.obj
 0001:0001724d       ___acrt_lowio_set_os_handle 0041824d f   libucrt:osfinfo.obj
 0001:000172e1       ___acrt_lowio_unlock_fh    004182e1 f   libucrt:osfinfo.obj
 0001:00017304       __alloc_osfhnd             00418304 f   libucrt:osfinfo.obj
 0001:00017416       __free_osfhnd              00418416 f   libucrt:osfinfo.obj
 0001:000174a7       __get_osfhandle            004184a7 f   libucrt:osfinfo.obj
 0001:00017511       ___acrt_locale_free_monetary 00418511 f   libucrt:initmon.obj
 0001:0001760f       ___acrt_locale_free_numeric 0041860f f   libucrt:initnum.obj
 0001:000176b4       ___acrt_locale_free_time   004186b4 f   libucrt:inittime.obj
 0001:00017798       ___acrt_GetStringTypeA     00418798 f   libucrt:getstringtypea.obj
 0001:000178b5       ___acrt_add_locale_ref     004188b5 f   libucrt:locale_refcounting.obj
 0001:00017932       ___acrt_free_locale        00418932 f   libucrt:locale_refcounting.obj
 0001:00017a7c       ___acrt_locale_add_lc_time_reference 00418a7c f   libucrt:locale_refcounting.obj
 0001:00017aa5       ___acrt_locale_free_lc_time_if_unreferenced 00418aa5 f   libucrt:locale_refcounting.obj
 0001:00017ad5       ___acrt_locale_release_lc_time_reference 00418ad5 f   libucrt:locale_refcounting.obj
 0001:00017afe       ___acrt_release_locale_ref 00418afe f   libucrt:locale_refcounting.obj
 0001:00017b7f       ___acrt_update_thread_locale_data 00418b7f f   libucrt:locale_refcounting.obj
 0001:00017bf6       __updatetlocinfoEx_nolock  00418bf6 f   libucrt:locale_refcounting.obj
 0001:00017c46       __decomp                   00418c46 f   libucrt:util.obj
 0001:00017d1a       __set_exp                  00418d1a f   libucrt:util.obj
 0001:00017d49       __sptype                   00418d49 f   libucrt:util.obj
 0001:00017da7       ___set_fpsr_sse2           00418da7 f   libucrt:fpctrl.obj
 0001:00017e1d       __clrfp                    00418e1d f   libucrt:fpctrl.obj
 0001:00017e30       __ctrlfp                   00418e30 f   libucrt:fpctrl.obj
 0001:00017e5c       __set_statfp               00418e5c f   libucrt:fpctrl.obj
 0001:00017eb7       __statfp                   00418eb7 f   libucrt:fpctrl.obj
 0001:00017ec9       __recalloc                 00418ec9 f   libucrt:recalloc.obj
 0001:00017ed4       __recalloc_base            00418ed4 f   libucrt:recalloc.obj
 0001:00017f41       ___acrt_initialize_heap    00418f41 f   libucrt:heap_handle.obj
 0001:00017f52       ___acrt_uninitialize_heap  00418f52 f   libucrt:heap_handle.obj
 0001:00017f5c       ___acrt_execute_initializers 00418f5c f   libucrt:shared_initialization.obj
 0001:00017fdf       ___acrt_execute_uninitializers 00418fdf f   libucrt:shared_initialization.obj
 0001:0001802c       ___acrt_initialize_new_handler 0041902c f   libucrt:new_handler.obj
 0001:00018040       __callnewh                 00419040 f   libucrt:new_handler.obj
 0001:00018084       __query_new_handler        00419084 f   libucrt:new_handler.obj
 0001:000180d6       ??$?RV<lambda_a048d3beccc847880fc8490e18b82769>@@AAV<lambda_ec61778202f4f5fc7e7711acc23c3bca>@@V<lambda_f7496a158712204296dd6628a163878e>@@@?$__crt_seh_guarded_call@P6AXH@Z@@QAEP6AXH@Z$$QAV<lambda_a048d3beccc847880fc8490e18b82769>@@AAV<lambda_ec61778202f4f5fc7e7711acc23c3bca>@@$$QAV<lambda_f7496a158712204296dd6628a163878e>@@@Z 004190d6 f i libucrt:signal.obj
 0001:00018130       ??$__acrt_lock_and_call@V<lambda_ec61778202f4f5fc7e7711acc23c3bca>@@@@YAP6AXH@ZW4__acrt_lock_id@@$$QAV<lambda_ec61778202f4f5fc7e7711acc23c3bca>@@@Z 00419130 f i libucrt:signal.obj
 0001:000181c2       ___acrt_get_sigabrt_handler 004191c2 f   libucrt:signal.obj
 0001:000181d9       ___acrt_initialize_signal_handlers 004191d9 f   libucrt:signal.obj
 0001:00018214       ___fpecode                 00419214 f   libucrt:signal.obj
 0001:0001821d       _raise                     0041921d f   libucrt:signal.obj
 0001:000184d0       __clearfp                  004194d0 f   libucrt:ieee87.obj
 0001:000185ae       __control87                004195ae f   libucrt:ieee87.obj
 0001:00018949       ___acrt_fp_strflt_to_string 00419949 f   libucrt:_fptostr.obj
 0001:00018a05       ??0scoped_fp_state_reset@?A0x48fbfdd4@@QAE@XZ 00419a05 f i libucrt:cfout.obj
 0001:00018a30       ?divide@__crt_strtox@@YA_KAAUbig_integer@1@ABU21@@Z 00419a30 f i libucrt:cfout.obj
 0001:00018ede       ___acrt_fltout             00419ede f   libucrt:cfout.obj
 0001:0001a4d8       ___acrt_stdio_flush_and_write_narrow_nolock 0041b4d8 f   libucrt:_flsbuf.obj
 0001:0001a4e3       __isatty                   0041b4e3 f   libucrt:isatty.obj
 0001:0001a5f5       ___acrt_DownlevelLocaleNameToLCID 0041b5f5 f   libucrt:lcidtoname_downlevel.obj
 0001:0001a621       ??$?RV<lambda_61cee617f5178ae960314fd4d05640a0>@@AAV<lambda_6978c1fb23f02e42e1d9e99668cc68aa>@@V<lambda_9cd88cf8ad10232537feb2133f08c833>@@@?$__crt_seh_guarded_call@H@@QAEH$$QAV<lambda_61cee617f5178ae960314fd4d05640a0>@@AAV<lambda_6978c1fb23f02e42e1d9e99668cc68aa>@@$$QAV<lambda_9cd88cf8ad10232537feb2133f08c833>@@@Z 0041b621 f i libucrt:commit.obj
 0001:0001a6b9       ??$__acrt_lowio_lock_fh_and_call@V<lambda_6978c1fb23f02e42e1d9e99668cc68aa>@@@@YAHH$$QAV<lambda_6978c1fb23f02e42e1d9e99668cc68aa>@@@Z 0041b6b9 f i libucrt:commit.obj
 0001:0001a6e1       __commit                   0041b6e1 f   libucrt:commit.obj
 0001:0001ace0       __write                    0041bce0 f   libucrt:write.obj
 0001:0001adcb       __write_nolock             0041bdcb f   libucrt:write.obj
 0001:0001b158       ___acrt_stdio_refill_and_read_narrow_nolock 0041c158 f   libucrt:_filbuf.obj
 0001:0001b163       ??$?RV<lambda_123407a5e2ac06da108355a851863b7a>@@AAV<lambda_2fe9b910cf3cbf4a0ab98a02ba45b3ec>@@V<lambda_ae55bdf541ad94d75914d381c370e64d>@@@?$__crt_seh_guarded_call@H@@QAEH$$QAV<lambda_123407a5e2ac06da108355a851863b7a>@@AAV<lambda_2fe9b910cf3cbf4a0ab98a02ba45b3ec>@@$$QAV<lambda_ae55bdf541ad94d75914d381c370e64d>@@@Z 0041c163 f i libucrt:close.obj
 0001:0001b1e5       ??$__acrt_lowio_lock_fh_and_call@V<lambda_2fe9b910cf3cbf4a0ab98a02ba45b3ec>@@@@YAHH$$QAV<lambda_2fe9b910cf3cbf4a0ab98a02ba45b3ec>@@@Z 0041c1e5 f i libucrt:close.obj
 0001:0001b20d       __close                    0041c20d f   libucrt:close.obj
 0001:0001b28c       __close_nolock             0041c28c f   libucrt:close.obj
 0001:0001b328       ?__acrt_stdio_free_stream@@YAXV__crt_stdio_stream@@@Z 0041c328 f   libucrt:stream.obj
 0001:0001b93d       __sopen_nolock             0041c93d f   libucrt:open.obj
 0001:0001b98e       __sopen_s                  0041c98e f   libucrt:open.obj
 0001:0001b9ae       __wsopen_nolock            0041c9ae f   libucrt:open.obj
 0001:0001bcd7       ___strncnt                 0041ccd7 f   libucrt:strncnt.obj
 0001:0001bcf3       __87except                 0041ccf3 f   libucrt:87except.obj
 0001:0001bee0       _qsort                     0041cee0 f   libucrt:qsort.obj
 0001:0001c32b       _strncpy_s                 0041d32b f   libucrt:strncpy_s.obj
 0001:0001c340       _strpbrk                   0041d340 f   libucrt:strpbrk.obj
 0001:0001c380       __mbsdec                   0041d380 f   libucrt:mbsdec.obj
 0001:0001c397       __mbsdec_l                 0041d397 f   libucrt:mbsdec.obj
 0001:0001c433       __strnicoll                0041d433 f   libucrt:strnicol.obj
 0001:0001c45c       __strnicoll_l              0041d45c f   libucrt:strnicol.obj
 0001:0001c526       __msize                    0041d526 f   libucrt:msize.obj
 0001:0001c559       __realloc_base             0041d559 f   libucrt:realloc_base.obj
 0001:0001c5c2       _fegetenv                  0041d5c2 f   libucrt:fegetenv.obj
 0001:0001c5df       _fesetenv                  0041d5df f   libucrt:fesetenv.obj
 0001:0001c628       _feholdexcept              0041d628 f   libucrt:feholdexcept.obj
 0001:0001c680       _log10                     0041d680 f   libucrt:log10.obj
 0001:0001c6c0       __CIlog10                  0041d6c0 f   libucrt:log10.obj
 0001:0001c6fb       __CIlog10_default          0041d6fb f   libucrt:log10.obj
 0001:0001c70f       __log10_default            0041d70f     libucrt:log10.obj
 0001:0001c7d0       _ceil                      0041d7d0 f   libucrt:ceil_pentium4.obj
 0001:0001c810       __ceil_pentium4            0041d810 f   libucrt:ceil_pentium4.obj
 0001:0001ca70       __lseeki64                 0041da70 f   libucrt:lseek.obj
 0001:0001ca8b       __lseeki64_nolock          0041da8b f   libucrt:lseek.obj
 0001:0001caa6       ___acrt_stdio_allocate_buffer_nolock 0041daa6 f   libucrt:_getbuf.obj
 0001:0001cb03       __putwch_nolock            0041db03 f   libucrt:putwch.obj
 0001:0001d030       __read                     0041e030 f   libucrt:read.obj
 0001:0001d143       __read_nolock              0041e143 f   libucrt:read.obj
 0001:0001d4f8       ___acrt_copy_path_to_wide_string 0041e4f8 f   libucrt:string_utilities.obj
 0001:0001d5bf       __chsize_nolock            0041e5bf f   libucrt:chsize.obj
 0001:0001d9f8       ___acrt_CompareStringA     0041e9f8 f   libucrt:comparestringa.obj
 0001:0001dce3       __getfpcontrolword         0041ece3 f   libucrt:_fenvutils.obj
 0001:0001dd26       __getfpstatusword          0041ed26 f   libucrt:_fenvutils.obj
 0001:0001ddce       __setfpcontrolword         0041edce f   libucrt:_fenvutils.obj
 0001:0001de4e       __setfpstatusword          0041ee4e f   libucrt:_fenvutils.obj
 0001:0001dece       ___acrt_initialize_sse2    0041eece f   libucrt:mathfcns.obj
 0001:0001dee0       __CIlog10_pentium4         0041eee0 f   libucrt:log10_pentium4.obj
 0001:0001def8       __log10_pentium4           0041eef8     libucrt:log10_pentium4.obj
 0001:0001e181       __fFEXP                    0041f181     libucrt:87tran.obj
 0001:0001e1d8       __rtinfpopse               0041f1d8     libucrt:87tran.obj
 0001:0001e1da       __rtinfnpopse              0041f1da     libucrt:87tran.obj
 0001:0001e1ea       __fFLN                     0041f1ea     libucrt:87tran.obj
 0001:0001e29f       __rtinfpop                 0041f29f     libucrt:87tran.obj
 0001:0001e2a1       __rtinfnpop                0041f2a1     libucrt:87tran.obj
 0001:0001e2be       __ffexpm1                  0041f2be     libucrt:87tran.obj
 0001:0001e370       __twoToTOS                 0041f370 f   libucrt:common.obj
 0001:0001e385       __load_CW                  0041f385 f   libucrt:common.obj
 0001:0001e39c       __convertTOStoQNaN         0041f39c f   libucrt:common.obj
 0001:0001e3b5       __fload_withFB             0041f3b5 f   libucrt:common.obj
 0001:0001e3f8       __checkTOS_withFB          0041f3f8 f   libucrt:common.obj
 0001:0001e40e       __fast_exit                0041f40e f   libucrt:common.obj
 0001:0001e41b       __math_exit                0041f41b f   libucrt:common.obj
 0001:0001e445       __check_overflow_exit      0041f445 f   libucrt:common.obj
 0001:0001e459       __check_range_exit         0041f459 f   libucrt:common.obj
 0001:0001e500       __startTwoArgErrorHandling 0041f500 f   libucrt:genexcep.obj
 0001:0001e517       __startOneArgErrorHandling 0041f517 f   libucrt:genexcep.obj
 0001:0001e553       ___libm_error_support      0041f553 f   libucrt:libm_error.obj
 0001:0001e76b       __ceil_default             0041f76b f   libucrt:ceil.obj
 0001:0001e824       ___dcrt_lowio_initialize_console_output 0041f824 f   libucrt:initcon.obj
 0001:0001e843       ___dcrt_terminate_console_output 0041f843 f   libucrt:initcon.obj
 0001:0001e85a       __d_inttype                0041f85a f   libucrt:powhlp.obj
 0001:0001e8c4       __powhlp                   0041f8c4 f   libucrt:powhlp.obj
 0001:0001e9ef       __frnd                     0041f9ef f   libucrt:frnd.obj
 0001:0001ea05       __fpclass                  0041fa05 f   libucrt:ieeemisc.obj
 0001:0001eab0       __FindPESection            0041fab0 f   LIBCMT:pesect.obj
 0001:0001eb00       __IsNonwritableInCurrentImage 0041fb00 f   LIBCMT:pesect.obj
 0001:0001ebc0       __ValidateImageBase        0041fbc0 f   LIBCMT:pesect.obj
 0001:0001ec00       __aulldvrm                 0041fc00 f   LIBCMT:ulldvrm.obj
 0001:0001eca0       __SEH_prolog4_GS           0041fca0 f   LIBCMT:_sehprolg4gs_.obj
 0001:0001ece9       __SEH_epilog4_GS           0041fce9 f   LIBCMT:_sehprolg4gs_.obj
 0001:0001ed00       __alldvrm                  0041fd00 f   LIBCMT:lldvrm.obj
 0001:0001ede0       __aullshr                  0041fde0 f   LIBCMT:ullshr.obj
 0001:0001ee00       __alloca_probe_16          0041fe00 f   LIBCMT:alloca16.obj
 0001:0001ee16       __alloca_probe_8           0041fe16     LIBCMT:alloca16.obj
 0001:0001ee30       __allshl                   0041fe30 f   LIBCMT:llshl.obj
 0001:0001ee50       __ftol2_sse                0041fe50 f   LIBCMT:_ftol2_.obj
 0001:0001ee59       __ftol2_pentium4           0041fe59 f   LIBCMT:_ftol2_.obj
 0001:0001ee6c       __ftol2_sse_excpt          0041fe6c f   LIBCMT:_ftol2_.obj
 0001:0001ee90       __ftol2                    0041fe90 f   LIBCMT:_ftol2_.obj
 0001:0001ef10       __chkstk                   0041ff10 f   LIBCMT:chkstk.obj
 0001:0001ef10       __alloca_probe             0041ff10 f   LIBCMT:chkstk.obj
 0001:0001ef3e       _RtlUnwind@16              0041ff3e f   kernel32:KERNEL32.dll
 0001:0001ef50       _strrchr                   0041ff50 f   libvcruntime:strrchr.obj
 0002:00000000       __imp__FreeLibrary@4       00421000     kernel32:KERNEL32.dll
 0002:00000004       __imp__SetEndOfFile@4      00421004     kernel32:KERNEL32.dll
 0002:00000008       __imp__ReadConsoleW@20     00421008     kernel32:KERNEL32.dll
 0002:0000000c       __imp__ReadFile@20         0042100c     kernel32:KERNEL32.dll
 0002:00000010       __imp__WriteConsoleW@20    00421010     kernel32:KERNEL32.dll
 0002:00000014       __imp__SetFilePointerEx@20 00421014     kernel32:KERNEL32.dll
 0002:00000018       __imp__HeapReAlloc@16      00421018     kernel32:KERNEL32.dll
 0002:0000001c       __imp__HeapSize@12         0042101c     kernel32:KERNEL32.dll
 0002:00000020       __imp__CreateFileW@28      00421020     kernel32:KERNEL32.dll
 0002:00000024       __imp__GetConsoleMode@8    00421024     kernel32:KERNEL32.dll
 0002:00000028       __imp__GetConsoleCP@0      00421028     kernel32:KERNEL32.dll
 0002:0000002c       __imp__FlushFileBuffers@4  0042102c     kernel32:KERNEL32.dll
 0002:00000030       __imp__GetProcessHeap@0    00421030     kernel32:KERNEL32.dll
 0002:00000034       __imp__GetStringTypeW@16   00421034     kernel32:KERNEL32.dll
 0002:00000038       __imp__SetStdHandle@8      00421038     kernel32:KERNEL32.dll
 0002:0000003c       __imp__SetEnvironmentVariableA@8 0042103c     kernel32:KERNEL32.dll
 0002:00000040       __imp__FreeEnvironmentStringsW@4 00421040     kernel32:KERNEL32.dll
 0002:00000044       __imp__GetEnvironmentStringsW@0 00421044     kernel32:KERNEL32.dll
 0002:00000048       __imp__GetCPInfo@8         00421048     kernel32:KERNEL32.dll
 0002:0000004c       __imp__GetOEMCP@0          0042104c     kernel32:KERNEL32.dll
 0002:00000050       __imp__IsValidCodePage@4   00421050     kernel32:KERNEL32.dll
 0002:00000054       __imp__FindNextFileA@8     00421054     kernel32:KERNEL32.dll
 0002:00000058       __imp__FindFirstFileExA@24 00421058     kernel32:KERNEL32.dll
 0002:0000005c       __imp__FindClose@4         0042105c     kernel32:KERNEL32.dll
 0002:00000060       __imp__GetStdHandle@4      00421060     kernel32:KERNEL32.dll
 0002:00000064       __imp__CloseHandle@4       00421064     kernel32:KERNEL32.dll
 0002:00000068       __imp__GetLastError@0      00421068     kernel32:KERNEL32.dll
 0002:0000006c       __imp__InitializeCriticalSection@4 0042106c     kernel32:KERNEL32.dll
 0002:00000070       __imp__EnterCriticalSection@4 00421070     kernel32:KERNEL32.dll
 0002:00000074       __imp__LeaveCriticalSection@4 00421074     kernel32:KERNEL32.dll
 0002:00000078       __imp__TryEnterCriticalSection@4 00421078     kernel32:KERNEL32.dll
 0002:0000007c       __imp__DeleteCriticalSection@4 0042107c     kernel32:KERNEL32.dll
 0002:00000080       __imp__ReleaseSemaphore@12 00421080     kernel32:KERNEL32.dll
 0002:00000084       __imp__WaitForSingleObject@8 00421084     kernel32:KERNEL32.dll
 0002:00000088       __imp__Sleep@4             00421088     kernel32:KERNEL32.dll
 0002:0000008c       __imp__GetCurrentProcessId@0 0042108c     kernel32:KERNEL32.dll
 0002:00000090       __imp__CreateThread@24     00421090     kernel32:KERNEL32.dll
 0002:00000094       __imp__GetCurrentThread@0  00421094     kernel32:KERNEL32.dll
 0002:00000098       __imp__GetCurrentThreadId@0 00421098     kernel32:KERNEL32.dll
 0002:0000009c       __imp__TlsAlloc@0          0042109c     kernel32:KERNEL32.dll
 0002:000000a0       __imp__TlsGetValue@4       004210a0     kernel32:KERNEL32.dll
 0002:000000a4       __imp__TlsSetValue@8       004210a4     kernel32:KERNEL32.dll
 0002:000000a8       __imp__TlsFree@4           004210a8     kernel32:KERNEL32.dll
 0002:000000ac       __imp__CreateSemaphoreA@16 004210ac     kernel32:KERNEL32.dll
 0002:000000b0       __imp__SetConsoleTextAttribute@8 004210b0     kernel32:KERNEL32.dll
 0002:000000b4       __imp__QueryPerformanceCounter@4 004210b4     kernel32:KERNEL32.dll
 0002:000000b8       __imp__QueryPerformanceFrequency@4 004210b8     kernel32:KERNEL32.dll
 0002:000000bc       __imp__SetLastError@4      004210bc     kernel32:KERNEL32.dll
 0002:000000c0       __imp__FormatMessageA@28   004210c0     kernel32:KERNEL32.dll
 0002:000000c4       __imp__GetLocalTime@4      004210c4     kernel32:KERNEL32.dll
 0002:000000c8       __imp__FileTimeToSystemTime@8 004210c8     kernel32:KERNEL32.dll
 0002:000000cc       __imp__SystemTimeToFileTime@8 004210cc     kernel32:KERNEL32.dll
 0002:000000d0       __imp__DecodePointer@4     004210d0     kernel32:KERNEL32.dll
 0002:000000d4       __imp__GetProcAddress@8    004210d4     kernel32:KERNEL32.dll
 0002:000000d8       __imp__UnhandledExceptionFilter@4 004210d8     kernel32:KERNEL32.dll
 0002:000000dc       __imp__SetUnhandledExceptionFilter@4 004210dc     kernel32:KERNEL32.dll
 0002:000000e0       __imp__GetCurrentProcess@0 004210e0     kernel32:KERNEL32.dll
 0002:000000e4       __imp__TerminateProcess@8  004210e4     kernel32:KERNEL32.dll
 0002:000000e8       __imp__IsProcessorFeaturePresent@4 004210e8     kernel32:KERNEL32.dll
 0002:000000ec       __imp__GetSystemTimeAsFileTime@4 004210ec     kernel32:KERNEL32.dll
 0002:000000f0       __imp__InitializeSListHead@4 004210f0     kernel32:KERNEL32.dll
 0002:000000f4       __imp__IsDebuggerPresent@0 004210f4     kernel32:KERNEL32.dll
 0002:000000f8       __imp__GetStartupInfoW@4   004210f8     kernel32:KERNEL32.dll
 0002:000000fc       __imp__GetModuleHandleW@4  004210fc     kernel32:KERNEL32.dll
 0002:00000100       __imp__RtlUnwind@16        00421100     kernel32:KERNEL32.dll
 0002:00000104       __imp__InitializeCriticalSectionAndSpinCount@8 00421104     kernel32:KERNEL32.dll
 0002:00000108       __imp__LoadLibraryExW@12   00421108     kernel32:KERNEL32.dll
 0002:0000010c       __imp__WriteFile@20        0042110c     kernel32:KERNEL32.dll
 0002:00000110       __imp__GetModuleFileNameA@12 00421110     kernel32:KERNEL32.dll
 0002:00000114       __imp__MultiByteToWideChar@24 00421114     kernel32:KERNEL32.dll
 0002:00000118       __imp__WideCharToMultiByte@32 00421118     kernel32:KERNEL32.dll
 0002:0000011c       __imp__ExitProcess@4       0042111c     kernel32:KERNEL32.dll
 0002:00000120       __imp__GetModuleHandleExW@12 00421120     kernel32:KERNEL32.dll
 0002:00000124       __imp__GetCommandLineA@0   00421124     kernel32:KERNEL32.dll
 0002:00000128       __imp__GetCommandLineW@0   00421128     kernel32:KERNEL32.dll
 0002:0000012c       __imp__GetACP@0            0042112c     kernel32:KERNEL32.dll
 0002:00000130       __imp__RaiseException@16   00421130     kernel32:KERNEL32.dll
 0002:00000134       __imp__HeapFree@12         00421134     kernel32:KERNEL32.dll
 0002:00000138       __imp__HeapAlloc@12        00421138     kernel32:KERNEL32.dll
 0002:0000013c       __imp__GetFileType@4       0042113c     kernel32:KERNEL32.dll
 0002:00000140       __imp__CompareStringW@24   00421140     kernel32:KERNEL32.dll
 0002:00000144       __imp__LCMapStringW@24     00421144     kernel32:KERNEL32.dll
 0002:00000148       \177KERNEL32_NULL_THUNK_DATA 00421148     kernel32:KERNEL32.dll
 0002:0000014c       __imp__gethostbyname@4     0042114c     ws2_32:WS2_32.dll
 0002:00000150       __imp__select@20           00421150     ws2_32:WS2_32.dll
 0002:00000154       __imp____WSAFDIsSet@8      00421154     ws2_32:WS2_32.dll
 0002:00000158       __imp__WSASocketA@24       00421158     ws2_32:WS2_32.dll
 0002:0000015c       __imp__WSAIoctl@36         0042115c     ws2_32:WS2_32.dll
 0002:00000160       __imp__gethostname@8       00421160     ws2_32:WS2_32.dll
 0002:00000164       __imp__setsockopt@20       00421164     ws2_32:WS2_32.dll
 0002:00000168       __imp__sendto@24           00421168     ws2_32:WS2_32.dll
 0002:0000016c       __imp__send@16             0042116c     ws2_32:WS2_32.dll
 0002:00000170       __imp__recvfrom@24         00421170     ws2_32:WS2_32.dll
 0002:00000174       __imp__recv@16             00421174     ws2_32:WS2_32.dll
 0002:00000178       __imp__ntohs@4             00421178     ws2_32:WS2_32.dll
 0002:0000017c       __imp__ntohl@4             0042117c     ws2_32:WS2_32.dll
 0002:00000180       __imp__listen@8            00421180     ws2_32:WS2_32.dll
 0002:00000184       __imp__inet_addr@4         00421184     ws2_32:WS2_32.dll
 0002:00000188       __imp__htons@4             00421188     ws2_32:WS2_32.dll
 0002:0000018c       __imp__getsockopt@20       0042118c     ws2_32:WS2_32.dll
 0002:00000190       __imp__getsockname@12      00421190     ws2_32:WS2_32.dll
 0002:00000194       __imp__closesocket@4       00421194     ws2_32:WS2_32.dll
 0002:00000198       __imp__bind@12             00421198     ws2_32:WS2_32.dll
 0002:0000019c       __imp__accept@12           0042119c     ws2_32:WS2_32.dll
 0002:000001a0       __imp__ioctlsocket@12      004211a0     ws2_32:WS2_32.dll
 0002:000001a4       __imp__WSAGetLastError@0   004211a4     ws2_32:WS2_32.dll
 0002:000001a8       __imp__WSACleanup@0        004211a8     ws2_32:WS2_32.dll
 0002:000001ac       __imp__WSAStartup@8        004211ac     ws2_32:WS2_32.dll
 0002:000001b0       \177WS2_32_NULL_THUNK_DATA 004211b0     ws2_32:WS2_32.dll
 0002:000001b4       __imp__CoCreateGuid@4      004211b4     ole32:ole32.dll
 0002:000001b8       \177ole32_NULL_THUNK_DATA  004211b8     ole32:ole32.dll
 0002:000001bc       ___guard_check_icall_fptr  004211bc     LIBCMT:guard_support.obj
 0002:000001c0       ___xc_a                    004211c0     LIBCMT:initializers.obj
 0002:000001c8       ___xc_z                    004211c8     LIBCMT:initializers.obj
 0002:000001cc       ___xi_a                    004211cc     LIBCMT:initializers.obj
 0002:000001d8       ___acrt_stdio_initializer  004211d8     libucrt:stdio_initializer.obj
 0002:000001dc       ___acrt_multibyte_initializer 004211dc     libucrt:multibyte_initializer.obj
 0002:000001e0       ___acrt_tran_sse2_initializer 004211e0     libucrt:sse2_initializer.obj
 0002:000001e4       ___xi_z                    004211e4     LIBCMT:initializers.obj
 0002:000001e8       ___xp_a                    004211e8     LIBCMT:initializers.obj
 0002:000001ec       ___acrt_locale_terminator  004211ec     libucrt:locale_initializer.obj
 0002:000001f0       ___dcrt_console_output_terminator 004211f0     libucrt:console_output_initializer.obj
 0002:000001f4       ___acrt_stdio_terminator   004211f4     libucrt:stdio_initializer.obj
 0002:000001f8       ___xp_z                    004211f8     LIBCMT:initializers.obj
 0002:000001fc       ___xt_a                    004211fc     LIBCMT:initializers.obj
 0002:00000200       ___xt_z                    00421200     LIBCMT:initializers.obj
 0002:000003f0       ??_C@_0DI@FPKNFLPC@Unable?5to?5resolve?5STUN?5server?5?$CIP@ 004213f0     pjlib-util-i386-win32-vc8-release-static:errno.obj
 0002:00000428       ??_C@_0DG@MLIAHJMC@Unknown?5STUN?5message?5type?5?$CIPJLIB@ 00421428     pjlib-util-i386-win32-vc8-release-static:errno.obj
 0002:00000460       ??_C@_0DH@BGLGMNML@Invalid?5STUN?5message?5length?5?$CIPJL@ 00421460     pjlib-util-i386-win32-vc8-release-static:errno.obj
 0002:00000498       ??_C@_0DI@MNKBLDCO@STUN?5attribute?5length?5error?5?$CIPJL@ 00421498     pjlib-util-i386-win32-vc8-release-static:errno.obj
 0002:000004d0       ??_C@_0DJ@GEFJCPHI@Invalid?5STUN?5attribute?5type?5?$CIPJL@ 004214d0     pjlib-util-i386-win32-vc8-release-static:errno.obj
 0002:0000050c       ??_C@_0DL@JFEBBJAB@Invalid?5STUN?5server?1socket?5index@ 0042150c     pjlib-util-i386-win32-vc8-release-static:errno.obj
 0002:00000548       ??_C@_0EE@OMBAKMPD@No?5STUN?5binding?5response?5in?5the?5@ 00421548     pjlib-util-i386-win32-vc8-release-static:errno.obj
 0002:0000058c       ??_C@_0DM@JJJKHKHH@Received?5STUN?5error?5attribute?5?$CIP@ 0042158c     pjlib-util-i386-win32-vc8-release-static:errno.obj
 0002:000005c8       ??_C@_0DJ@BDPKKDEL@No?5STUN?5mapped?5address?5attribute@ 004215c8     pjlib-util-i386-win32-vc8-release-static:errno.obj
 0002:00000608       ??_C@_0ED@MIOBPJDH@Received?5no?5response?5from?5STUN?5s@ 00421608     pjlib-util-i386-win32-vc8-release-static:errno.obj
 0002:0000064c       ??_C@_0DK@OILEGGA@Symetric?5NAT?5detected?5by?5STUN?5?$CIP@ 0042164c     pjlib-util-i386-win32-vc8-release-static:errno.obj
 0002:00000688       ??_C@_0CI@OKGDIDF@Invalid?5XML?5message?5?$CIPJLIB_UTIL_@ 00421688     pjlib-util-i386-win32-vc8-release-static:errno.obj
 0002:000006b0       ??_C@_0CL@IPLFEOJE@Invalid?5JSON?5document?5?$CIPJLIB_UTI@ 004216b0     pjlib-util-i386-win32-vc8-release-static:errno.obj
 0002:000006e0       ??_C@_0EC@KJLJANIE@DNS?5query?5packet?5buffer?5is?5too?5s@ 004216e0     pjlib-util-i386-win32-vc8-release-static:errno.obj
 0002:00000724       ??_C@_0DC@JFKHADAC@Invalid?5DNS?5packet?5length?5?$CIPJLIB@ 00421724     pjlib-util-i386-win32-vc8-release-static:errno.obj
 0002:00000758       ??_C@_0CL@OCFDFFNM@Invalid?5DNS?5class?5?$CIPJLIB_UTIL_ED@ 00421758     pjlib-util-i386-win32-vc8-release-static:errno.obj
 0002:00000784       ??_C@_0DE@FIPILDGP@Invalid?5DNS?5name?5pointer?5?$CIPJLIB_@ 00421784     pjlib-util-i386-win32-vc8-release-static:errno.obj
 0002:000007b8       ??_C@_0DJ@NBOGGJL@Invalid?5DNS?5nameserver?5address?5?$CI@ 004217b8     pjlib-util-i386-win32-vc8-release-static:errno.obj
 0002:000007f4       ??_C@_0DH@LFJGDOHB@No?5nameserver?5is?5in?5DNS?5resolver@ 004217f4     pjlib-util-i386-win32-vc8-release-static:errno.obj
 0002:0000082c       ??_C@_0DH@PHJBLCKD@No?5working?5DNS?5nameserver?5?$CIPJLIB@ 0042182c     pjlib-util-i386-win32-vc8-release-static:errno.obj
 0002:00000868       ??_C@_0EC@HJFBNLFC@No?5answer?5record?5in?5the?5DNS?5resp@ 00421868     pjlib-util-i386-win32-vc8-release-static:errno.obj
 0002:000008ac       ??_C@_0CN@DEFBDJKF@Invalid?5DNS?5answer?5?$CIPJLIB_UTIL_E@ 004218ac     pjlib-util-i386-win32-vc8-release-static:errno.obj
 0002:000008dc       ??_C@_0CN@BCAAPMPM@DNS?5?$CCFormat?5error?$CC?5?$CIPJLIB_UTIL_E@ 004218dc     pjlib-util-i386-win32-vc8-release-static:errno.obj
 0002:0000090c       ??_C@_0DA@NBPIIAHM@DNS?5?$CCServer?5failure?$CC?5?$CIPJLIB_UTIL@ 0042190c     pjlib-util-i386-win32-vc8-release-static:errno.obj
 0002:0000093c       ??_C@_0CM@CNNJNBCA@DNS?5?$CCName?5Error?$CC?5?$CIPJLIB_UTIL_EDN@ 0042193c     pjlib-util-i386-win32-vc8-release-static:errno.obj
 0002:00000968       ??_C@_0DA@DIMDKHPM@DNS?5?$CCNot?5Implemented?$CC?5?$CIPJLIB_UTI@ 00421968     pjlib-util-i386-win32-vc8-release-static:errno.obj
 0002:00000998       ??_C@_0CI@LDMKLLKJ@DNS?5?$CCRefused?$CC?5?$CIPJLIB_UTIL_EDNS_R@ 00421998     pjlib-util-i386-win32-vc8-release-static:errno.obj
 0002:000009c0       ??_C@_0DB@PFAMNHPJ@DNS?5?$CCThe?5name?5exists?$CC?5?$CIPJLIB_UTI@ 004219c0     pjlib-util-i386-win32-vc8-release-static:errno.obj
 0002:000009f4       ??_C@_0DO@OIIHMCI@DNS?5?$CCThe?5RRset?5?$CIname?0?5type?$CJ?5exis@ 004219f4     pjlib-util-i386-win32-vc8-release-static:errno.obj
 0002:00000a38       ??_C@_0EG@OMHMBNML@DNS?5?$CCThe?5RRset?5?$CIname?0?5type?$CJ?5does@ 00421a38     pjlib-util-i386-win32-vc8-release-static:errno.obj
 0002:00000a80       ??_C@_0CP@HJODAHHO@DNS?5?$CCNot?5authorized?$CC?5?$CIPJLIB_UTIL@ 00421a80     pjlib-util-i386-win32-vc8-release-static:errno.obj
 0002:00000ab0       ??_C@_0EB@GKEHOPAE@DNS?5?$CCThe?5zone?5specified?5is?5not?5a@ 00421ab0     pjlib-util-i386-win32-vc8-release-static:errno.obj
 0002:00000af4       ??_C@_0DH@EMGNELGL@Too?5many?5STUN?5attributes?5?$CIPJLIB_@ 00421af4     pjlib-util-i386-win32-vc8-release-static:errno.obj
 0002:00000b2c       ??_C@_0DF@KMIPDCMM@Unknown?5STUN?5attribute?5?$CIPJLIB_UT@ 00421b2c     pjlib-util-i386-win32-vc8-release-static:errno.obj
 0002:00000b64       ??_C@_0DP@PDBNFLFH@Invalid?5STUN?5socket?5address?5leng@ 00421b64     pjlib-util-i386-win32-vc8-release-static:errno.obj
 0002:00000ba8       ??_C@_0EA@NAKPKGDE@STUN?5IPv6?5attribute?5not?5supporte@ 00421ba8     pjlib-util-i386-win32-vc8-release-static:errno.obj
 0002:00000be8       ??_C@_0DO@LEKPMIHP@Expecting?5STUN?5response?5message?5@ 00421be8     pjlib-util-i386-win32-vc8-release-static:errno.obj
 0002:00000c28       ??_C@_0DJ@DDEJFFIL@STUN?5transaction?5ID?5mismatch?5?$CIPJ@ 00421c28     pjlib-util-i386-win32-vc8-release-static:errno.obj
 0002:00000c68       ??_C@_0EI@BNLBFIKH@Unable?5to?5find?5STUN?5handler?5for?5@ 00421c68     pjlib-util-i386-win32-vc8-release-static:errno.obj
 0002:00000cb0       ??_C@_0FA@DIAPLEFD@Found?5non?9FINGERPRINT?5attr?4?5afte@ 00421cb0     pjlib-util-i386-win32-vc8-release-static:errno.obj
 0002:00000d00       ??_C@_0ED@CNMDGMPD@Found?5STUN?5attribute?5after?5FINGE@ 00421d00     pjlib-util-i386-win32-vc8-release-static:errno.obj
 0002:00000d44       ??_C@_0DN@JLMAJAKN@Missing?5STUN?5USERNAME?5attribute?5@ 00421d44     pjlib-util-i386-win32-vc8-release-static:errno.obj
 0002:00000d88       ??_C@_0EK@LMHKLKC@Missing?1invalid?5STUN?5MESSAGE?9INT@ 00421d88     pjlib-util-i386-win32-vc8-release-static:errno.obj
 0002:00000dd4       ??_C@_0DJ@BCFNCGF@Found?5duplicate?5STUN?5attribute?5?$CI@ 00421dd4     pjlib-util-i386-win32-vc8-release-static:errno.obj
 0002:00000e10       ??_C@_0DH@MMHMOPBG@Missing?5STUN?5REALM?5attribute?5?$CIPJ@ 00421e10     pjlib-util-i386-win32-vc8-release-static:errno.obj
 0002:00000e48       ??_C@_0EB@FGOGNHPO@Missing?1stale?5STUN?5NONCE?5attribu@ 00421e48     pjlib-util-i386-win32-vc8-release-static:errno.obj
 0002:00000e90       ??_C@_0EF@HAPLEMIK@STUN?5transaction?5terminates?5with@ 00421e90     pjlib-util-i386-win32-vc8-release-static:errno.obj
 0002:00000ed8       ??_C@_0CL@GOOAEBLJ@Invalid?5URL?5format?5?$CIPJLIB_UTIL_E@ 00421ed8     pjlib-util-i386-win32-vc8-release-static:errno.obj
 0002:00000f04       ??_C@_0DB@BDFJPAOA@Invalid?5URL?5port?5number?5?$CIPJLIB_U@ 00421f04     pjlib-util-i386-win32-vc8-release-static:errno.obj
 0002:00000f38       ??_C@_0DN@CABCKELB@Incomplete?5response?5header?5recei@ 00421f38     pjlib-util-i386-win32-vc8-release-static:errno.obj
 0002:00000f78       ??_C@_0CN@MKMAKFDH@Insufficient?5buffer?5?$CIPJLIB_UTIL_@ 00421f78     pjlib-util-i386-win32-vc8-release-static:errno.obj
 0002:00000fa8       ??_C@_0CH@JNBFBBKA@Connection?5lost?5?$CIPJLIB_UTIL_EHTT@ 00421fa8     pjlib-util-i386-win32-vc8-release-static:errno.obj
 0002:00000fd0       ??_C@_0CE@DHMMOEGP@Exit?5current?5session?5?$CIPJ_CLI_EEX@ 00421fd0     pjlib-util-i386-win32-vc8-release-static:errno.obj
 0002:00000ff4       ??_C@_0CG@LEDMCEME@Missing?5argument?5?$CIPJ_CLI_EMISSIN@ 00421ff4     pjlib-util-i386-win32-vc8-release-static:errno.obj
 0002:0000101c       ??_C@_0CJ@ECODGDHL@Too?5many?5arguments?5?$CIPJ_CLI_ETOOM@ 0042201c     pjlib-util-i386-win32-vc8-release-static:errno.obj
 0002:00001048       ??_C@_0CC@NLPGOLED@Invalid?5argument?5?$CIPJ_CLI_EINVARG@ 00422048     pjlib-util-i386-win32-vc8-release-static:errno.obj
 0002:0000106c       ??_C@_0CO@OOEOBCH@Command?5name?5already?5exists?5?$CIPJ_@ 0042206c     pjlib-util-i386-win32-vc8-release-static:errno.obj
 0002:0000109c       ??_C@_0CK@MKOACJP@Command?5id?5already?5exists?5?$CIPJ_CL@ 0042209c     pjlib-util-i386-win32-vc8-release-static:errno.obj
 0002:000010c8       ??_C@_0CE@LHHCBFML@Invalid?5XML?5format?5?$CIPJ_CLI_EBADX@ 004220c8     pjlib-util-i386-win32-vc8-release-static:errno.obj
 0002:000010ec       ??_C@_0CF@CKMLJLLP@Connection?5lost?5?$CIPJ_CLI_ETELNETL@ 004220ec     pjlib-util-i386-win32-vc8-release-static:errno.obj
 0002:00001114       ??_C@_0BM@LDLEGOFO@Unknown?5pjlib?9util?5error?5?$CFd?$AA@ 00422114     pjlib-util-i386-win32-vc8-release-static:errno.obj
 0002:00001140       ??_C@_02LFBAKKMC@SC?$AA@   00422140     pjlib-util-i386-win32-vc8-release-static:cli.obj
 0002:00001144       ??_C@_04OJAHODMC@Text?$AA@ 00422144     pjlib-util-i386-win32-vc8-release-static:cli.obj
 0002:0000114c       ??_C@_03DBLNGNIM@Int?$AA@  0042214c     pjlib-util-i386-win32-vc8-release-static:cli.obj
 0002:00001150       ??_C@_06PMIAHANM@Choice?$AA@ 00422150     pjlib-util-i386-win32-vc8-release-static:cli.obj
 0002:00001158       ??_C@_06DDDNEJEA@choice?$AA@ 00422158     pjlib-util-i386-win32-vc8-release-static:cli.obj
 0002:0000115f       ??_C@_00CNPNBAHC@?$AA@     0042215f     pjlib-util-i386-win32-vc8-release-static:cli.obj
 0002:00001160       ??_C@_0IA@IHKENAFH@?$DMCMD?5name?$DN?8log?8?5id?$DN?830000?8?5sc?$DN?8?8@ 00422160     pjlib-util-i386-win32-vc8-release-static:cli.obj
 0002:000011e0       ??_C@_0DN@JBMPIMOA@?$DMCMD?5name?$DN?8exit?8?5id?$DN?830001?8?5sc?$DN?8@ 004221e0     pjlib-util-i386-win32-vc8-release-static:cli.obj
 0002:00001220       ??_C@_03CNKJKKE@cli?$AA@   00422220     pjlib-util-i386-win32-vc8-release-static:cli.obj
 0002:00001224       ??_C@_0BK@DBPPABLN@Failed?5to?5add?5command?5?$CD?$CFd?$AA@ 00422224     pjlib-util-i386-win32-vc8-release-static:cli.obj
 0002:00001240       ??_C@_05KGLCFCOD@cli?4c?$AA@ 00422240     pjlib-util-i386-win32-vc8-release-static:cli.obj
 0002:00001248       ??_C@_02DPKJAMEF@?$CFd?$AA@ 00422248     pjlib-util-i386-win32-vc8-release-static:cli.obj
 0002:0000124c       ??_C@_05MFEJDJP@value?$AA@ 0042224c     pjlib-util-i386-win32-vc8-release-static:cli.obj
 0002:00001254       ??_C@_04EBPADADD@desc?$AA@ 00422254     pjlib-util-i386-win32-vc8-release-static:cli.obj
 0002:0000125c       ??_C@_04MEMAJGDJ@name?$AA@ 0042225c     pjlib-util-i386-win32-vc8-release-static:cli.obj
 0002:00001264       ??_C@_02EGCJHIOB@id?$AA@   00422264     pjlib-util-i386-win32-vc8-release-static:cli.obj
 0002:00001268       ??_C@_04GPMDFGEJ@type?$AA@ 00422268     pjlib-util-i386-win32-vc8-release-static:cli.obj
 0002:00001270       ??_C@_04CIMGMMMG@text?$AA@ 00422270     pjlib-util-i386-win32-vc8-release-static:cli.obj
 0002:00001278       ??_C@_03JBIPMCLC@int?$AA@  00422278     pjlib-util-i386-win32-vc8-release-static:cli.obj
 0002:0000127c       ??_C@_08EBGGHLAO@optional?$AA@ 0042227c     pjlib-util-i386-win32-vc8-release-static:cli.obj
 0002:00001288       ??_C@_01HIHLOKLC@1?$AA@    00422288     pjlib-util-i386-win32-vc8-release-static:cli.obj
 0002:0000128c       ??_C@_08EBLJJHKN@validate?$AA@ 0042228c     pjlib-util-i386-win32-vc8-release-static:cli.obj
 0002:00001298       ??_C@_03LLENEDKC@CMD?$AA@  00422298     pjlib-util-i386-win32-vc8-release-static:cli.obj
 0002:0000129c       ??_C@_02BINJMIIA@sc?$AA@   0042229c     pjlib-util-i386-win32-vc8-release-static:cli.obj
 0002:000012a0       ??_C@_03CNBDDMKH@ARG?$AA@  004222a0     pjlib-util-i386-win32-vc8-release-static:cli.obj
 0002:000012a4       ??_C@_03PJHHNEEI@xml?$AA@  004222a4     pjlib-util-i386-win32-vc8-release-static:cli.obj
 0002:000012a8       ??_C@_0BL@IDNCPFLH@Error?3?5unable?5to?5parse?5XML?$AA@ 004222a8     pjlib-util-i386-win32-vc8-release-static:cli.obj
 0002:000012c4       ??_C@_03ECAGCCFB@?8?$CC?$HN?$AA@ 004222c4     pjlib-util-i386-win32-vc8-release-static:cli.obj
 0002:000012c8       ??_C@_03BEFMIFNH@?8?$CC?$HL?$AA@ 004222c8     pjlib-util-i386-win32-vc8-release-static:cli.obj
 0002:000012cc       ??_C@_04HHCDBDLF@?5?7?$AN?6?$AA@ 004222cc     pjlib-util-i386-win32-vc8-release-static:cli.obj
 0002:000012f4       ??_C@_0BN@IPGOFGHC@?$CFError?5?3?5Invalid?5Arguments?$AN?6?$AA@ 004222f4     pjlib-util-i386-win32-vc8-release-static:cli_console.obj
 0002:00001314       ??_C@_0BO@HKLDDDMM@?$CFError?5?3?5Too?5Many?5Arguments?$AN?6?$AA@ 00422314     pjlib-util-i386-win32-vc8-release-static:cli_console.obj
 0002:00001334       ??_C@_04EBNJJJJI@?$CF?4?$CKs?$AA@ 00422334     pjlib-util-i386-win32-vc8-release-static:cli_console.obj
 0002:0000133c       ??_C@_0L@FPHIBBAG@console_fe?$AA@ 0042233c     pjlib-util-i386-win32-vc8-release-static:cli_console.obj
 0002:00001348       ??_C@_04IMEJGNKP@?$DO?$DO?$DO?5?$AA@ 00422348     pjlib-util-i386-win32-vc8-release-static:cli_console.obj
 0002:00001350       ??_C@_02DKCKIIND@?$CFs?$AA@ 00422350     pjlib-util-i386-win32-vc8-release-static:cli_console.obj
 0002:00001354       ??_C@_02PCIJFNDE@?$AN?6?$AA@ 00422354     pjlib-util-i386-win32-vc8-release-static:cli_console.obj
 0002:00001358       ??_C@_01CLKCMJKC@?5?$AA@   00422358     pjlib-util-i386-win32-vc8-release-static:cli_console.obj
 0002:0000135c       ??_C@_01JKBOJNNK@?$FO?$AA@ 0042235c     pjlib-util-i386-win32-vc8-release-static:cli_console.obj
 0002:00001360       ??_C@_02KNHHEEKP@?5?5?$AA@ 00422360     pjlib-util-i386-win32-vc8-release-static:cli_console.obj
 0002:00001364       ??_C@_04DDJEOHF@?$AN?6?5?5?$AA@ 00422364     pjlib-util-i386-win32-vc8-release-static:cli_console.obj
 0002:0000136c       ??_C@_01OHGJGJJP@?$FL?$AA@ 0042236c     pjlib-util-i386-win32-vc8-release-static:cli_console.obj
 0002:00001370       ??_C@_01LBDDMOBJ@?$FN?$AA@ 00422370     pjlib-util-i386-win32-vc8-release-static:cli_console.obj
 0002:00001374       ??_C@_01MNNFJEPP@?$DM?$AA@ 00422374     pjlib-util-i386-win32-vc8-release-static:cli_console.obj
 0002:00001378       ??_C@_01PPODPGHN@?$DO?$AA@ 00422378     pjlib-util-i386-win32-vc8-release-static:cli_console.obj
 0002:0000137c       ??_C@_03LGOGDKEL@?5?$HM?5?$AA@ 0042237c     pjlib-util-i386-win32-vc8-release-static:cli_console.obj
 0002:00001380       ??_C@_0M@LAOLDMLM@handle_hint?$AA@ 00422380     pjlib-util-i386-win32-vc8-release-static:cli_console.obj
 0002:0000138c       ??_C@_0M@KJAIKDIA@handle_exec?$AA@ 0042238c     pjlib-util-i386-win32-vc8-release-static:cli_console.obj
 0002:00001398       ??_C@_01KDCPPGHE@r?$AA@    00422398     pjlib-util-i386-win32-vc8-release-static:cli_console.obj
 0002:0000139c       ??_C@_06GDENEHCP@CONIN$?$AA@ 0042239c     pjlib-util-i386-win32-vc8-release-static:cli_console.obj
 0002:000013a4       ??_C@_0DE@KMLJCNEF@Cannot?5switch?5back?5to?5console?5fr@ 004223a4     pjlib-util-i386-win32-vc8-release-static:cli_console.obj
 0002:000013d8       ??_C@_0CP@LCNJNDBP@Switched?5back?5to?5console?5from?5fi@ 004223d8     pjlib-util-i386-win32-vc8-release-static:cli_console.obj
 0002:00001438       ??_C@_0L@NEKFNNMM@handle_tab?$AA@ 00422438     pjlib-util-i386-win32-vc8-release-static:cli_telnet.obj
 0002:00001444       ??_C@_0O@ONJEDMHC@handle_return?$AA@ 00422444     pjlib-util-i386-win32-vc8-release-static:cli_telnet.obj
 0002:00001454       ??_C@_0BH@IIJPKDOG@?$DM?4?4data?5truncated?4?4?$DO?$AN?6?$AA@ 00422454     pjlib-util-i386-win32-vc8-release-static:cli_telnet.obj
 0002:0000146c       ??_C@_0BD@EDGHECDN@Error?5On?5data?5send?$AA@ 0042246c     pjlib-util-i386-win32-vc8-release-static:cli_telnet.obj
 0002:00001480       ??_C@_0N@IPEMLDNJ@cli_telnet?4c?$AA@ 00422480     pjlib-util-i386-win32-vc8-release-static:cli_telnet.obj
 0002:00001490       ??_C@_0BG@IIMMODFM@Error?5on?5data?5read?5?$CFd?$AA@ 00422490     pjlib-util-i386-win32-vc8-release-static:cli_telnet.obj
 0002:000014a8       ??_C@_0BI@FGEAGNLA@Error?5on?5data?5accept?5?$CFd?$AA@ 004224a8     pjlib-util-i386-win32-vc8-release-static:cli_telnet.obj
 0002:000014c0       ??_C@_0M@EAEEIGHO@telnet_sess?$AA@ 004224c0     pjlib-util-i386-win32-vc8-release-static:cli_telnet.obj
 0002:000014cc       ??_C@_0DB@GMPCGDOL@Not?5enough?5memory?5to?5create?5a?5ne@ 004224cc     pjlib-util-i386-win32-vc8-release-static:cli_telnet.obj
 0002:00001500       ??_C@_0BC@FFNCOBNJ@mutex_telnet_sess?$AA@ 00422500     pjlib-util-i386-win32-vc8-release-static:cli_telnet.obj
 0002:00001514       ??_C@_0BP@BOMGCGBH@Failure?5creating?5active?5socket?$AA@ 00422514     pjlib-util-i386-win32-vc8-release-static:cli_telnet.obj
 0002:00001534       ??_C@_0BO@LBKLDPHF@Failure?5reading?5active?5socket?$AA@ 00422534     pjlib-util-i386-win32-vc8-release-static:cli_telnet.obj
 0002:00001554       ??_C@_09DKDLBLKO@telnet_fe?$AA@ 00422554     pjlib-util-i386-win32-vc8-release-static:cli_telnet.obj
 0002:00001560       ??_C@_0BA@BJMFBIIP@mutex_telnet_fe?$AA@ 00422560     pjlib-util-i386-win32-vc8-release-static:cli_telnet.obj
 0002:00001570       ??_C@_0BO@LNGEGFKJ@Failed?5setting?5socket?5options?$AA@ 00422570     pjlib-util-i386-win32-vc8-release-static:cli_telnet.obj
 0002:00001590       ??_C@_0CE@IGNJOCDM@Address?5is?5still?5in?5use?0?5retryin@ 00422590     pjlib-util-i386-win32-vc8-release-static:cli_telnet.obj
 0002:000015b4       ??_C@_02LLMPMKNF@?$DO?5?$AA@ 004225b4     pjlib-util-i386-win32-vc8-release-static:cli_telnet.obj
 0002:000015b8       ??_C@_0BK@FMGILPIG@Failed?5binding?5the?5socket?$AA@ 004225b8     pjlib-util-i386-win32-vc8-release-static:cli_telnet.obj
 0002:000015d4       ??_C@_0BB@LOAHFKNN@worker_telnet_fe?$AA@ 004225d4     pjlib-util-i386-win32-vc8-release-static:cli_telnet.obj
 0002:000015e8       ??_C@_0BB@MEBBOAAM@Telnet?5Restarted?$AA@ 004225e8     pjlib-util-i386-win32-vc8-release-static:cli_telnet.obj
 0002:000015fc       ??_C@_0BM@HBCIEFJJ@?4?4?2src?2pjlib?9util?2scanner?4c?$AA@ 004225fc     pjlib-util-i386-win32-vc8-release-static:scanner.obj
 0002:00001618       ??_C@_0BI@LDPGPFDH@?4?4?2src?2pjlib?9util?2xml?4c?$AA@ 00422618     pjlib-util-i386-win32-vc8-release-static:xml.obj
 0002:00001630       ??_C@_02KBFACPPK@?$DM?$CB?$AA@ 00422630     pjlib-util-i386-win32-vc8-release-static:xml.obj
 0002:00001634       ??_C@_06MKPKJMEK@?5?1?$DO?7?$AN?6?$AA@ 00422634     pjlib-util-i386-win32-vc8-release-static:xml.obj
 0002:0000163c       ??_C@_06NLKJJJJJ@?$DN?$DO?5?7?$AN?6?$AA@ 0042263c     pjlib-util-i386-win32-vc8-release-static:xml.obj
 0002:00001644       ??_C@_02OBLCAGAG@?$CC?8?$AA@ 00422644     pjlib-util-i386-win32-vc8-release-static:xml.obj
 0002:00001648       ??_C@_03DAJNKPCP@?5?7?$DO?$AA@ 00422648     pjlib-util-i386-win32-vc8-release-static:xml.obj
 0002:0000164c       ??_C@_0CO@GIBLJIOM@Syntax?5error?5parsing?5XML?5in?5line@ 0042264c     pjlib-util-i386-win32-vc8-release-static:xml.obj
 0002:0000167c       ??_C@_05MFBNHJDJ@xml?4c?$AA@ 0042267c     pjlib-util-i386-win32-vc8-release-static:xml.obj
 0002:00001684       ??_C@_04IFCNACLH@pj?$CFp?$AA@ 00422684     pjlib-i386-win32-vc8-release-static:os_core_win32.obj
 0002:0000168c       ??_C@_0BA@NGJFHJA@PJLIB?1No?5memory?$AA@ 0042268c     pjlib-i386-win32-vc8-release-static:os_core_win32.obj
 0002:0000169c       ??_C@_0BP@NGEKBPIB@pjlib?5?$CFs?5for?5win32?5initialized?$AA@ 0042269c     pjlib-i386-win32-vc8-release-static:os_core_win32.obj
 0002:000016bc       ??_C@_0BA@FNCACAIG@os_core_win32?4c?$AA@ 004226bc     pjlib-i386-win32-vc8-release-static:os_core_win32.obj
 0002:000016cc       ??_C@_0CI@EAKIIBBA@Main?5thread?5stack?5max?5usage?$DN?$CFu?5b@ 004226cc     pjlib-i386-win32-vc8-release-static:os_core_win32.obj
 0002:000016f4       ??_C@_0BK@BHGJHPMG@?4?4?2src?2pj?2os_core_win32?4c?$AA@ 004226f4     pjlib-i386-win32-vc8-release-static:os_core_win32.obj
 0002:00001710       ??_C@_05KHEDLION@thr?$CFp?$AA@ 00422710     pjlib-i386-win32-vc8-release-static:os_core_win32.obj
 0002:00001718       ??_C@_0CD@GPHECFNA@Thread?5stack?5max?5usage?$DN?$CFu?5by?5?$CFs?3@ 00422718     pjlib-i386-win32-vc8-release-static:os_core_win32.obj
 0002:0000173c       ??_C@_05EJDHHBFJ@mtx?$CFp?$AA@ 0042273c     pjlib-i386-win32-vc8-release-static:os_core_win32.obj
 0002:00001744       ??_C@_05EKKMALCN@sem?$CFp?$AA@ 00422744     pjlib-i386-win32-vc8-release-static:os_core_win32.obj
 0002:00001810       ??_C@_0BM@FLPPOGAG@Unknown?5Error?5?$CIPJ_EUNKNOWN?$CJ?$AA@ 00422810     pjlib-i386-win32-vc8-release-static:errno.obj
 0002:0000182c       ??_C@_0CA@DCLOOJGD@Pending?5operation?5?$CIPJ_EPENDING?$CJ?$AA@ 0042282c     pjlib-i386-win32-vc8-release-static:errno.obj
 0002:0000184c       ??_C@_0CO@GABEOAFF@Too?5many?5connecting?5sockets?5?$CIPJ_@ 0042284c     pjlib-i386-win32-vc8-release-static:errno.obj
 0002:0000187c       ??_C@_0CG@CBCJBJGD@Invalid?5value?5or?5argument?5?$CIPJ_EI@ 0042287c     pjlib-i386-win32-vc8-release-static:errno.obj
 0002:000018a4       ??_C@_0CA@GJABNEKD@Name?5too?5long?5?$CIPJ_ENAMETOOLONG?$CJ?$AA@ 004228a4     pjlib-i386-win32-vc8-release-static:errno.obj
 0002:000018c4       ??_C@_0BJ@JNKLPII@Not?5found?5?$CIPJ_ENOTFOUND?$CJ?$AA@ 004228c4     pjlib-i386-win32-vc8-release-static:errno.obj
 0002:000018e0       ??_C@_0BO@GOLCMJKK@Not?5enough?5memory?5?$CIPJ_ENOMEM?$CJ?$AA@ 004228e0     pjlib-i386-win32-vc8-release-static:errno.obj
 0002:00001900       ??_C@_0BI@HHGDCAID@BUG?5DETECTED?$CB?5?$CIPJ_EBUG?$CJ?$AA@ 00422900     pjlib-i386-win32-vc8-release-static:errno.obj
 0002:00001918       ??_C@_0CD@JOGIDHPJ@Operation?5timed?5out?5?$CIPJ_ETIMEDOU@ 00422918     pjlib-i386-win32-vc8-release-static:errno.obj
 0002:0000193c       ??_C@_0DF@MIFNAIHL@Too?5many?5objects?5of?5the?5specifie@ 0042293c     pjlib-i386-win32-vc8-release-static:errno.obj
 0002:00001974       ??_C@_0BK@OMPILOH@Object?5is?5busy?5?$CIPJ_EBUSY?$CJ?$AA@ 00422974     pjlib-i386-win32-vc8-release-static:errno.obj
 0002:00001990       ??_C@_0CP@BAIBJOJE@Option?1operation?5is?5not?5supporte@ 00422990     pjlib-i386-win32-vc8-release-static:errno.obj
 0002:000019c0       ??_C@_0CC@OEEEEEML@Invalid?5operation?5?$CIPJ_EINVALIDOP@ 004229c0     pjlib-i386-win32-vc8-release-static:errno.obj
 0002:000019e4       ??_C@_0CE@KDDMJLGF@Operation?5cancelled?5?$CIPJ_ECANCELL@ 004229e4     pjlib-i386-win32-vc8-release-static:errno.obj
 0002:00001a08       ??_C@_0CD@LODOFNLC@Object?5already?5exists?5?$CIPJ_EEXIST@ 00422a08     pjlib-i386-win32-vc8-release-static:errno.obj
 0002:00001a2c       ??_C@_0BG@GMBDFNLN@End?5of?5file?5?$CIPJ_EEOF?$CJ?$AA@ 00422a2c     pjlib-i386-win32-vc8-release-static:errno.obj
 0002:00001a44       ??_C@_0BN@PCCNBFLN@Size?5is?5too?5big?5?$CIPJ_ETOOBIG?$CJ?$AA@ 00422a44     pjlib-i386-win32-vc8-release-static:errno.obj
 0002:00001a64       ??_C@_0DB@FDCHLEID@gethostbyname?$CI?$CJ?5has?5returned?5err@ 00422a64     pjlib-i386-win32-vc8-release-static:errno.obj
 0002:00001a98       ??_C@_0CB@MGGLJMNO@Size?5is?5too?5short?5?$CIPJ_ETOOSMALL?$CJ@ 00422a98     pjlib-i386-win32-vc8-release-static:errno.obj
 0002:00001abc       ??_C@_0BG@NBDJGAFI@Ignored?5?$CIPJ_EIGNORED?$CJ?$AA@ 00422abc     pjlib-i386-win32-vc8-release-static:errno.obj
 0002:00001ad4       ??_C@_0CH@OGOOBJBE@IPv6?5is?5not?5supported?5?$CIPJ_EIPV6N@ 00422ad4     pjlib-i386-win32-vc8-release-static:errno.obj
 0002:00001afc       ??_C@_0CK@DJAHHNOI@Unsupported?5address?5family?5?$CIPJ_E@ 00422afc     pjlib-i386-win32-vc8-release-static:errno.obj
 0002:00001b28       ??_C@_0CD@PDGCJOJH@Object?5no?5longer?5exists?5?$CIPJ_EGON@ 00422b28     pjlib-i386-win32-vc8-release-static:errno.obj
 0002:00001b4c       ??_C@_0CI@LBHALONI@Socket?5is?5in?5bad?5state?5?$CIPJ_ESOCK@ 00422b4c     pjlib-i386-win32-vc8-release-static:errno.obj
 0002:00001b74       ??_C@_0BH@ONDLFCEA@Unknown?5pjlib?5error?5?$CFd?$AA@ 00422b74     pjlib-i386-win32-vc8-release-static:errno.obj
 0002:00001b8c       ??_C@_07PBILKAFL@Success?$AA@ 00422b8c     pjlib-i386-win32-vc8-release-static:errno.obj
 0002:00001b94       ??_C@_0BB@BIKLJNJD@Unknown?5error?5?$CFd?$AA@ 00422b94     pjlib-i386-win32-vc8-release-static:errno.obj
 0002:00001ba8       ??_C@_05NAOIJFC@Error?$AA@ 00422ba8     pjlib-i386-win32-vc8-release-static:errno.obj
 0002:00001bb0       ??_C@_06DJHOIPC@?$CFs?3?5?$CFs?$AA@ 00422bb0     pjlib-i386-win32-vc8-release-static:errno.obj
 0002:00001bb8       ??_C@_0BA@CLLJDBF@?4?4?2src?2pj?2log?4c?$AA@ 00422bb8     pjlib-i386-win32-vc8-release-static:log.obj
 0002:00001bc8       ??_C@_06DDFOEFIF@FATAL?3?$AA@ 00422bc8     pjlib-i386-win32-vc8-release-static:log.obj
 0002:00001bd0       ??_C@_06PONDCDME@ERROR?3?$AA@ 00422bd0     pjlib-i386-win32-vc8-release-static:log.obj
 0002:00001bd8       ??_C@_06OHJPOJDB@?5WARN?3?$AA@ 00422bd8     pjlib-i386-win32-vc8-release-static:log.obj
 0002:00001be0       ??_C@_06ICKKLHPE@?5INFO?3?$AA@ 00422be0     pjlib-i386-win32-vc8-release-static:log.obj
 0002:00001be8       ??_C@_06DNOFLLB@DEBUG?3?$AA@ 00422be8     pjlib-i386-win32-vc8-release-static:log.obj
 0002:00001bf0       ??_C@_06ELIFFDKB@TRACE?3?$AA@ 00422bf0     pjlib-i386-win32-vc8-release-static:log.obj
 0002:00001bf8       ??_C@_06HGKAKJPG@DETRC?3?$AA@ 00422bf8     pjlib-i386-win32-vc8-release-static:log.obj
 0002:00001c00       ??_C@_03KOEHGMDN@Sun?$AA@  00422c00     pjlib-i386-win32-vc8-release-static:log.obj
 0002:00001c04       ??_C@_03PDAGKDH@Mon?$AA@   00422c04     pjlib-i386-win32-vc8-release-static:log.obj
 0002:00001c08       ??_C@_03NAGEINEP@Tue?$AA@  00422c08     pjlib-i386-win32-vc8-release-static:log.obj
 0002:00001c0c       ??_C@_03MHOMLAJA@Wed?$AA@  00422c0c     pjlib-i386-win32-vc8-release-static:log.obj
 0002:00001c10       ??_C@_03IOFIKPDN@Thu?$AA@  00422c10     pjlib-i386-win32-vc8-release-static:log.obj
 0002:00001c14       ??_C@_03IDIOELNC@Fri?$AA@  00422c14     pjlib-i386-win32-vc8-release-static:log.obj
 0002:00001c18       ??_C@_03FEFJNEK@Sat?$AA@   00422c18     pjlib-i386-win32-vc8-release-static:log.obj
 0002:00001c1c       ??_C@_0BO@BGMDCDKP@?$DMlogging?5error?3?5msg?5too?5long?$DO?$AA@ 00422c1c     pjlib-i386-win32-vc8-release-static:log.obj
 0002:00001c3c       ??_C@_0BD@ELEDKDKB@?4?4?2src?2pj?2string?4c?$AA@ 00422c3c     pjlib-i386-win32-vc8-release-static:string.obj
 0002:00001c50       ??_C@_0BJ@MJKAJPML@?4?4?2src?2pj?2pool_caching?4c?$AA@ 00422c50     pjlib-i386-win32-vc8-release-static:pool_caching.obj
 0002:00001c6c       ??_C@_0M@IGFPEOLJ@cachingpool?$AA@ 00422c6c     pjlib-i386-win32-vc8-release-static:pool_caching.obj
 0002:00001c78       ??_C@_0DD@ECGDPCBA@Pool?5is?5not?5released?5by?5applicat@ 00422c78     pjlib-i386-win32-vc8-release-static:pool_caching.obj
 0002:00001cac       ??_C@_0BH@BBPHJKOA@?5Dumping?5caching?5pool?3?$AA@ 00422cac     pjlib-i386-win32-vc8-release-static:pool_caching.obj
 0002:00001cc4       ??_C@_08COPEICHG@cachpool?$AA@ 00422cc4     pjlib-i386-win32-vc8-release-static:pool_caching.obj
 0002:00001cd0       ??_C@_0CN@DOKPIIOH@?5?5?5Capacity?$DN?$CFu?0?5max_capacity?$DN?$CFu?0@ 00422cd0     pjlib-i386-win32-vc8-release-static:pool_caching.obj
 0002:00001d00       ??_C@_0BM@IDLDGCC@?5?5Dumping?5all?5active?5pools?3?$AA@ 00422d00     pjlib-i386-win32-vc8-release-static:pool_caching.obj
 0002:00001d1c       ??_C@_0CA@MMLIKIEG@?5?5?5?$CF16s?3?5?$CF8d?5of?5?$CF8d?5?$CI?$CFd?$CF?$CF?$CJ?5used?$AA@ 00422d1c     pjlib-i386-win32-vc8-release-static:pool_caching.obj
 0002:00001d3c       ??_C@_0CB@GKBJPDKG@?5?5Total?5?$CF9d?5of?5?$CF9d?5?$CI?$CFd?5?$CF?$CF?$CJ?5used?$CB@ 00422d3c     pjlib-i386-win32-vc8-release-static:pool_caching.obj
 0002:00001d60       ??_C@_0CD@KFHCCJFN@?$CB?$CB?$CBFATAL?3?5unhandled?5exception?5?$CFs@ 00422d60     pjlib-i386-win32-vc8-release-static:except.obj
 0002:00001d84       ??_C@_08PDFMOJIE@except?4c?$AA@ 00422d84     pjlib-i386-win32-vc8-release-static:except.obj
 0002:00001d90       ??_C@_0N@GJOLEKJC@?$DMInvalid?5ID?$DO?$AA@ 00422d90     pjlib-i386-win32-vc8-release-static:except.obj
 0002:00001da0       ??_C@_0N@LJPLLMIL@exception?5?$CFd?$AA@ 00422da0     pjlib-i386-win32-vc8-release-static:except.obj
 0002:00001db0       ??_C@_0BB@LOBHAKEP@?4?4?2src?2pj?2hash?4c?$AA@ 00422db0     pjlib-i386-win32-vc8-release-static:hash.obj
 0002:00001dc4       ??_C@_0BB@PKFOFEEC@?4?4?2src?2pj?2pool?4c?$AA@ 00422dc4     pjlib-i386-win32-vc8-release-static:pool.obj
 0002:00001dd8       ??_C@_0FL@DFKMACAJ@d?3?2program?2microsip?2pjproject?92?4@ 00422dd8     pjlib-i386-win32-vc8-release-static:ioqueue_select.obj
 0002:00001e34       ??_C@_05LIJONKFG@ioq?$CFp?$AA@ 00422e34     pjlib-i386-win32-vc8-release-static:ioqueue_select.obj
 0002:00001e3c       ??_C@_0CA@IMDCINDN@select?$CI?$CJ?5I?1O?5Queue?5created?5?$CI?$CFp?$CJ?$AA@ 00422e3c     pjlib-i386-win32-vc8-release-static:ioqueue_select.obj
 0002:00001e5c       ??_C@_05PHKAINEA@pjlib?$AA@ 00422e5c     pjlib-i386-win32-vc8-release-static:ioqueue_select.obj
 0002:00001e64       _PJ_AF_UNSPEC              00422e64     pjlib-i386-win32-vc8-release-static:sock_bsd.obj
 0002:00001e68       _PJ_AF_UNIX                00422e68     pjlib-i386-win32-vc8-release-static:sock_bsd.obj
 0002:00001e6c       _PJ_AF_INET                00422e6c     pjlib-i386-win32-vc8-release-static:sock_bsd.obj
 0002:00001e70       _PJ_AF_INET6               00422e70     pjlib-i386-win32-vc8-release-static:sock_bsd.obj
 0002:00001e74       _PJ_AF_PACKET              00422e74     pjlib-i386-win32-vc8-release-static:sock_bsd.obj
 0002:00001e78       _PJ_AF_IRDA                00422e78     pjlib-i386-win32-vc8-release-static:sock_bsd.obj
 0002:00001e7c       _PJ_SOCK_STREAM            00422e7c     pjlib-i386-win32-vc8-release-static:sock_bsd.obj
 0002:00001e80       _PJ_SOCK_DGRAM             00422e80     pjlib-i386-win32-vc8-release-static:sock_bsd.obj
 0002:00001e84       _PJ_SOCK_RAW               00422e84     pjlib-i386-win32-vc8-release-static:sock_bsd.obj
 0002:00001e88       _PJ_SOCK_RDM               00422e88     pjlib-i386-win32-vc8-release-static:sock_bsd.obj
 0002:00001e8c       _PJ_SOL_SOCKET             00422e8c     pjlib-i386-win32-vc8-release-static:sock_bsd.obj
 0002:00001e90       _PJ_SOL_IP                 00422e90     pjlib-i386-win32-vc8-release-static:sock_bsd.obj
 0002:00001e94       _PJ_SOL_TCP                00422e94     pjlib-i386-win32-vc8-release-static:sock_bsd.obj
 0002:00001e98       _PJ_SOL_UDP                00422e98     pjlib-i386-win32-vc8-release-static:sock_bsd.obj
 0002:00001e9c       _PJ_SOL_IPV6               00422e9c     pjlib-i386-win32-vc8-release-static:sock_bsd.obj
 0002:00001ea0       _PJ_IP_TOS                 00422ea0     pjlib-i386-win32-vc8-release-static:sock_bsd.obj
 0002:00001ea4       _PJ_IPTOS_LOWDELAY         00422ea4     pjlib-i386-win32-vc8-release-static:sock_bsd.obj
 0002:00001ea8       _PJ_IPTOS_THROUGHPUT       00422ea8     pjlib-i386-win32-vc8-release-static:sock_bsd.obj
 0002:00001eac       _PJ_IPTOS_RELIABILITY      00422eac     pjlib-i386-win32-vc8-release-static:sock_bsd.obj
 0002:00001eb0       _PJ_IPTOS_MINCOST          00422eb0     pjlib-i386-win32-vc8-release-static:sock_bsd.obj
 0002:00001eb4       _PJ_SO_TYPE                00422eb4     pjlib-i386-win32-vc8-release-static:sock_bsd.obj
 0002:00001eb8       _PJ_SO_RCVBUF              00422eb8     pjlib-i386-win32-vc8-release-static:sock_bsd.obj
 0002:00001ebc       _PJ_SO_SNDBUF              00422ebc     pjlib-i386-win32-vc8-release-static:sock_bsd.obj
 0002:00001ec0       _PJ_TCP_NODELAY            00422ec0     pjlib-i386-win32-vc8-release-static:sock_bsd.obj
 0002:00001ec4       _PJ_SO_REUSEADDR           00422ec4     pjlib-i386-win32-vc8-release-static:sock_bsd.obj
 0002:00001ec8       _PJ_SO_NOSIGPIPE           00422ec8     pjlib-i386-win32-vc8-release-static:sock_bsd.obj
 0002:00001ecc       _PJ_SO_PRIORITY            00422ecc     pjlib-i386-win32-vc8-release-static:sock_bsd.obj
 0002:00001ed0       _PJ_IP_MULTICAST_IF        00422ed0     pjlib-i386-win32-vc8-release-static:sock_bsd.obj
 0002:00001ed4       _PJ_IP_MULTICAST_TTL       00422ed4     pjlib-i386-win32-vc8-release-static:sock_bsd.obj
 0002:00001ed8       _PJ_IP_MULTICAST_LOOP      00422ed8     pjlib-i386-win32-vc8-release-static:sock_bsd.obj
 0002:00001edc       _PJ_IP_ADD_MEMBERSHIP      00422edc     pjlib-i386-win32-vc8-release-static:sock_bsd.obj
 0002:00001ee0       _PJ_IP_DROP_MEMBERSHIP     00422ee0     pjlib-i386-win32-vc8-release-static:sock_bsd.obj
 0002:00001ee4       _PJ_MSG_OOB                00422ee4     pjlib-i386-win32-vc8-release-static:sock_bsd.obj
 0002:00001ee8       _PJ_MSG_PEEK               00422ee8     pjlib-i386-win32-vc8-release-static:sock_bsd.obj
 0002:00001eec       _PJ_MSG_DONTROUTE          00422eec     pjlib-i386-win32-vc8-release-static:sock_bsd.obj
 0002:00001ef0       ??_C@_0BF@KBJNEAPB@?4?4?2src?2pj?2sock_bsd?4c?$AA@ 00422ef0     pjlib-i386-win32-vc8-release-static:sock_bsd.obj
 0002:00001f08       ??_C@_0BI@IIPAIKDD@?4?4?2src?2pj?2sock_common?4c?$AA@ 00422f08     pjlib-i386-win32-vc8-release-static:sock_common.obj
 0002:00001f20       ??_C@_0GB@HHNNKDBF@Received?5?$CFd?5consecutive?5errors?3?5@ 00422f20     pjlib-i386-win32-vc8-release-static:activesock.obj
 0002:00001f84       _PJ_GUID_STRING_LENGTH     00422f84     pjlib-i386-win32-vc8-release-static:guid_win32.obj
 0002:00001f88       ??_C@_0BH@DLOCENPK@?4?4?2src?2pj?2guid_win32?4c?$AA@ 00422f88     pjlib-i386-win32-vc8-release-static:guid_win32.obj
 0002:00001fa0       ??_C@_03NGAIINE@2?44?$AA@  00422fa0     pjlib-i386-win32-vc8-release-static:config.obj
 0002:00001fa4       ??_C@_08DOCHLGNA@config?4c?$AA@ 00422fa4     pjlib-i386-win32-vc8-release-static:config.obj
 0002:00002140       ??_C@_0CD@FNMHLHMI@Interrupted?5system?5call?5?$CIWSAEINT@ 00423140     pjlib-i386-win32-vc8-release-static:os_error_win32.obj
 0002:00002164       ??_C@_0BL@OKPDNKLH@Bad?5file?5number?5?$CIWSAEBADF?$CJ?$AA@ 00423164     pjlib-i386-win32-vc8-release-static:os_error_win32.obj
 0002:00002180       ??_C@_0BO@BMBEEPBP@Permission?5denied?5?$CIWSAEACCES?$CJ?$AA@ 00423180     pjlib-i386-win32-vc8-release-static:os_error_win32.obj
 0002:000021a0       ??_C@_0BI@LAKHPJJ@Bad?5address?5?$CIWSAEFAULT?$CJ?$AA@ 004231a0     pjlib-i386-win32-vc8-release-static:os_error_win32.obj
 0002:000021b8       ??_C@_0BN@FEIDINKH@Invalid?5argument?5?$CIWSAEINVAL?$CJ?$AA@ 004231b8     pjlib-i386-win32-vc8-release-static:os_error_win32.obj
 0002:000021d8       ??_C@_0CC@HMKKNDGL@Too?5many?5open?5sockets?5?$CIWSAEMFILE@ 004231d8     pjlib-i386-win32-vc8-release-static:os_error_win32.obj
 0002:000021fc       ??_C@_0CH@GCPPFMGM@Operation?5would?5block?5?$CIWSAEWOULD@ 004231fc     pjlib-i386-win32-vc8-release-static:os_error_win32.obj
 0002:00002224       ??_C@_0CL@DKGHEPCD@Operation?5now?5in?5progress?5?$CIWSAEI@ 00423224     pjlib-i386-win32-vc8-release-static:os_error_win32.obj
 0002:00002250       ??_C@_0CM@BEMCBKDH@Operation?5already?5in?5progress?5?$CIW@ 00423250     pjlib-i386-win32-vc8-release-static:os_error_win32.obj
 0002:0000227c       ??_C@_0CN@PAFKDEBN@Socket?5operation?5on?5non?9socket?5?$CI@ 0042327c     pjlib-i386-win32-vc8-release-static:os_error_win32.obj
 0002:000022ac       ??_C@_0CP@HCDICECK@Destination?5address?5required?5?$CIWS@ 004232ac     pjlib-i386-win32-vc8-release-static:os_error_win32.obj
 0002:000022dc       ??_C@_0BP@LNFPBFEK@Message?5too?5long?5?$CIWSAEMSGSIZE?$CJ?$AA@ 004232dc     pjlib-i386-win32-vc8-release-static:os_error_win32.obj
 0002:000022fc       ??_C@_0CP@MMIMIEMF@Protocol?5wrong?5type?5for?5socket?5?$CI@ 004232fc     pjlib-i386-win32-vc8-release-static:os_error_win32.obj
 0002:0000232c       ??_C@_0CF@HNFLHOHA@Bad?5protocol?5option?5?$CIWSAENOPROTO@ 0042332c     pjlib-i386-win32-vc8-release-static:os_error_win32.obj
 0002:00002354       ??_C@_0CM@HPGHEHCE@Protocol?5not?5supported?5?$CIWSAEPROT@ 00423354     pjlib-i386-win32-vc8-release-static:os_error_win32.obj
 0002:00002380       ??_C@_0CP@JLBNHCOL@Socket?5type?5not?5supported?5?$CIWSAES@ 00423380     pjlib-i386-win32-vc8-release-static:os_error_win32.obj
 0002:000023b0       ??_C@_0DC@GJMFANID@Operation?5not?5supported?5on?5socke@ 004233b0     pjlib-i386-win32-vc8-release-static:os_error_win32.obj
 0002:000023e4       ??_C@_0DA@GFNBENIG@Protocol?5family?5not?5supported?5?$CIW@ 004233e4     pjlib-i386-win32-vc8-release-static:os_error_win32.obj
 0002:00002414       ??_C@_0CP@MMKHGIFC@Address?5family?5not?5supported?5?$CIWS@ 00423414     pjlib-i386-win32-vc8-release-static:os_error_win32.obj
 0002:00002444       ??_C@_0CH@OCKNFBKE@Address?5already?5in?5use?5?$CIWSAEADDR@ 00423444     pjlib-i386-win32-vc8-release-static:os_error_win32.obj
 0002:0000246c       ??_C@_0DC@FJJPJPOD@Can?8t?5assign?5requested?5address?5?$CI@ 0042346c     pjlib-i386-win32-vc8-release-static:os_error_win32.obj
 0002:000024a0       ??_C@_0BO@IICKDHLJ@Network?5is?5down?5?$CIWSAENETDOWN?$CJ?$AA@ 004234a0     pjlib-i386-win32-vc8-release-static:os_error_win32.obj
 0002:000024c0       ??_C@_0CI@NKJAACME@Network?5is?5unreachable?5?$CIWSAENETU@ 004234c0     pjlib-i386-win32-vc8-release-static:os_error_win32.obj
 0002:000024e8       ??_C@_0CE@LJEEEFEC@Net?5connection?5reset?5?$CIWSAENETRES@ 004234e8     pjlib-i386-win32-vc8-release-static:os_error_win32.obj
 0002:0000250c       ??_C@_0DD@PGDIHOBG@Software?5caused?5connection?5abort@ 0042350c     pjlib-i386-win32-vc8-release-static:os_error_win32.obj
 0002:00002540       ??_C@_0CJ@PJHCFAAN@Connection?5reset?5by?5peer?5?$CIWSAECO@ 00423540     pjlib-i386-win32-vc8-release-static:os_error_win32.obj
 0002:0000256c       ??_C@_0CH@EKNGIMKN@No?5buffer?5space?5available?5?$CIWSAEN@ 0042356c     pjlib-i386-win32-vc8-release-static:os_error_win32.obj
 0002:00002594       ??_C@_0CJ@JOPBNNOD@Socket?5is?5already?5connected?5?$CIWSA@ 00423594     pjlib-i386-win32-vc8-release-static:os_error_win32.obj
 0002:000025c0       ??_C@_0CG@CECDMHLL@Socket?5is?5not?5connected?5?$CIWSAENOT@ 004235c0     pjlib-i386-win32-vc8-release-static:os_error_win32.obj
 0002:000025e8       ??_C@_0DA@JGJMJPNM@Can?8t?5send?5after?5socket?5shutdown@ 004235e8     pjlib-i386-win32-vc8-release-static:os_error_win32.obj
 0002:00002618       ??_C@_0DE@CAILNFFE@Too?5many?5references?0?5can?8t?5splic@ 00423618     pjlib-i386-win32-vc8-release-static:os_error_win32.obj
 0002:0000264c       ??_C@_0CE@IIKHBGF@Connection?5timed?5out?5?$CIWSAETIMEDO@ 0042364c     pjlib-i386-win32-vc8-release-static:os_error_win32.obj
 0002:00002670       ??_C@_0CF@JMKFBJH@Connection?5refused?5?$CIWSAECONNREFU@ 00423670     pjlib-i386-win32-vc8-release-static:os_error_win32.obj
 0002:00002698       ??_C@_0CN@FCKBNFMB@Too?5many?5levels?5of?5symbolic?5link@ 00423698     pjlib-i386-win32-vc8-release-static:os_error_win32.obj
 0002:000026c8       ??_C@_0CF@MOFKOMBB@File?5name?5too?5long?5?$CIWSAENAMETOOL@ 004236c8     pjlib-i386-win32-vc8-release-static:os_error_win32.obj
 0002:000026f0       ??_C@_0BM@NCJCEEDP@Host?5is?5down?5?$CIWSAEHOSTDOWN?$CJ?$AA@ 004236f0     pjlib-i386-win32-vc8-release-static:os_error_win32.obj
 0002:0000270c       ??_C@_0CD@ECJOJHBH@No?5route?5to?5host?5?$CIWSAEHOSTUNREAC@ 0042370c     pjlib-i386-win32-vc8-release-static:os_error_win32.obj
 0002:00002730       ??_C@_0CD@NEFLEHEG@Directory?5not?5empty?5?$CIWSAENOTEMPT@ 00423730     pjlib-i386-win32-vc8-release-static:os_error_win32.obj
 0002:00002754       ??_C@_0CB@GPCGLHOJ@Too?5many?5processes?5?$CIWSAEPROCLIM?$CJ@ 00423754     pjlib-i386-win32-vc8-release-static:os_error_win32.obj
 0002:00002778       ??_C@_0BL@IGHJMJKO@Too?5many?5users?5?$CIWSAEUSERS?$CJ?$AA@ 00423778     pjlib-i386-win32-vc8-release-static:os_error_win32.obj
 0002:00002794       ??_C@_0CA@MIOFDKMA@Disc?5quota?5exceeded?5?$CIWSAEDQUOT?$CJ?$AA@ 00423794     pjlib-i386-win32-vc8-release-static:os_error_win32.obj
 0002:000027b4       ??_C@_0CC@IMLIDHNH@Stale?5NFS?5file?5handle?5?$CIWSAESTALE@ 004237b4     pjlib-i386-win32-vc8-release-static:os_error_win32.obj
 0002:000027d8       ??_C@_0CP@MLAFGPOA@Too?5many?5levels?5of?5remote?5in?5pat@ 004237d8     pjlib-i386-win32-vc8-release-static:os_error_win32.obj
 0002:00002808       ??_C@_0CP@IBAEMKGH@Network?5system?5is?5unavailable?5?$CIW@ 00423808     pjlib-i386-win32-vc8-release-static:os_error_win32.obj
 0002:00002838       ??_C@_0DC@BLAKHMMJ@Winsock?5version?5out?5of?5range?5?$CIWS@ 00423838     pjlib-i386-win32-vc8-release-static:os_error_win32.obj
 0002:0000286c       ??_C@_0CO@HPDHHDHA@WSAStartup?5not?5yet?5called?5?$CIWSANO@ 0042386c     pjlib-i386-win32-vc8-release-static:os_error_win32.obj
 0002:0000289c       ??_C@_0CL@GFDHEKLB@Graceful?5shutdown?5in?5progress?5?$CIW@ 0042389c     pjlib-i386-win32-vc8-release-static:os_error_win32.obj
 0002:000028c8       ??_C@_0CD@OEALOMDH@Host?5not?5found?5?$CIWSAHOST_NOT_FOUN@ 004238c8     pjlib-i386-win32-vc8-release-static:os_error_win32.obj
 0002:000028ec       ??_C@_0DB@KFPHELLI@No?5host?5data?5of?5that?5type?5was?5fo@ 004238ec     pjlib-i386-win32-vc8-release-static:os_error_win32.obj
 0002:00002920       ??_C@_0BE@JPHLLAEM@Win32?5error?5code?5?$CFu?$AA@ 00423920     pjlib-i386-win32-vc8-release-static:os_error_win32.obj
 0002:00002934       ??_C@_0BO@KBBNBAFA@?4?4?2src?2pj?2log_writer_stdout?4c?$AA@ 00423934     pjlib-i386-win32-vc8-release-static:log_writer_stdout.obj
 0002:00002954       ??_C@_0BP@JMMENEAD@?4?4?2src?2pj?2pool_policy_malloc?4c?$AA@ 00423954     pjlib-i386-win32-vc8-release-static:pool_policy_malloc.obj
 0002:00002974       ??_C@_0BC@OIAJPKFB@?4?4?2src?2pj?2types?4c?$AA@ 00423974     pjlib-i386-win32-vc8-release-static:types.obj
 0002:00002988       __real@3ff0000000000000    00423988     pjlib-i386-win32-vc8-release-static:os_timestamp_common.obj
 0002:00002990       __real@408f400000000000    00423990     pjlib-i386-win32-vc8-release-static:os_timestamp_common.obj
 0002:00002998       ??_C@_0BI@FIAAHKJ@?4?4?2src?2pj?2sock_select?4c?$AA@ 00423998     pjlib-i386-win32-vc8-release-static:sock_select.obj
 0002:00002a54       ??_C@_1BC@DNHGCMLG@?$AAa?$AAd?$AAv?$AAa?$AAp?$AAi?$AA3?$AA2?$AA?$AA@ 00423a54     libvcruntime:winapi_downlevel.obj
 0002:00002a68       ??_C@_1DM@KHCHBNEB@?$AAa?$AAp?$AAi?$AA?9?$AAm?$AAs?$AA?9?$AAw?$AAi?$AAn?$AA?9?$AAc?$AAo?$AAr?$AAe?$AA?9?$AAf?$AAi?$AAb?$AAe?$AAr?$AAs?$AA?9?$AAl?$AA1?$AA?9?$AA1?$AA?9?$AA1?$AA?$AA@ 00423a68     libvcruntime:winapi_downlevel.obj
 0002:00002aa4       ??_C@_1DK@LPPGFMPP@?$AAa?$AAp?$AAi?$AA?9?$AAm?$AAs?$AA?9?$AAw?$AAi?$AAn?$AA?9?$AAc?$AAo?$AAr?$AAe?$AA?9?$AAs?$AAy?$AAn?$AAc?$AAh?$AA?9?$AAl?$AA1?$AA?9?$AA2?$AA?9?$AA0?$AA?$AA@ 00423aa4     libvcruntime:winapi_downlevel.obj
 0002:00002ae0       ??_C@_1BC@GDMECMAK@?$AAk?$AAe?$AAr?$AAn?$AAe?$AAl?$AA3?$AA2?$AA?$AA@ 00423ae0     libvcruntime:winapi_downlevel.obj
 0002:00002afc       ??_C@_08KNHFBNJ@FlsAlloc?$AA@ 00423afc     libvcruntime:winapi_downlevel.obj
 0002:00002b10       ??_C@_07PEJMOBNF@FlsFree?$AA@ 00423b10     libvcruntime:winapi_downlevel.obj
 0002:00002b18       ??_C@_0M@GDNOONDI@FlsGetValue?$AA@ 00423b18     libvcruntime:winapi_downlevel.obj
 0002:00002b2c       ??_C@_0M@JCPCPOEF@FlsSetValue?$AA@ 00423b2c     libvcruntime:winapi_downlevel.obj
 0002:00002b40       ??_C@_0BM@HCFOFFN@InitializeCriticalSectionEx?$AA@ 00423b40     libvcruntime:winapi_downlevel.obj
 0002:00002cf0       ??_C@_08EHJDFFNH@__based?$CI?$AA@ 00423cf0     libvcruntime:undname.obj
 0002:00002cfc       ??_C@_07KOLFKCDI@__cdecl?$AA@ 00423cfc     libvcruntime:undname.obj
 0002:00002d04       ??_C@_08GHMPAG@__pascal?$AA@ 00423d04     libvcruntime:undname.obj
 0002:00002d10       ??_C@_09IFJBGAPI@__stdcall?$AA@ 00423d10     libvcruntime:undname.obj
 0002:00002d1c       ??_C@_0L@NPHFGOKO@__thiscall?$AA@ 00423d1c     libvcruntime:undname.obj
 0002:00002d28       ??_C@_0L@JMKHOMEK@__fastcall?$AA@ 00423d28     libvcruntime:undname.obj
 0002:00002d34       ??_C@_0N@BCKKPABJ@__vectorcall?$AA@ 00423d34     libvcruntime:undname.obj
 0002:00002d44       ??_C@_09HIJEGCPM@__clrcall?$AA@ 00423d44     libvcruntime:undname.obj
 0002:00002d50       ??_C@_06GHPCKEAG@__eabi?$AA@ 00423d50     libvcruntime:undname.obj
 0002:00002d58       ??_C@_07JOMMBBKO@__ptr64?$AA@ 00423d58     libvcruntime:undname.obj
 0002:00002d60       ??_C@_0L@PILCLIHE@__restrict?$AA@ 00423d60     libvcruntime:undname.obj
 0002:00002d6c       ??_C@_0M@GFIIJFMG@__unaligned?$AA@ 00423d6c     libvcruntime:undname.obj
 0002:00002d78       ??_C@_09DHDLOLLB@restrict?$CI?$AA@ 00423d78     libvcruntime:undname.obj
 0002:00002d84       ??_C@_04NIHEBCM@?5new?$AA@ 00423d84     libvcruntime:undname.obj
 0002:00002d8c       ??_C@_07FPCDHGMM@?5delete?$AA@ 00423d8c     libvcruntime:undname.obj
 0002:00002d94       ??_C@_01NEMOKFLO@?$DN?$AA@ 00423d94     libvcruntime:undname.obj
 0002:00002d98       ??_C@_02GPIOPFAK@?$DO?$DO?$AA@ 00423d98     libvcruntime:undname.obj
 0002:00002d9c       ??_C@_02FODMEDOG@?$DM?$DM?$AA@ 00423d9c     libvcruntime:undname.obj
 0002:00002da0       ??_C@_01DCLJPIOD@?$CB?$AA@ 00423da0     libvcruntime:undname.obj
 0002:00002da4       ??_C@_02EGOFBIJA@?$DN?$DN?$AA@ 00423da4     libvcruntime:undname.obj
 0002:00002da8       ??_C@_02FDNJECIE@?$CB?$DN?$AA@ 00423da8     libvcruntime:undname.obj
 0002:00002dac       ??_C@_02GPECMEKF@?$FL?$FN?$AA@ 00423dac     libvcruntime:undname.obj
 0002:00002db0       ??_C@_08LHJFAFGD@operator?$AA@ 00423db0     libvcruntime:undname.obj
 0002:00002dbc       ??_C@_02HBOOOICD@?9?$DO?$AA@ 00423dbc     libvcruntime:undname.obj
 0002:00002dc0       ??_C@_01NBENCBCI@?$CK?$AA@ 00423dc0     libvcruntime:undname.obj
 0002:00002dc4       ??_C@_02ECNGHCIF@?$CL?$CL?$AA@ 00423dc4     libvcruntime:undname.obj
 0002:00002dc8       ??_C@_02BAABKJLB@?9?9?$AA@ 00423dc8     libvcruntime:undname.obj
 0002:00002dcc       ??_C@_01JOAMLHOP@?9?$AA@   00423dcc     libvcruntime:undname.obj
 0002:00002dd0       ??_C@_01MIFGBAGJ@?$CL?$AA@ 00423dd0     libvcruntime:undname.obj
 0002:00002dd4       ??_C@_01HNPIGOCE@?$CG?$AA@ 00423dd4     libvcruntime:undname.obj
 0002:00002dd8       ??_C@_03MNHNFDLC@?9?$DO?$CK?$AA@ 00423dd8     libvcruntime:undname.obj
 0002:00002ddc       ??_C@_01KMDKNFGN@?1?$AA@   00423ddc     libvcruntime:undname.obj
 0002:00002de0       ??_C@_01FGNFDNOH@?$CF?$AA@ 00423de0     libvcruntime:undname.obj
 0002:00002de4       ??_C@_02EHCHHCKH@?$DM?$DN?$AA@ 00423de4     libvcruntime:undname.obj
 0002:00002de8       ??_C@_02EEKDKGMJ@?$DO?$DN?$AA@ 00423de8     libvcruntime:undname.obj
 0002:00002dec       ??_C@_01IHBHIGKO@?0?$AA@   00423dec     libvcruntime:undname.obj
 0002:00002df0       ??_C@_02HCKGKOFO@?$CI?$CJ?$AA@ 00423df0     libvcruntime:undname.obj
 0002:00002df4       ??_C@_01PJKLJHI@?$HO?$AA@  00423df4     libvcruntime:undname.obj
 0002:00002df8       ??_C@_01DNKMNLPK@?$HM?$AA@ 00423df8     libvcruntime:undname.obj
 0002:00002dfc       ??_C@_02PPKAJPJL@?$CG?$CG?$AA@ 00423dfc     libvcruntime:undname.obj
 0002:00002e00       ??_C@_02NONPIBCD@?$HM?$HM?$AA@ 00423e00     libvcruntime:undname.obj
 0002:00002e04       ??_C@_02FPIMKNGF@?$CK?$DN?$AA@ 00423e04     libvcruntime:undname.obj
 0002:00002e08       ??_C@_02FOEOMHFC@?$CL?$DN?$AA@ 00423e08     libvcruntime:undname.obj
 0002:00002e0c       ??_C@_02FKMDLLOA@?9?$DN?$AA@ 00423e0c     libvcruntime:undname.obj
 0002:00002e10       ??_C@_02FJEHGPIO@?1?$DN?$AA@ 00423e10     libvcruntime:undname.obj
 0002:00002e14       ??_C@_02FENAOKFI@?$CF?$DN?$AA@ 00423e14     libvcruntime:undname.obj
 0002:00002e18       ??_C@_03IKFCCPFF@?$DO?$DO?$DN?$AA@ 00423e18     libvcruntime:undname.obj
 0002:00002e1c       ??_C@_03CDNPDDLA@?$DM?$DM?$DN?$AA@ 00423e1c     libvcruntime:undname.obj
 0002:00002e20       ??_C@_02FGJGFEAB@?$CG?$DN?$AA@ 00423e20     libvcruntime:undname.obj
 0002:00002e24       ??_C@_02DHLNPPGH@?$HM?$DN?$AA@ 00423e24     libvcruntime:undname.obj
 0002:00002e28       ??_C@_02MHEGNOJ@?$FO?$DN?$AA@ 00423e28     libvcruntime:undname.obj
 0002:00002e2c       ??_C@_09IFPLHPGF@?$GAvftable?8?$AA@ 00423e2c     libvcruntime:undname.obj
 0002:00002e38       ??_C@_09BLBHBJP@?$GAvbtable?8?$AA@ 00423e38     libvcruntime:undname.obj
 0002:00002e44       ??_C@_07FEEIOKP@?$GAvcall?8?$AA@ 00423e44     libvcruntime:undname.obj
 0002:00002e4c       ??_C@_08LLFFHHDJ@?$GAtypeof?8?$AA@ 00423e4c     libvcruntime:undname.obj
 0002:00002e58       ??_C@_0BF@KDPPACIK@?$GAlocal?5static?5guard?8?$AA@ 00423e58     libvcruntime:undname.obj
 0002:00002e70       ??_C@_08OBABFOLI@?$GAstring?8?$AA@ 00423e70     libvcruntime:undname.obj
 0002:00002e7c       ??_C@_0BD@JDLKDPAB@?$GAvbase?5destructor?8?$AA@ 00423e7c     libvcruntime:undname.obj
 0002:00002e90       ??_C@_0BN@DEGPLNFK@?$GAvector?5deleting?5destructor?8?$AA@ 00423e90     libvcruntime:undname.obj
 0002:00002eb0       ??_C@_0BO@OBMKPJIG@?$GAdefault?5constructor?5closure?8?$AA@ 00423eb0     libvcruntime:undname.obj
 0002:00002ed0       ??_C@_0BN@IMDCHIKM@?$GAscalar?5deleting?5destructor?8?$AA@ 00423ed0     libvcruntime:undname.obj
 0002:00002ef0       ??_C@_0BO@PFGOCPJJ@?$GAvector?5constructor?5iterator?8?$AA@ 00423ef0     libvcruntime:undname.obj
 0002:00002f10       ??_C@_0BN@LFPFMEDL@?$GAvector?5destructor?5iterator?8?$AA@ 00423f10     libvcruntime:undname.obj
 0002:00002f30       ??_C@_0CE@IKBNEHA@?$GAvector?5vbase?5constructor?5iterat@ 00423f30     libvcruntime:undname.obj
 0002:00002f54       ??_C@_0BL@NILFHHPC@?$GAvirtual?5displacement?5map?8?$AA@ 00423f54     libvcruntime:undname.obj
 0002:00002f70       ??_C@_0CB@JONCMFFK@?$GAeh?5vector?5constructor?5iterator?8@ 00423f70     libvcruntime:undname.obj
 0002:00002f94       ??_C@_0CA@GCEOPDGL@?$GAeh?5vector?5destructor?5iterator?8?$AA@ 00423f94     libvcruntime:undname.obj
 0002:00002fb4       ??_C@_0CH@OOJPLCPH@?$GAeh?5vector?5vbase?5constructor?5ite@ 00423fb4     libvcruntime:undname.obj
 0002:00002fdc       ??_C@_0BL@LLKPOHJI@?$GAcopy?5constructor?5closure?8?$AA@ 00423fdc     libvcruntime:undname.obj
 0002:00002ff8       ??_C@_0BA@KBCDOMBN@?$GAudt?5returning?8?$AA@ 00423ff8     libvcruntime:undname.obj
 0002:00003008       ??_C@_03KLGMFNMG@?$GAEH?$AA@ 00424008     libvcruntime:undname.obj
 0002:0000300c       ??_C@_05KHLCHHI@?$GARTTI?$AA@ 0042400c     libvcruntime:undname.obj
 0002:00003014       ??_C@_0BA@KKLDJDLB@?$GAlocal?5vftable?8?$AA@ 00424014     libvcruntime:undname.obj
 0002:00003024       ??_C@_0CE@IIHCMGGL@?$GAlocal?5vftable?5constructor?5closu@ 00424024     libvcruntime:undname.obj
 0002:00003048       ??_C@_06FHBGPFGH@?5new?$FL?$FN?$AA@ 00424048     libvcruntime:undname.obj
 0002:00003050       ??_C@_09LBNFPBCA@?5delete?$FL?$FN?$AA@ 00424050     libvcruntime:undname.obj
 0002:0000305c       ??_C@_0P@HJKNJFNN@?$GAomni?5callsig?8?$AA@ 0042405c     libvcruntime:undname.obj
 0002:0000306c       ??_C@_0BL@CNOONJFP@?$GAplacement?5delete?5closure?8?$AA@ 0042406c     libvcruntime:undname.obj
 0002:00003088       ??_C@_0BN@CKNJLHMB@?$GAplacement?5delete?$FL?$FN?5closure?8?$AA@ 00424088     libvcruntime:undname.obj
 0002:000030a8       ??_C@_0CG@CFDHKGGD@?$GAmanaged?5vector?5constructor?5iter@ 004240a8     libvcruntime:undname.obj
 0002:000030d0       ??_C@_0CF@IMGKMJNO@?$GAmanaged?5vector?5destructor?5itera@ 004240d0     libvcruntime:undname.obj
 0002:000030f8       ??_C@_0CG@HLDDJMAG@?$GAeh?5vector?5copy?5constructor?5iter@ 004240f8     libvcruntime:undname.obj
 0002:00003120       ??_C@_0CM@FCBBDIGB@?$GAeh?5vector?5vbase?5copy?5constructo@ 00424120     libvcruntime:undname.obj
 0002:0000314c       ??_C@_0BL@CLIPGLGB@?$GAdynamic?5initializer?5for?5?8?$AA@ 0042414c     libvcruntime:undname.obj
 0002:00003168       ??_C@_0CB@PDBIFEP@?$GAdynamic?5atexit?5destructor?5for?5?8@ 00424168     libvcruntime:undname.obj
 0002:0000318c       ??_C@_0CD@CGAJBKEJ@?$GAvector?5copy?5constructor?5iterato@ 0042418c     libvcruntime:undname.obj
 0002:000031b0       ??_C@_0CJ@GJELGAMM@?$GAvector?5vbase?5copy?5constructor?5i@ 004241b0     libvcruntime:undname.obj
 0002:000031dc       ??_C@_0CL@FGIJHLCE@?$GAmanaged?5vector?5copy?5constructor@ 004241dc     libvcruntime:undname.obj
 0002:00003208       ??_C@_0BM@PMGGMLDN@?$GAlocal?5static?5thread?5guard?8?$AA@ 00424208     libvcruntime:undname.obj
 0002:00003224       ??_C@_0N@BDNMDMOL@operator?5?$CC?$CC?5?$AA@ 00424224     libvcruntime:undname.obj
 0002:00003234       ??_C@_0BC@DAFEJGAK@?5Type?5Descriptor?8?$AA@ 00424234     libvcruntime:undname.obj
 0002:00003248       ??_C@_0BM@LDKODKLH@?5Base?5Class?5Descriptor?5at?5?$CI?$AA@ 00424248     libvcruntime:undname.obj
 0002:00003264       ??_C@_0BD@LGICGFMM@?5Base?5Class?5Array?8?$AA@ 00424264     libvcruntime:undname.obj
 0002:00003278       ??_C@_0BN@MECKDCOJ@?5Class?5Hierarchy?5Descriptor?8?$AA@ 00424278     libvcruntime:undname.obj
 0002:00003298       ??_C@_0BK@CFCOFLF@?5Complete?5Object?5Locator?8?$AA@ 00424298     libvcruntime:undname.obj
 0002:000032b8       _standard_lookup_table     004242b8     libucrt:output.obj
 0002:00003314       ??_C@_06OJHGLDPL@?$CInull?$CJ?$AA@ 00424314     libucrt:output.obj
 0002:0000331c       ??_C@_1O@CEDCILHN@?$AA?$CI?$AAn?$AAu?$AAl?$AAl?$AA?$CJ?$AA?$AA@ 0042431c     libucrt:output.obj
 0002:00003330       __OP_FMODjmptab            00424330     libucrt:87fmod.obj
 0002:00003380       ___acrt_exception_action_table 00424380     libucrt:exception_filter.obj
 0002:00003410       ___acrt_signal_action_table_count 00424410     libucrt:exception_filter.obj
 0002:00003414       ___acrt_signal_action_first_fpe_index 00424414     libucrt:exception_filter.obj
 0002:00003418       ___acrt_signal_action_fpe_count 00424418     libucrt:exception_filter.obj
 0002:0000341c       ??_C@_1BI@BGOHAHKC@?$AAm?$AAs?$AAc?$AAo?$AAr?$AAe?$AAe?$AA?4?$AAd?$AAl?$AAl?$AA?$AA@ 0042441c     libucrt:exit.obj
 0002:00003434       ??_C@_0P@MIGLKIOC@CorExitProcess?$AA@ 00424434     libucrt:exit.obj
 0002:00003444       ??_C@_04FJHINJAO@tanh?$AA@ 00424444     libucrt:fpexcept.obj
 0002:0000344c       ??_C@_04FIHNOPOL@asin?$AA@ 0042444c     libucrt:fpexcept.obj
 0002:00003454       ??_C@_04PDIFKINK@acos?$AA@ 00424454     libucrt:fpexcept.obj
 0002:0000345c       ??_C@_04MLLJIGOK@atan?$AA@ 0042445c     libucrt:fpexcept.obj
 0002:00003464       ??_C@_05KNGEOGJB@atan2?$AA@ 00424464     libucrt:fpexcept.obj
 0002:0000346c       ??_C@_04EIAKFFMI@sqrt?$AA@ 0042446c     libucrt:fpexcept.obj
 0002:00003474       ??_C@_03BLEJJJBH@sin?$AA@  00424474     libucrt:fpexcept.obj
 0002:00003478       ??_C@_03LALBNOCG@cos?$AA@  00424478     libucrt:fpexcept.obj
 0002:0000347c       ??_C@_03IIINPABG@tan?$AA@  0042447c     libucrt:fpexcept.obj
 0002:00003480       ??_C@_04GFPJNGEK@ceil?$AA@ 00424480     libucrt:fpexcept.obj
 0002:00003488       ??_C@_05PBJFFIGL@floor?$AA@ 00424488     libucrt:fpexcept.obj
 0002:00003490       ??_C@_04ODHECPBC@fabs?$AA@ 00424490     libucrt:fpexcept.obj
 0002:00003498       ??_C@_04EHEDPDJG@modf?$AA@ 00424498     libucrt:fpexcept.obj
 0002:000034a0       ??_C@_05CEJMAHNP@ldexp?$AA@ 004244a0     libucrt:fpexcept.obj
 0002:000034a8       ??_C@_05KBKMEMPO@_cabs?$AA@ 004244a8     libucrt:fpexcept.obj
 0002:000034b0       ??_C@_06MEIMCGCF@_hypot?$AA@ 004244b0     libucrt:fpexcept.obj
 0002:000034b8       ??_C@_04KEPJIHGP@fmod?$AA@ 004244b8     libucrt:fpexcept.obj
 0002:000034c0       ??_C@_05GKKHEGJL@frexp?$AA@ 004244c0     libucrt:fpexcept.obj
 0002:000034c8       ??_C@_03MJLDFKDL@_y0?$AA@  004244c8     libucrt:fpexcept.obj
 0002:000034cc       ??_C@_03NAKIGLHK@_y1?$AA@  004244cc     libucrt:fpexcept.obj
 0002:000034d0       ??_C@_03ONILCKOB@_yn?$AA@  004244d0     libucrt:fpexcept.obj
 0002:000034d4       ??_C@_05JGDBENOH@_logb?$AA@ 004244d4     libucrt:fpexcept.obj
 0002:000034dc       ??_C@_0L@KDOEJCKC@_nextafter?$AA@ 004244dc     libucrt:fpexcept.obj
 0002:000035d0       ??_C@_03KHJOGHMM@exp?$AA@  004245d0     libucrt:fpexcept.obj
 0002:000035d4       ??_C@_03JGHBODFD@pow?$AA@  004245d4     libucrt:fpexcept.obj
 0002:000035d8       ??_C@_03MGHMBJCF@log?$AA@  004245d8     libucrt:fpexcept.obj
 0002:000035dc       ??_C@_05HGHHAHAP@log10?$AA@ 004245dc     libucrt:fpexcept.obj
 0002:000035e4       ??_C@_04COOMCNPB@sinh?$AA@ 004245e4     libucrt:fpexcept.obj
 0002:000035ec       ??_C@_04HPJJNFIM@cosh?$AA@ 004245ec     libucrt:fpexcept.obj
 0002:000037d8       ??_C@_03OEIAHPBN@INF?$AA@  004247d8     libucrt:cvt.obj
 0002:000037dc       ??_C@_03OJHLLCGB@inf?$AA@  004247dc     libucrt:cvt.obj
 0002:000037e0       ??_C@_03LKNCIKJB@NAN?$AA@  004247e0     libucrt:cvt.obj
 0002:000037e4       ??_C@_03LHCJEHON@nan?$AA@  004247e4     libucrt:cvt.obj
 0002:000037e8       ??_C@_09OFJJIMPC@NAN?$CISNAN?$CJ?$AA@ 004247e8     libucrt:cvt.obj
 0002:000037f4       ??_C@_09IPFBKMDL@nan?$CIsnan?$CJ?$AA@ 004247f4     libucrt:cvt.obj
 0002:00003800       ??_C@_08IKHNHAJ@NAN?$CIIND?$CJ?$AA@ 00424800     libucrt:cvt.obj
 0002:0000380c       ??_C@_08OFCDMILK@nan?$CIind?$CJ?$AA@ 0042480c     libucrt:cvt.obj
 0002:00003818       ??_C@_05KLBDPFGC@e?$CL000?$AA@ 00424818     libucrt:cvt.obj
 0002:00003820       ??_C@_06OOPIFAJ@Sunday?$AA@ 00424820     libucrt:nlsdata.obj
 0002:00003828       ??_C@_06JLEDEDGH@Monday?$AA@ 00424828     libucrt:nlsdata.obj
 0002:00003830       ??_C@_07BAAGCFCM@Tuesday?$AA@ 00424830     libucrt:nlsdata.obj
 0002:00003838       ??_C@_09DLIGFAKA@Wednesday?$AA@ 00424838     libucrt:nlsdata.obj
 0002:00003844       ??_C@_08HACCIKIA@Thursday?$AA@ 00424844     libucrt:nlsdata.obj
 0002:00003850       ??_C@_06JECMNKMI@Friday?$AA@ 00424850     libucrt:nlsdata.obj
 0002:00003858       ??_C@_08INBOOONO@Saturday?$AA@ 00424858     libucrt:nlsdata.obj
 0002:00003864       ??_C@_03JIHJHPIE@Jan?$AA@  00424864     libucrt:nlsdata.obj
 0002:00003868       ??_C@_03HJBDCHOM@Feb?$AA@  00424868     libucrt:nlsdata.obj
 0002:0000386c       ??_C@_03ODNJBKGA@Mar?$AA@  0042486c     libucrt:nlsdata.obj
 0002:00003870       ??_C@_03LEOLGMJP@Apr?$AA@  00424870     libucrt:nlsdata.obj
 0002:00003874       ??_C@_03CNMDKL@May?$AA@    00424874     libucrt:nlsdata.obj
 0002:00003878       ??_C@_03IDFGHECI@Jun?$AA@  00424878     libucrt:nlsdata.obj
 0002:0000387c       ??_C@_03LBGABGKK@Jul?$AA@  0042487c     libucrt:nlsdata.obj
 0002:00003880       ??_C@_03IFJFEIGA@Aug?$AA@  00424880     libucrt:nlsdata.obj
 0002:00003884       ??_C@_03GGCAPAJC@Sep?$AA@  00424884     libucrt:nlsdata.obj
 0002:00003888       ??_C@_03BMAOKBAD@Oct?$AA@  00424888     libucrt:nlsdata.obj
 0002:0000388c       ??_C@_03JPJOFNIA@Nov?$AA@  0042488c     libucrt:nlsdata.obj
 0002:00003890       ??_C@_03MKABNOCG@Dec?$AA@  00424890     libucrt:nlsdata.obj
 0002:00003894       ??_C@_07CGJPFGJA@January?$AA@ 00424894     libucrt:nlsdata.obj
 0002:0000389c       ??_C@_08GNJGEPFN@February?$AA@ 0042489c     libucrt:nlsdata.obj
 0002:000038a8       ??_C@_05HPCKOFNC@March?$AA@ 004248a8     libucrt:nlsdata.obj
 0002:000038b0       ??_C@_05DMJDNLEJ@April?$AA@ 004248b0     libucrt:nlsdata.obj
 0002:000038b8       ??_C@_04CNLMGBGM@June?$AA@ 004248b8     libucrt:nlsdata.obj
 0002:000038c0       ??_C@_04MIEPOIFP@July?$AA@ 004248c0     libucrt:nlsdata.obj
 0002:000038c8       ??_C@_06LBBHFDDG@August?$AA@ 004248c8     libucrt:nlsdata.obj
 0002:000038d0       ??_C@_09BHHEALKD@September?$AA@ 004248d0     libucrt:nlsdata.obj
 0002:000038dc       ??_C@_07JJNFCEND@October?$AA@ 004248dc     libucrt:nlsdata.obj
 0002:000038e4       ??_C@_08HCHEGEOA@November?$AA@ 004248e4     libucrt:nlsdata.obj
 0002:000038f0       ??_C@_08EDHMEBNP@December?$AA@ 004248f0     libucrt:nlsdata.obj
 0002:000038fc       ??_C@_02DEDBPAFC@AM?$AA@   004248fc     libucrt:nlsdata.obj
 0002:00003900       ??_C@_02CJNFDJBF@PM?$AA@   00424900     libucrt:nlsdata.obj
 0002:00003904       ??_C@_08BPBNCDIB@MM?1dd?1yy?$AA@ 00424904     libucrt:nlsdata.obj
 0002:00003910       ??_C@_0BE@CKGJFCPC@dddd?0?5MMMM?5dd?0?5yyyy?$AA@ 00424910     libucrt:nlsdata.obj
 0002:00003924       ??_C@_08JCCMCCIL@HH?3mm?3ss?$AA@ 00424924     libucrt:nlsdata.obj
 0002:00003930       ??_C@_17MBGCMIPB@?$AAS?$AAu?$AAn?$AA?$AA@ 00424930     libucrt:nlsdata.obj
 0002:00003938       ??_C@_17KBOMKBF@?$AAM?$AAo?$AAn?$AA?$AA@ 00424938     libucrt:nlsdata.obj
 0002:00003940       ??_C@_17BMKGEGOJ@?$AAT?$AAu?$AAe?$AA?$AA@ 00424940     libucrt:nlsdata.obj
 0002:00003948       ??_C@_17CJEDCEPE@?$AAW?$AAe?$AAd?$AA?$AA@ 00424948     libucrt:nlsdata.obj
 0002:00003950       ??_C@_17PDPHAADD@?$AAT?$AAh?$AAu?$AA?$AA@ 00424950     libucrt:nlsdata.obj
 0002:00003958       ??_C@_17HFOLPPLP@?$AAF?$AAr?$AAi?$AA?$AA@ 00424958     libucrt:nlsdata.obj
 0002:00003960       ??_C@_17GGIBDPIH@?$AAS?$AAa?$AAt?$AA?$AA@ 00424960     libucrt:nlsdata.obj
 0002:00003968       ??_C@_1O@IHNHDHPB@?$AAS?$AAu?$AAn?$AAd?$AAa?$AAy?$AA?$AA@ 00424968     libucrt:nlsdata.obj
 0002:00003978       ??_C@_1O@MMNBFLIA@?$AAM?$AAo?$AAn?$AAd?$AAa?$AAy?$AA?$AA@ 00424978     libucrt:nlsdata.obj
 0002:00003988       ??_C@_1BA@ENFBFFEK@?$AAT?$AAu?$AAe?$AAs?$AAd?$AAa?$AAy?$AA?$AA@ 00424988     libucrt:nlsdata.obj
 0002:00003998       ??_C@_1BE@EBOGMDOH@?$AAW?$AAe?$AAd?$AAn?$AAe?$AAs?$AAd?$AAa?$AAy?$AA?$AA@ 00424998     libucrt:nlsdata.obj
 0002:000039ac       ??_C@_1BC@HHMNLIHE@?$AAT?$AAh?$AAu?$AAr?$AAs?$AAd?$AAa?$AAy?$AA?$AA@ 004249ac     libucrt:nlsdata.obj
 0002:000039c0       ??_C@_1O@PDICJHAG@?$AAF?$AAr?$AAi?$AAd?$AAa?$AAy?$AA?$AA@ 004249c0     libucrt:nlsdata.obj
 0002:000039d0       ??_C@_1BC@ENMNNPAJ@?$AAS?$AAa?$AAt?$AAu?$AAr?$AAd?$AAa?$AAy?$AA?$AA@ 004249d0     libucrt:nlsdata.obj
 0002:000039e4       ??_C@_17DKNBKCHM@?$AAJ?$AAa?$AAn?$AA?$AA@ 004249e4     libucrt:nlsdata.obj
 0002:000039ec       ??_C@_17LMDJEKJN@?$AAF?$AAe?$AAb?$AA?$AA@ 004249ec     libucrt:nlsdata.obj
 0002:000039f4       ??_C@_17CKNLEDEC@?$AAM?$AAa?$AAr?$AA?$AA@ 004249f4     libucrt:nlsdata.obj
 0002:000039fc       ??_C@_17LFPOIHDD@?$AAA?$AAp?$AAr?$AA?$AA@ 004249fc     libucrt:nlsdata.obj
 0002:00003a04       ??_C@_17PNNKMEED@?$AAM?$AAa?$AAy?$AA?$AA@ 00424a04     libucrt:nlsdata.obj
 0002:00003a0c       ??_C@_17KCJGOCPB@?$AAJ?$AAu?$AAn?$AA?$AA@ 00424a0c     libucrt:nlsdata.obj
 0002:00003a14       ??_C@_17IJPCKHK@?$AAJ?$AAu?$AAl?$AA?$AA@ 00424a14     libucrt:nlsdata.obj
 0002:00003a1c       ??_C@_17ICPELBCN@?$AAA?$AAu?$AAg?$AA?$AA@ 00424a1c     libucrt:nlsdata.obj
 0002:00003a24       ??_C@_17HCHCOKMG@?$AAS?$AAe?$AAp?$AA?$AA@ 00424a24     libucrt:nlsdata.obj
 0002:00003a2c       ??_C@_17FNLKOI@?$AAO?$AAc?$AAt?$AA?$AA@ 00424a2c     libucrt:nlsdata.obj
 0002:00003a34       ??_C@_17BBDMLCIG@?$AAN?$AAo?$AAv?$AA?$AA@ 00424a34     libucrt:nlsdata.obj
 0002:00003a3c       ??_C@_17EGKACKIF@?$AAD?$AAe?$AAc?$AA?$AA@ 00424a3c     libucrt:nlsdata.obj
 0002:00003a44       ??_C@_1BA@EFMEIEBA@?$AAJ?$AAa?$AAn?$AAu?$AAa?$AAr?$AAy?$AA?$AA@ 00424a44     libucrt:nlsdata.obj
 0002:00003a54       ??_C@_1BC@JGDDFFAM@?$AAF?$AAe?$AAb?$AAr?$AAu?$AAa?$AAr?$AAy?$AA?$AA@ 00424a54     libucrt:nlsdata.obj
 0002:00003a68       ??_C@_1M@IKEENEDF@?$AAM?$AAa?$AAr?$AAc?$AAh?$AA?$AA@ 00424a68     libucrt:nlsdata.obj
 0002:00003a74       ??_C@_1M@GJNLMHFD@?$AAA?$AAp?$AAr?$AAi?$AAl?$AA?$AA@ 00424a74     libucrt:nlsdata.obj
 0002:00003a80       ??_C@_19EPFLPGAP@?$AAJ?$AAu?$AAn?$AAe?$AA?$AA@ 00424a80     libucrt:nlsdata.obj
 0002:00003a8c       ??_C@_19BIFMLPCD@?$AAJ?$AAu?$AAl?$AAy?$AA?$AA@ 00424a8c     libucrt:nlsdata.obj
 0002:00003a98       ??_C@_1O@PAHLKOAC@?$AAA?$AAu?$AAg?$AAu?$AAs?$AAt?$AA?$AA@ 00424a98     libucrt:nlsdata.obj
 0002:00003aa8       ??_C@_1BE@DKAAMBJL@?$AAS?$AAe?$AAp?$AAt?$AAe?$AAm?$AAb?$AAe?$AAr?$AA?$AA@ 00424aa8     libucrt:nlsdata.obj
 0002:00003abc       ??_C@_1BA@EPANDLNG@?$AAO?$AAc?$AAt?$AAo?$AAb?$AAe?$AAr?$AA?$AA@ 00424abc     libucrt:nlsdata.obj
 0002:00003acc       ??_C@_1BC@BGLIFPF@?$AAN?$AAo?$AAv?$AAe?$AAm?$AAb?$AAe?$AAr?$AA?$AA@ 00424acc     libucrt:nlsdata.obj
 0002:00003ae0       ??_C@_1BC@FEMKIFH@?$AAD?$AAe?$AAc?$AAe?$AAm?$AAb?$AAe?$AAr?$AA?$AA@ 00424ae0     libucrt:nlsdata.obj
 0002:00003af4       ??_C@_15ODEHAHHF@?$AAA?$AAM?$AA?$AA@ 00424af4     libucrt:nlsdata.obj
 0002:00003afc       ??_C@_15CLMNNGEL@?$AAP?$AAM?$AA?$AA@ 00424afc     libucrt:nlsdata.obj
 0002:00003b04       ??_C@_1BC@IEBCMHCM@?$AAM?$AAM?$AA?1?$AAd?$AAd?$AA?1?$AAy?$AAy?$AA?$AA@ 00424b04     libucrt:nlsdata.obj
 0002:00003b18       ??_C@_1CI@KNAKOEBC@?$AAd?$AAd?$AAd?$AAd?$AA?0?$AA?5?$AAM?$AAM?$AAM?$AAM?$AA?5?$AAd?$AAd?$AA?0?$AA?5?$AAy?$AAy?$AAy?$AAy?$AA?$AA@ 00424b18     libucrt:nlsdata.obj
 0002:00003b40       ??_C@_1BC@GDGBMEMK@?$AAH?$AAH?$AA?3?$AAm?$AAm?$AA?3?$AAs?$AAs?$AA?$AA@ 00424b40     libucrt:nlsdata.obj
 0002:00003b54       ??_C@_1M@BMHNFIME@?$AAe?$AAn?$AA?9?$AAU?$AAS?$AA?$AA@ 00424b54     libucrt:nlsdata.obj
 0002:00003b60       ___lc_time_c               00424b60     libucrt:nlsdata.obj
 0002:00003d18       ??_C@_1EG@CNNIPFIM@?$AAa?$AAp?$AAi?$AA?9?$AAm?$AAs?$AA?9?$AAw?$AAi?$AAn?$AA?9?$AAa?$AAp?$AAp?$AAm?$AAo?$AAd?$AAe?$AAl?$AA?9?$AAr?$AAu?$AAn?$AAt?$AAi?$AAm?$AAe?$AA?9?$AAl?$AA1?$AA?9?$AA1@ 00424d18     libucrt:winapi_thunks.obj
 0002:00003d60       ??_C@_1EA@JGEFHKEI@?$AAa?$AAp?$AAi?$AA?9?$AAm?$AAs?$AA?9?$AAw?$AAi?$AAn?$AA?9?$AAc?$AAo?$AAr?$AAe?$AA?9?$AAd?$AAa?$AAt?$AAe?$AAt?$AAi?$AAm?$AAe?$AA?9?$AAl?$AA1?$AA?9?$AA1?$AA?9?$AA1?$AA?$AA@ 00424d60     libucrt:winapi_thunks.obj
 0002:00003da0       ??_C@_1DI@GCIAAENM@?$AAa?$AAp?$AAi?$AA?9?$AAm?$AAs?$AA?9?$AAw?$AAi?$AAn?$AA?9?$AAc?$AAo?$AAr?$AAe?$AA?9?$AAf?$AAi?$AAl?$AAe?$AA?9?$AAl?$AA2?$AA?9?$AA1?$AA?9?$AA1?$AA?$AA@ 00424da0     libucrt:winapi_thunks.obj
 0002:00003dd8       ??_C@_1EI@MPIAOHOC@?$AAa?$AAp?$AAi?$AA?9?$AAm?$AAs?$AA?9?$AAw?$AAi?$AAn?$AA?9?$AAc?$AAo?$AAr?$AAe?$AA?9?$AAl?$AAo?$AAc?$AAa?$AAl?$AAi?$AAz?$AAa?$AAt?$AAi?$AAo?$AAn?$AA?9?$AAl?$AA1?$AA?9@ 00424dd8     libucrt:winapi_thunks.obj
 0002:00003e20       ??_C@_1FK@FPHCKFIE@?$AAa?$AAp?$AAi?$AA?9?$AAm?$AAs?$AA?9?$AAw?$AAi?$AAn?$AA?9?$AAc?$AAo?$AAr?$AAe?$AA?9?$AAl?$AAo?$AAc?$AAa?$AAl?$AAi?$AAz?$AAa?$AAt?$AAi?$AAo?$AAn?$AA?9?$AAo?$AAb?$AAs@ 00424e20     libucrt:winapi_thunks.obj
 0002:00003e80       ??_C@_1EM@DILCGIIO@?$AAa?$AAp?$AAi?$AA?9?$AAm?$AAs?$AA?9?$AAw?$AAi?$AAn?$AA?9?$AAc?$AAo?$AAr?$AAe?$AA?9?$AAp?$AAr?$AAo?$AAc?$AAe?$AAs?$AAs?$AAt?$AAh?$AAr?$AAe?$AAa?$AAd?$AAs?$AA?9?$AAl@ 00424e80     libucrt:winapi_thunks.obj
 0002:00003ecc       ??_C@_1DM@LNCGDDPN@?$AAa?$AAp?$AAi?$AA?9?$AAm?$AAs?$AA?9?$AAw?$AAi?$AAn?$AA?9?$AAc?$AAo?$AAr?$AAe?$AA?9?$AAs?$AAt?$AAr?$AAi?$AAn?$AAg?$AA?9?$AAl?$AA1?$AA?9?$AA1?$AA?9?$AA0?$AA?$AA@ 00424ecc     libucrt:winapi_thunks.obj
 0002:00003f08       ??_C@_1DO@FPAPJEMD@?$AAa?$AAp?$AAi?$AA?9?$AAm?$AAs?$AA?9?$AAw?$AAi?$AAn?$AA?9?$AAc?$AAo?$AAr?$AAe?$AA?9?$AAs?$AAy?$AAs?$AAi?$AAn?$AAf?$AAo?$AA?9?$AAl?$AA1?$AA?9?$AA2?$AA?9?$AA1?$AA?$AA@ 00424f08     libucrt:winapi_thunks.obj
 0002:00003f48       ??_C@_1DK@NDHNAHIO@?$AAa?$AAp?$AAi?$AA?9?$AAm?$AAs?$AA?9?$AAw?$AAi?$AAn?$AA?9?$AAc?$AAo?$AAr?$AAe?$AA?9?$AAw?$AAi?$AAn?$AAr?$AAt?$AA?9?$AAl?$AA1?$AA?9?$AA1?$AA?9?$AA0?$AA?$AA@ 00424f48     libucrt:winapi_thunks.obj
 0002:00003f84       ??_C@_1DM@KGHDGBCM@?$AAa?$AAp?$AAi?$AA?9?$AAm?$AAs?$AA?9?$AAw?$AAi?$AAn?$AA?9?$AAc?$AAo?$AAr?$AAe?$AA?9?$AAx?$AAs?$AAt?$AAa?$AAt?$AAe?$AA?9?$AAl?$AA2?$AA?9?$AA1?$AA?9?$AA0?$AA?$AA@ 00424f84     libucrt:winapi_thunks.obj
 0002:00003fc0       ??_C@_1EO@IJIOEFOH@?$AAa?$AAp?$AAi?$AA?9?$AAm?$AAs?$AA?9?$AAw?$AAi?$AAn?$AA?9?$AAr?$AAt?$AAc?$AAo?$AAr?$AAe?$AA?9?$AAn?$AAt?$AAu?$AAs?$AAe?$AAr?$AA?9?$AAw?$AAi?$AAn?$AAd?$AAo?$AAw?$AA?9@ 00424fc0     libucrt:winapi_thunks.obj
 0002:00004010       ??_C@_1FG@HHGEKANL@?$AAa?$AAp?$AAi?$AA?9?$AAm?$AAs?$AA?9?$AAw?$AAi?$AAn?$AA?9?$AAs?$AAe?$AAc?$AAu?$AAr?$AAi?$AAt?$AAy?$AA?9?$AAs?$AAy?$AAs?$AAt?$AAe?$AAm?$AAf?$AAu?$AAn?$AAc?$AAt?$AAi@ 00425010     libucrt:winapi_thunks.obj
 0002:00004068       ??_C@_1FG@NCKKOLKO@?$AAe?$AAx?$AAt?$AA?9?$AAm?$AAs?$AA?9?$AAw?$AAi?$AAn?$AA?9?$AAk?$AAe?$AAr?$AAn?$AAe?$AAl?$AA3?$AA2?$AA?9?$AAp?$AAa?$AAc?$AAk?$AAa?$AAg?$AAe?$AA?9?$AAc?$AAu?$AAr?$AAr@ 00425068     libucrt:winapi_thunks.obj
 0002:000040c0       ??_C@_1EG@DBIOJECG@?$AAe?$AAx?$AAt?$AA?9?$AAm?$AAs?$AA?9?$AAw?$AAi?$AAn?$AA?9?$AAn?$AAt?$AAu?$AAs?$AAe?$AAr?$AA?9?$AAd?$AAi?$AAa?$AAl?$AAo?$AAg?$AAb?$AAo?$AAx?$AA?9?$AAl?$AA1?$AA?9?$AA1@ 004250c0     libucrt:winapi_thunks.obj
 0002:00004108       ??_C@_1EO@FIHMJCLF@?$AAe?$AAx?$AAt?$AA?9?$AAm?$AAs?$AA?9?$AAw?$AAi?$AAn?$AA?9?$AAn?$AAt?$AAu?$AAs?$AAe?$AAr?$AA?9?$AAw?$AAi?$AAn?$AAd?$AAo?$AAw?$AAs?$AAt?$AAa?$AAt?$AAi?$AAo?$AAn?$AA?9@ 00425108     libucrt:winapi_thunks.obj
 0002:00004158       ??_C@_1O@BCCLBEOE@?$AAu?$AAs?$AAe?$AAr?$AA3?$AA2?$AA?$AA@ 00425158     libucrt:winapi_thunks.obj
 0002:0000416c       ??_C@_0BA@FHFNEAED@AreFileApisANSI?$AA@ 0042516c     libucrt:winapi_thunks.obj
 0002:00004184       ??_C@_0BA@IHGNDAEB@CompareStringEx?$AA@ 00425184     libucrt:winapi_thunks.obj
 0002:000041bc       ??_C@_0BE@JOGNEJCI@GetCurrentPackageId?$AA@ 004251bc     libucrt:winapi_thunks.obj
 0002:000041e0       ??_C@_0O@KKBNKAPF@LCMapStringEx?$AA@ 004251e0     libucrt:winapi_thunks.obj
 0002:000041f8       ??_C@_0BB@HBDEELFH@LocaleNameToLCID?$AA@ 004251f8     libucrt:winapi_thunks.obj
 0002:0000420c       ?ccs@?BL@???$__acrt_stdio_parse_mode@D@@YA?AU__acrt_stdio_stream_mode@@QBD@Z@4QBDB 0042520c     libucrt:openfile.obj
 0002:00004210       ?utf8_encoding@?BL@???$__acrt_stdio_parse_mode@D@@YA?AU__acrt_stdio_stream_mode@@QBD@Z@4QBDB 00425210     libucrt:openfile.obj
 0002:00004218       ?utf16_encoding@?BL@???$__acrt_stdio_parse_mode@D@@YA?AU__acrt_stdio_stream_mode@@QBD@Z@4QBDB 00425218     libucrt:openfile.obj
 0002:00004220       ?unicode_encoding@?BL@???$__acrt_stdio_parse_mode@D@@YA?AU__acrt_stdio_stream_mode@@QBD@Z@4QBDB 00425220     libucrt:openfile.obj
 0002:00004228       ___newctype                00425228     libucrt:ctype.obj
 0002:00004528       ___newclmap                00425528     libucrt:ctype.obj
 0002:000046a8       ___newcumap                004256a8     libucrt:ctype.obj
 0002:00004860       __indefinite               00425860     libucrt:87disp.obj
 0002:0000486a       __piby2                    0042586a     libucrt:87disp.obj
 0002:00004874       __piby4                    00425874     libucrt:87disp.obj
 0002:000048b0       ??_C@_1M@HPNHIDJI@?$AAj?$AAa?$AA?9?$AAJ?$AAP?$AA?$AA@ 004258b0     libucrt:mbctype.obj
 0002:000048bc       ??_C@_1M@BIBDDEMK@?$AAz?$AAh?$AA?9?$AAC?$AAN?$AA?$AA@ 004258bc     libucrt:mbctype.obj
 0002:000048c8       ??_C@_1M@JLOOOEGK@?$AAk?$AAo?$AA?9?$AAK?$AAR?$AA?$AA@ 004258c8     libucrt:mbctype.obj
 0002:000048d4       ??_C@_1M@CLNBBOPM@?$AAz?$AAh?$AA?9?$AAT?$AAW?$AA?$AA@ 004258d4     libucrt:mbctype.obj
 0002:000048e0       ??_C@_15PJPFLCCM@?$AAu?$AAk?$AA?$AA@ 004258e0     libucrt:get_qualified_locale.obj
 0002:000048e8       __d_inf                    004258e8     libucrt:util.obj
 0002:000048f0       __d_max                    004258f0     libucrt:util.obj
 0002:000048f8       __d_mzero                  004258f8     libucrt:util.obj
 0002:00004918       ?large_power_data@?1??multiply_by_power_of_ten@__crt_strtox@@YA_NAAUbig_integer@2@I@Z@4QBIB 00425918     libucrt:cfout.obj
 0002:00005220       ?large_power_indices@?1??multiply_by_power_of_ten@__crt_strtox@@YA_NAAUbig_integer@2@I@Z@4QBUunpack_index@?1??12@YA_N0I@Z@B 00426220     libucrt:cfout.obj
 0002:000052b8       ?small_powers_of_ten@?6??multiply_by_power_of_ten@__crt_strtox@@YA_NAAUbig_integer@2@I@Z@4QBIB 004262b8     libucrt:cfout.obj
 0002:000052dc       ??_C@_01GBGANLPD@0?$AA@    004262dc     libucrt:cfout.obj
 0002:000052e0       ??_C@_05DNEBIAHO@1?$CDINF?$AA@ 004262e0     libucrt:cfout.obj
 0002:000052e8       ??_C@_06IMKFLFPG@1?$CDQNAN?$AA@ 004262e8     libucrt:cfout.obj
 0002:000052f0       ??_C@_06PGGFOGJG@1?$CDSNAN?$AA@ 004262f0     libucrt:cfout.obj
 0002:000052f8       ??_C@_05PHHOCPM@1?$CDIND?$AA@ 004262f8     libucrt:cfout.obj
 0002:00005a20       ??_C@_15EMKDOKLE@?$AAa?$AAr?$AA?$AA@ 00426a20     libucrt:lcidtoname_downlevel.obj
 0002:00005a28       ??_C@_15KNPADPLH@?$AAb?$AAg?$AA?$AA@ 00426a28     libucrt:lcidtoname_downlevel.obj
 0002:00005a30       ??_C@_15EDMHLDMO@?$AAc?$AAa?$AA?$AA@ 00426a30     libucrt:lcidtoname_downlevel.obj
 0002:00005a38       ??_C@_1O@BPEAJADD@?$AAz?$AAh?$AA?9?$AAC?$AAH?$AAS?$AA?$AA@ 00426a38     libucrt:lcidtoname_downlevel.obj
 0002:00005a48       ??_C@_15LJNHCMNK@?$AAc?$AAs?$AA?$AA@ 00426a48     libucrt:lcidtoname_downlevel.obj
 0002:00005a50       ??_C@_15FOMCIDHG@?$AAd?$AAa?$AA?$AA@ 00426a50     libucrt:lcidtoname_downlevel.obj
 0002:00005a58       ??_C@_15NBKABECB@?$AAd?$AAe?$AA?$AA@ 00426a58     libucrt:lcidtoname_downlevel.obj
 0002:00005a60       ??_C@_15GHPEIIAO@?$AAe?$AAl?$AA?$AA@ 00426a60     libucrt:lcidtoname_downlevel.obj
 0002:00005a68       ??_C@_15MNPNEAIF@?$AAe?$AAn?$AA?$AA@ 00426a68     libucrt:lcidtoname_downlevel.obj
 0002:00005a70       ??_C@_15GPIOMPMH@?$AAe?$AAs?$AA?$AA@ 00426a70     libucrt:lcidtoname_downlevel.obj
 0002:00005a78       ??_C@_15NGLOAKJC@?$AAf?$AAi?$AA?$AA@ 00426a78     libucrt:lcidtoname_downlevel.obj
 0002:00005a80       ??_C@_15FBKGNKAM@?$AAf?$AAr?$AA?$AA@ 00426a80     libucrt:lcidtoname_downlevel.obj
 0002:00005a88       ??_C@_15KGGCNEFK@?$AAh?$AAe?$AA?$AA@ 00426a88     libucrt:lcidtoname_downlevel.obj
 0002:00005a90       ??_C@_15PGHLIDMF@?$AAh?$AAu?$AA?$AA@ 00426a90     libucrt:lcidtoname_downlevel.obj
 0002:00005a98       ??_C@_15BIEMAPLM@?$AAi?$AAs?$AA?$AA@ 00426a98     libucrt:lcidtoname_downlevel.obj
 0002:00005aa0       ??_C@_15IFJLDHAF@?$AAi?$AAt?$AA?$AA@ 00426aa0     libucrt:lcidtoname_downlevel.obj
 0002:00005aa8       ??_C@_15GEMIOCAG@?$AAj?$AAa?$AA?$AA@ 00426aa8     libucrt:lcidtoname_downlevel.obj
 0002:00005ab0       ??_C@_15EPELEGJA@?$AAk?$AAo?$AA?$AA@ 00426ab0     libucrt:lcidtoname_downlevel.obj
 0002:00005ab8       ??_C@_15NDDHIMN@?$AAn?$AAl?$AA?$AA@ 00426ab8     libucrt:lcidtoname_downlevel.obj
 0002:00005ac0       ??_C@_15BPIGNHCD@?$AAn?$AAo?$AA?$AA@ 00426ac0     libucrt:lcidtoname_downlevel.obj
 0002:00005ac8       ??_C@_15DEOPBLCG@?$AAp?$AAl?$AA?$AA@ 00426ac8     libucrt:lcidtoname_downlevel.obj
 0002:00005ad0       ??_C@_15KBECGEFG@?$AAp?$AAt?$AA?$AA@ 00426ad0     libucrt:lcidtoname_downlevel.obj
 0002:00005ad8       ??_C@_15GLJCBFMD@?$AAr?$AAo?$AA?$AA@ 00426ad8     libucrt:lcidtoname_downlevel.obj
 0002:00005ae0       ??_C@_15FEDGKCDI@?$AAr?$AAu?$AA?$AA@ 00426ae0     libucrt:lcidtoname_downlevel.obj
 0002:00005ae8       ??_C@_15GLKMLLHM@?$AAh?$AAr?$AA?$AA@ 00426ae8     libucrt:lcidtoname_downlevel.obj
 0002:00005af0       ??_C@_15CPKMFBDB@?$AAs?$AAk?$AA?$AA@ 00426af0     libucrt:lcidtoname_downlevel.obj
 0002:00005af8       ??_C@_15BAAIOGMK@?$AAs?$AAq?$AA?$AA@ 00426af8     libucrt:lcidtoname_downlevel.obj
 0002:00005b00       ??_C@_15INNPNOHD@?$AAs?$AAv?$AA?$AA@ 00426b00     libucrt:lcidtoname_downlevel.obj
 0002:00005b08       ??_C@_15CABMMOGH@?$AAt?$AAh?$AA?$AA@ 00426b08     libucrt:lcidtoname_downlevel.obj
 0002:00005b10       ??_C@_15BPLIHJJM@?$AAt?$AAr?$AA?$AA@ 00426b10     libucrt:lcidtoname_downlevel.obj
 0002:00005b18       ??_C@_15NEOEKKDJ@?$AAu?$AAr?$AA?$AA@ 00426b18     libucrt:lcidtoname_downlevel.obj
 0002:00005b20       ??_C@_15NFICGAJK@?$AAi?$AAd?$AA?$AA@ 00426b20     libucrt:lcidtoname_downlevel.obj
 0002:00005b28       ??_C@_15HPJPHDM@?$AAb?$AAe?$AA?$AA@ 00426b28     libucrt:lcidtoname_downlevel.obj
 0002:00005b30       ??_C@_15LCHLGJII@?$AAs?$AAl?$AA?$AA@ 00426b30     libucrt:lcidtoname_downlevel.obj
 0002:00005b38       ??_C@_15PCFJPHHO@?$AAe?$AAt?$AA?$AA@ 00426b38     libucrt:lcidtoname_downlevel.obj
 0002:00005b40       ??_C@_15HPFPGODN@?$AAl?$AAv?$AA?$AA@ 00426b40     libucrt:lcidtoname_downlevel.obj
 0002:00005b48       ??_C@_15NFFGKGLG@?$AAl?$AAt?$AA?$AA@ 00426b48     libucrt:lcidtoname_downlevel.obj
 0002:00005b50       ??_C@_15BDAKCCHN@?$AAf?$AAa?$AA?$AA@ 00426b50     libucrt:lcidtoname_downlevel.obj
 0002:00005b58       ??_C@_15NFGIAIAJ@?$AAv?$AAi?$AA?$AA@ 00426b58     libucrt:lcidtoname_downlevel.obj
 0002:00005b60       ??_C@_15LMKNDMHN@?$AAh?$AAy?$AA?$AA@ 00426b60     libucrt:lcidtoname_downlevel.obj
 0002:00005b68       ??_C@_15IJBHMCFL@?$AAa?$AAz?$AA?$AA@ 00426b68     libucrt:lcidtoname_downlevel.obj
 0002:00005b70       ??_C@_15EKOFJABL@?$AAe?$AAu?$AA?$AA@ 00426b70     libucrt:lcidtoname_downlevel.obj
 0002:00005b78       ??_C@_15BGHADCNK@?$AAm?$AAk?$AA?$AA@ 00426b78     libucrt:lcidtoname_downlevel.obj
 0002:00005b80       ??_C@_15JDNICKHM@?$AAa?$AAf?$AA?$AA@ 00426b80     libucrt:lcidtoname_downlevel.obj
 0002:00005b88       ??_C@_15KPJEDBKD@?$AAk?$AAa?$AA?$AA@ 00426b88     libucrt:lcidtoname_downlevel.obj
 0002:00005b90       ??_C@_15PDNFFFEO@?$AAf?$AAo?$AA?$AA@ 00426b90     libucrt:lcidtoname_downlevel.obj
 0002:00005b98       ??_C@_15OMLEGLOC@?$AAh?$AAi?$AA?$AA@ 00426b98     libucrt:lcidtoname_downlevel.obj
 0002:00005ba0       ??_C@_15IDNNENKK@?$AAm?$AAs?$AA?$AA@ 00426ba0     libucrt:lcidtoname_downlevel.obj
 0002:00005ba8       ??_C@_15MACJNBMH@?$AAk?$AAk?$AA?$AA@ 00426ba8     libucrt:lcidtoname_downlevel.obj
 0002:00005bb0       ??_C@_15DKDJEOND@?$AAk?$AAy?$AA?$AA@ 00426bb0     libucrt:lcidtoname_downlevel.obj
 0002:00005bb8       ??_C@_15DFGDLJBG@?$AAs?$AAw?$AA?$AA@ 00426bb8     libucrt:lcidtoname_downlevel.obj
 0002:00005bc0       ??_C@_15BBFAICNG@?$AAu?$AAz?$AA?$AA@ 00426bc0     libucrt:lcidtoname_downlevel.obj
 0002:00005bc8       ??_C@_15DKNDCGEA@?$AAt?$AAt?$AA?$AA@ 00426bc8     libucrt:lcidtoname_downlevel.obj
 0002:00005bd0       ??_C@_15MGIFMDPL@?$AAp?$AAa?$AA?$AA@ 00426bd0     libucrt:lcidtoname_downlevel.obj
 0002:00005bd8       ??_C@_15HCNDBBA@?$AAg?$AAu?$AA?$AA@ 00426bd8     libucrt:lcidtoname_downlevel.obj
 0002:00005be0       ??_C@_15FNBEIBON@?$AAt?$AAa?$AA?$AA@ 00426be0     libucrt:lcidtoname_downlevel.obj
 0002:00005be8       ??_C@_15NCHGBGLK@?$AAt?$AAe?$AA?$AA@ 00426be8     libucrt:lcidtoname_downlevel.obj
 0002:00005bf0       ??_C@_15PHPHCBPF@?$AAk?$AAn?$AA?$AA@ 00426bf0     libucrt:lcidtoname_downlevel.obj
 0002:00005bf8       ??_C@_15DLGBCKMP@?$AAm?$AAr?$AA?$AA@ 00426bf8     libucrt:lcidtoname_downlevel.obj
 0002:00005c00       ??_C@_15EABBLBFF@?$AAs?$AAa?$AA?$AA@ 00426c00     libucrt:lcidtoname_downlevel.obj
 0002:00005c08       ??_C@_15CBKOMCOI@?$AAm?$AAn?$AA?$AA@ 00426c08     libucrt:lcidtoname_downlevel.obj
 0002:00005c10       ??_C@_15CKDMCJAF@?$AAg?$AAl?$AA?$AA@ 00426c10     libucrt:lcidtoname_downlevel.obj
 0002:00005c18       ??_C@_17CNJFBPG@?$AAk?$AAo?$AAk?$AA?$AA@ 00426c18     libucrt:lcidtoname_downlevel.obj
 0002:00005c20       ??_C@_17FFBJICPL@?$AAs?$AAy?$AAr?$AA?$AA@ 00426c20     libucrt:lcidtoname_downlevel.obj
 0002:00005c28       ??_C@_17KPNDCPAF@?$AAd?$AAi?$AAv?$AA?$AA@ 00426c28     libucrt:lcidtoname_downlevel.obj
 0002:00005c30       ??_C@_11LOCGONAA@?$AA?$AA@ 00426c30     libucrt:lcidtoname_downlevel.obj
 0002:00005c34       ??_C@_1M@OKAHONE@?$AAa?$AAr?$AA?9?$AAS?$AAA?$AA?$AA@ 00426c34     libucrt:lcidtoname_downlevel.obj
 0002:00005c40       ??_C@_1M@FFFIGIGK@?$AAb?$AAg?$AA?9?$AAB?$AAG?$AA?$AA@ 00426c40     libucrt:lcidtoname_downlevel.obj
 0002:00005c4c       ??_C@_1M@BJNKEDC@?$AAc?$AAa?$AA?9?$AAE?$AAS?$AA?$AA@ 00426c4c     libucrt:lcidtoname_downlevel.obj
 0002:00005c58       ??_C@_1M@IJJHFJHA@?$AAc?$AAs?$AA?9?$AAC?$AAZ?$AA?$AA@ 00426c58     libucrt:lcidtoname_downlevel.obj
 0002:00005c64       ??_C@_1M@CLPEOBGI@?$AAd?$AAa?$AA?9?$AAD?$AAK?$AA?$AA@ 00426c64     libucrt:lcidtoname_downlevel.obj
 0002:00005c70       ??_C@_1M@MCMADGCB@?$AAd?$AAe?$AA?9?$AAD?$AAE?$AA?$AA@ 00426c70     libucrt:lcidtoname_downlevel.obj
 0002:00005c7c       ??_C@_1M@OOCKEMAM@?$AAe?$AAl?$AA?9?$AAG?$AAR?$AA?$AA@ 00426c7c     libucrt:lcidtoname_downlevel.obj
 0002:00005c88       ??_C@_1M@DDNJFGID@?$AAf?$AAi?$AA?9?$AAF?$AAI?$AA?$AA@ 00426c88     libucrt:lcidtoname_downlevel.obj
 0002:00005c94       ??_C@_1M@GLIPPMAC@?$AAf?$AAr?$AA?9?$AAF?$AAR?$AA?$AA@ 00426c94     libucrt:lcidtoname_downlevel.obj
 0002:00005ca0       ??_C@_1M@GFMCHPE@?$AAh?$AAe?$AA?9?$AAI?$AAL?$AA?$AA@ 00426ca0     libucrt:lcidtoname_downlevel.obj
 0002:00005cac       ??_C@_1M@MHLPGNKM@?$AAh?$AAu?$AA?9?$AAH?$AAU?$AA?$AA@ 00426cac     libucrt:lcidtoname_downlevel.obj
 0002:00005cb8       ??_C@_1M@LPDDNNPN@?$AAi?$AAs?$AA?9?$AAI?$AAS?$AA?$AA@ 00426cb8     libucrt:lcidtoname_downlevel.obj
 0002:00005cc4       ??_C@_1M@MADIPODN@?$AAi?$AAt?$AA?9?$AAI?$AAT?$AA?$AA@ 00426cc4     libucrt:lcidtoname_downlevel.obj
 0002:00005cd0       ??_C@_1M@IHBJJGG@?$AAn?$AAl?$AA?9?$AAN?$AAL?$AA?$AA@ 00426cd0     libucrt:lcidtoname_downlevel.obj
 0002:00005cdc       ??_C@_1M@EANAGDL@?$AAn?$AAb?$AA?9?$AAN?$AAO?$AA?$AA@ 00426cdc     libucrt:lcidtoname_downlevel.obj
 0002:00005ce8       ??_C@_1M@NEIEMEGP@?$AAp?$AAl?$AA?9?$AAP?$AAL?$AA?$AA@ 00426ce8     libucrt:lcidtoname_downlevel.obj
 0002:00005cf4       ??_C@_1M@BOCFIGEP@?$AAp?$AAt?$AA?9?$AAB?$AAR?$AA?$AA@ 00426cf4     libucrt:lcidtoname_downlevel.obj
 0002:00005d00       ??_C@_1M@IMPFOPBG@?$AAr?$AAo?$AA?9?$AAR?$AAO?$AA?$AA@ 00426d00     libucrt:lcidtoname_downlevel.obj
 0002:00005d0c       ??_C@_1M@IDNNEJMM@?$AAr?$AAu?$AA?9?$AAR?$AAU?$AA?$AA@ 00426d0c     libucrt:lcidtoname_downlevel.obj
 0002:00005d18       ??_C@_1M@LILEEOGM@?$AAh?$AAr?$AA?9?$AAH?$AAR?$AA?$AA@ 00426d18     libucrt:lcidtoname_downlevel.obj
 0002:00005d24       ??_C@_1M@FKIFEHPB@?$AAs?$AAk?$AA?9?$AAS?$AAK?$AA?$AA@ 00426d24     libucrt:lcidtoname_downlevel.obj
 0002:00005d30       ??_C@_1M@LJMAMNPJ@?$AAs?$AAq?$AA?9?$AAA?$AAL?$AA?$AA@ 00426d30     libucrt:lcidtoname_downlevel.obj
 0002:00005d3c       ??_C@_1M@GIAKDKJK@?$AAs?$AAv?$AA?9?$AAS?$AAE?$AA?$AA@ 00426d3c     libucrt:lcidtoname_downlevel.obj
 0002:00005d48       ??_C@_1M@MKJKIKCL@?$AAt?$AAh?$AA?9?$AAT?$AAH?$AA?$AA@ 00426d48     libucrt:lcidtoname_downlevel.obj
 0002:00005d54       ??_C@_1M@MFLCCMPB@?$AAt?$AAr?$AA?9?$AAT?$AAR?$AA?$AA@ 00426d54     libucrt:lcidtoname_downlevel.obj
 0002:00005d60       ??_C@_1M@OIJHDKJN@?$AAu?$AAr?$AA?9?$AAP?$AAK?$AA?$AA@ 00426d60     libucrt:lcidtoname_downlevel.obj
 0002:00005d6c       ??_C@_1M@LHIPCIEK@?$AAi?$AAd?$AA?9?$AAI?$AAD?$AA?$AA@ 00426d6c     libucrt:lcidtoname_downlevel.obj
 0002:00005d78       ??_C@_1M@MFMOBGI@?$AAu?$AAk?$AA?9?$AAU?$AAA?$AA?$AA@ 00426d78     libucrt:lcidtoname_downlevel.obj
 0002:00005d84       ??_C@_1M@OBGLJIPL@?$AAb?$AAe?$AA?9?$AAB?$AAY?$AA?$AA@ 00426d84     libucrt:lcidtoname_downlevel.obj
 0002:00005d90       ??_C@_1M@BCFAJEAD@?$AAs?$AAl?$AA?9?$AAS?$AAI?$AA?$AA@ 00426d90     libucrt:lcidtoname_downlevel.obj
 0002:00005d9c       ??_C@_1M@FKFFEDDN@?$AAe?$AAt?$AA?9?$AAE?$AAE?$AA?$AA@ 00426d9c     libucrt:lcidtoname_downlevel.obj
 0002:00005da8       ??_C@_1M@KGKKAACI@?$AAl?$AAv?$AA?9?$AAL?$AAV?$AA?$AA@ 00426da8     libucrt:lcidtoname_downlevel.obj
 0002:00005db4       ??_C@_1M@IFGBIJO@?$AAl?$AAt?$AA?9?$AAL?$AAT?$AA?$AA@ 00426db4     libucrt:lcidtoname_downlevel.obj
 0002:00005dc0       ??_C@_1M@FGEAHEDM@?$AAf?$AAa?$AA?9?$AAI?$AAR?$AA?$AA@ 00426dc0     libucrt:lcidtoname_downlevel.obj
 0002:00005dcc       ??_C@_1M@KBMAIBFN@?$AAv?$AAi?$AA?9?$AAV?$AAN?$AA?$AA@ 00426dcc     libucrt:lcidtoname_downlevel.obj
 0002:00005dd8       ??_C@_1M@GPCBKDJK@?$AAh?$AAy?$AA?9?$AAA?$AAM?$AA?$AA@ 00426dd8     libucrt:lcidtoname_downlevel.obj
 0002:00005de4       ??_C@_1BG@BECMDDJB@?$AAa?$AAz?$AA?9?$AAA?$AAZ?$AA?9?$AAL?$AAa?$AAt?$AAn?$AA?$AA@ 00426de4     libucrt:lcidtoname_downlevel.obj
 0002:00005dfc       ??_C@_1M@MAOFCAEA@?$AAe?$AAu?$AA?9?$AAE?$AAS?$AA?$AA@ 00426dfc     libucrt:lcidtoname_downlevel.obj
 0002:00005e08       ??_C@_1M@IGHABKPI@?$AAm?$AAk?$AA?9?$AAM?$AAK?$AA?$AA@ 00426e08     libucrt:lcidtoname_downlevel.obj
 0002:00005e14       ??_C@_1M@IAIGNEJG@?$AAt?$AAn?$AA?9?$AAZ?$AAA?$AA?$AA@ 00426e14     libucrt:lcidtoname_downlevel.obj
 0002:00005e20       ??_C@_1M@IIJCOJFA@?$AAx?$AAh?$AA?9?$AAZ?$AAA?$AA?$AA@ 00426e20     libucrt:lcidtoname_downlevel.obj
 0002:00005e2c       ??_C@_1M@LGPJHNJH@?$AAz?$AAu?$AA?9?$AAZ?$AAA?$AA?$AA@ 00426e2c     libucrt:lcidtoname_downlevel.obj
 0002:00005e38       ??_C@_1M@HOKAOIO@?$AAa?$AAf?$AA?9?$AAZ?$AAA?$AA?$AA@ 00426e38     libucrt:lcidtoname_downlevel.obj
 0002:00005e44       ??_C@_1M@DPCLHLIE@?$AAk?$AAa?$AA?9?$AAG?$AAE?$AA?$AA@ 00426e44     libucrt:lcidtoname_downlevel.obj
 0002:00005e50       ??_C@_1M@BLKMHJBI@?$AAf?$AAo?$AA?9?$AAF?$AAO?$AA?$AA@ 00426e50     libucrt:lcidtoname_downlevel.obj
 0002:00005e5c       ??_C@_1M@LGGJAPPB@?$AAh?$AAi?$AA?9?$AAI?$AAN?$AA?$AA@ 00426e5c     libucrt:lcidtoname_downlevel.obj
 0002:00005e68       ??_C@_1M@FIKPIHFE@?$AAm?$AAt?$AA?9?$AAM?$AAT?$AA?$AA@ 00426e68     libucrt:lcidtoname_downlevel.obj
 0002:00005e74       ??_C@_1M@HEGGPBFA@?$AAs?$AAe?$AA?9?$AAN?$AAO?$AA?$AA@ 00426e74     libucrt:lcidtoname_downlevel.obj
 0002:00005e80       ??_C@_1M@EIBJEEPA@?$AAm?$AAs?$AA?9?$AAM?$AAY?$AA?$AA@ 00426e80     libucrt:lcidtoname_downlevel.obj
 0002:00005e8c       ??_C@_1M@FHLBGMPP@?$AAk?$AAk?$AA?9?$AAK?$AAZ?$AA?$AA@ 00426e8c     libucrt:lcidtoname_downlevel.obj
 0002:00005e98       ??_C@_1M@NGJJLCGI@?$AAk?$AAy?$AA?9?$AAK?$AAG?$AA?$AA@ 00426e98     libucrt:lcidtoname_downlevel.obj
 0002:00005ea4       ??_C@_1M@GIENNBFC@?$AAs?$AAw?$AA?9?$AAK?$AAE?$AA?$AA@ 00426ea4     libucrt:lcidtoname_downlevel.obj
 0002:00005eb0       ??_C@_1BG@NDGMJIMJ@?$AAu?$AAz?$AA?9?$AAU?$AAZ?$AA?9?$AAL?$AAa?$AAt?$AAn?$AA?$AA@ 00426eb0     libucrt:lcidtoname_downlevel.obj
 0002:00005ec8       ??_C@_1M@IDCCIHBC@?$AAt?$AAt?$AA?9?$AAR?$AAU?$AA?$AA@ 00426ec8     libucrt:lcidtoname_downlevel.obj
 0002:00005ed4       ??_C@_1M@LOICPMOJ@?$AAb?$AAn?$AA?9?$AAI?$AAN?$AA?$AA@ 00426ed4     libucrt:lcidtoname_downlevel.obj
 0002:00005ee0       ??_C@_1M@KPKKNEAH@?$AAp?$AAa?$AA?9?$AAI?$AAN?$AA?$AA@ 00426ee0     libucrt:lcidtoname_downlevel.obj
 0002:00005eec       ??_C@_1M@PJGPPBOG@?$AAg?$AAu?$AA?9?$AAI?$AAN?$AA?$AA@ 00426eec     libucrt:lcidtoname_downlevel.obj
 0002:00005ef8       ??_C@_1M@KMKMOPHI@?$AAt?$AAa?$AA?9?$AAI?$AAN?$AA?$AA@ 00426ef8     libucrt:lcidtoname_downlevel.obj
 0002:00005f04       ??_C@_1M@KFEHEPAC@?$AAt?$AAe?$AA?9?$AAI?$AAN?$AA?$AA@ 00426f04     libucrt:lcidtoname_downlevel.obj
 0002:00005f10       ??_C@_1M@CDCLMGHI@?$AAk?$AAn?$AA?9?$AAI?$AAN?$AA?$AA@ 00426f10     libucrt:lcidtoname_downlevel.obj
 0002:00005f1c       ??_C@_1M@MIODLDKF@?$AAm?$AAl?$AA?9?$AAI?$AAN?$AA?$AA@ 00426f1c     libucrt:lcidtoname_downlevel.obj
 0002:00005f28       ??_C@_1M@PBIEACPO@?$AAm?$AAr?$AA?9?$AAI?$AAN?$AA?$AA@ 00426f28     libucrt:lcidtoname_downlevel.obj
 0002:00005f34       ??_C@_1M@NIDEAGPH@?$AAs?$AAa?$AA?9?$AAI?$AAN?$AA?$AA@ 00426f34     libucrt:lcidtoname_downlevel.obj
 0002:00005f40       ??_C@_1M@FHIHCBIO@?$AAm?$AAn?$AA?9?$AAM?$AAN?$AA?$AA@ 00426f40     libucrt:lcidtoname_downlevel.obj
 0002:00005f4c       ??_C@_1M@JAIJPENP@?$AAc?$AAy?$AA?9?$AAG?$AAB?$AA?$AA@ 00426f4c     libucrt:lcidtoname_downlevel.obj
 0002:00005f58       ??_C@_1M@PHGFBEPN@?$AAg?$AAl?$AA?9?$AAE?$AAS?$AA?$AA@ 00426f58     libucrt:lcidtoname_downlevel.obj
 0002:00005f64       ??_C@_1O@KPIPDNCP@?$AAk?$AAo?$AAk?$AA?9?$AAI?$AAN?$AA?$AA@ 00426f64     libucrt:lcidtoname_downlevel.obj
 0002:00005f74       ??_C@_1O@KNHJLDJA@?$AAs?$AAy?$AAr?$AA?9?$AAS?$AAY?$AA?$AA@ 00426f74     libucrt:lcidtoname_downlevel.obj
 0002:00005f84       ??_C@_1O@MKEKBLAH@?$AAd?$AAi?$AAv?$AA?9?$AAM?$AAV?$AA?$AA@ 00426f84     libucrt:lcidtoname_downlevel.obj
 0002:00005f94       ??_C@_1O@OHDCKDDF@?$AAq?$AAu?$AAz?$AA?9?$AAB?$AAO?$AA?$AA@ 00426f94     libucrt:lcidtoname_downlevel.obj
 0002:00005fa4       ??_C@_1M@LEPJNLFD@?$AAn?$AAs?$AA?9?$AAZ?$AAA?$AA?$AA@ 00426fa4     libucrt:lcidtoname_downlevel.obj
 0002:00005fb0       ??_C@_1M@OMLEIIJB@?$AAm?$AAi?$AA?9?$AAN?$AAZ?$AA?$AA@ 00426fb0     libucrt:lcidtoname_downlevel.obj
 0002:00005fbc       ??_C@_1M@PMPEAILG@?$AAa?$AAr?$AA?9?$AAI?$AAQ?$AA?$AA@ 00426fbc     libucrt:lcidtoname_downlevel.obj
 0002:00005fc8       ??_C@_1M@CNKPNOEE@?$AAd?$AAe?$AA?9?$AAC?$AAH?$AA?$AA@ 00426fc8     libucrt:lcidtoname_downlevel.obj
 0002:00005fd4       ??_C@_1M@LKMGMLKO@?$AAe?$AAn?$AA?9?$AAG?$AAB?$AA?$AA@ 00426fd4     libucrt:lcidtoname_downlevel.obj
 0002:00005fe0       ??_C@_1M@PGKJFFGL@?$AAe?$AAs?$AA?9?$AAM?$AAX?$AA?$AA@ 00426fe0     libucrt:lcidtoname_downlevel.obj
 0002:00005fec       ??_C@_1M@DNNANBDC@?$AAf?$AAr?$AA?9?$AAB?$AAE?$AA?$AA@ 00426fec     libucrt:lcidtoname_downlevel.obj
 0002:00005ff8       ??_C@_1M@HLGMDFHM@?$AAi?$AAt?$AA?9?$AAC?$AAH?$AA?$AA@ 00426ff8     libucrt:lcidtoname_downlevel.obj
 0002:00006004       ??_C@_1M@CLLBGJH@?$AAn?$AAl?$AA?9?$AAB?$AAE?$AA?$AA@ 00427004     libucrt:lcidtoname_downlevel.obj
 0002:00006010       ??_C@_1M@BODBOGLF@?$AAn?$AAn?$AA?9?$AAN?$AAO?$AA?$AA@ 00427010     libucrt:lcidtoname_downlevel.obj
 0002:0000601c       ??_C@_1M@HFFAHKAD@?$AAp?$AAt?$AA?9?$AAP?$AAT?$AA?$AA@ 0042701c     libucrt:lcidtoname_downlevel.obj
 0002:00006028       ??_C@_1BG@LNOAKHIE@?$AAs?$AAr?$AA?9?$AAS?$AAP?$AA?9?$AAL?$AAa?$AAt?$AAn?$AA?$AA@ 00427028     libucrt:lcidtoname_downlevel.obj
 0002:00006040       ??_C@_1M@HBMHBGAK@?$AAs?$AAv?$AA?9?$AAF?$AAI?$AA?$AA@ 00427040     libucrt:lcidtoname_downlevel.obj
 0002:0000604c       ??_C@_1BG@DGCJGJBE@?$AAa?$AAz?$AA?9?$AAA?$AAZ?$AA?9?$AAC?$AAy?$AAr?$AAl?$AA?$AA@ 0042704c     libucrt:lcidtoname_downlevel.obj
 0002:00006064       ??_C@_1M@KEJDAAHB@?$AAs?$AAe?$AA?9?$AAS?$AAE?$AA?$AA@ 00427064     libucrt:lcidtoname_downlevel.obj
 0002:00006070       ??_C@_1M@HEIBJJAD@?$AAm?$AAs?$AA?9?$AAB?$AAN?$AA?$AA@ 00427070     libucrt:lcidtoname_downlevel.obj
 0002:0000607c       ??_C@_1BG@PBGJMCEM@?$AAu?$AAz?$AA?9?$AAU?$AAZ?$AA?9?$AAC?$AAy?$AAr?$AAl?$AA?$AA@ 0042707c     libucrt:lcidtoname_downlevel.obj
 0002:00006094       ??_C@_1O@LAOBCMDF@?$AAq?$AAu?$AAz?$AA?9?$AAE?$AAC?$AA?$AA@ 00427094     libucrt:lcidtoname_downlevel.obj
 0002:000060a4       ??_C@_1M@POEEMAIO@?$AAa?$AAr?$AA?9?$AAE?$AAG?$AA?$AA@ 004270a4     libucrt:lcidtoname_downlevel.obj
 0002:000060b0       ??_C@_1M@EFAKDEDL@?$AAz?$AAh?$AA?9?$AAH?$AAK?$AA?$AA@ 004270b0     libucrt:lcidtoname_downlevel.obj
 0002:000060bc       ??_C@_1M@HKKIJHGI@?$AAd?$AAe?$AA?9?$AAA?$AAT?$AA?$AA@ 004270bc     libucrt:lcidtoname_downlevel.obj
 0002:000060c8       ??_C@_1M@KBFBEHJF@?$AAe?$AAn?$AA?9?$AAA?$AAU?$AA?$AA@ 004270c8     libucrt:lcidtoname_downlevel.obj
 0002:000060d4       ??_C@_1M@MNPLFAAH@?$AAe?$AAs?$AA?9?$AAE?$AAS?$AA?$AA@ 004270d4     libucrt:lcidtoname_downlevel.obj
 0002:000060e0       ??_C@_1M@HJOOJFMA@?$AAf?$AAr?$AA?9?$AAC?$AAA?$AA?$AA@ 004270e0     libucrt:lcidtoname_downlevel.obj
 0002:000060ec       ??_C@_1BG@JPOFPNAB@?$AAs?$AAr?$AA?9?$AAS?$AAP?$AA?9?$AAC?$AAy?$AAr?$AAl?$AA?$AA@ 004270ec     libucrt:lcidtoname_downlevel.obj
 0002:00006104       ??_C@_1M@LNFOCMOB@?$AAs?$AAe?$AA?9?$AAF?$AAI?$AA?$AA@ 00427104     libucrt:lcidtoname_downlevel.obj
 0002:00006110       ??_C@_1O@MGJBOAMB@?$AAq?$AAu?$AAz?$AA?9?$AAP?$AAE?$AA?$AA@ 00427110     libucrt:lcidtoname_downlevel.obj
 0002:00006120       ??_C@_1M@GJINLBOK@?$AAa?$AAr?$AA?9?$AAL?$AAY?$AA?$AA@ 00427120     libucrt:lcidtoname_downlevel.obj
 0002:0000612c       ??_C@_1M@GGMNHJNL@?$AAz?$AAh?$AA?9?$AAS?$AAG?$AA?$AA@ 0042712c     libucrt:lcidtoname_downlevel.obj
 0002:00006138       ??_C@_1M@HOIKODND@?$AAd?$AAe?$AA?9?$AAL?$AAU?$AA?$AA@ 00427138     libucrt:lcidtoname_downlevel.obj
 0002:00006144       ??_C@_1M@DDOCCGFG@?$AAe?$AAn?$AA?9?$AAC?$AAA?$AA?$AA@ 00427144     libucrt:lcidtoname_downlevel.obj
 0002:00006150       ??_C@_1M@BNOEMJLF@?$AAe?$AAs?$AA?9?$AAG?$AAT?$AA?$AA@ 00427150     libucrt:lcidtoname_downlevel.obj
 0002:0000615c       ??_C@_1M@EOGNKEK@?$AAf?$AAr?$AA?9?$AAC?$AAH?$AA?$AA@ 0042715c     libucrt:lcidtoname_downlevel.obj
 0002:00006168       ??_C@_1M@FLIDJFHL@?$AAh?$AAr?$AA?9?$AAB?$AAA?$AA?$AA@ 00427168     libucrt:lcidtoname_downlevel.obj
 0002:00006174       ??_C@_1O@FMCELNAJ@?$AAs?$AAm?$AAj?$AA?9?$AAN?$AAO?$AA?$AA@ 00427174     libucrt:lcidtoname_downlevel.obj
 0002:00006184       ??_C@_1M@JHGLJMGJ@?$AAa?$AAr?$AA?9?$AAD?$AAZ?$AA?$AA@ 00427184     libucrt:lcidtoname_downlevel.obj
 0002:00006190       ??_C@_1M@JKKFDCNP@?$AAz?$AAh?$AA?9?$AAM?$AAO?$AA?$AA@ 00427190     libucrt:lcidtoname_downlevel.obj
 0002:0000619c       ??_C@_1M@GEEFALPE@?$AAd?$AAe?$AA?9?$AAL?$AAI?$AA?$AA@ 0042719c     libucrt:lcidtoname_downlevel.obj
 0002:000061a8       ??_C@_1M@IGEOFBG@?$AAe?$AAn?$AA?9?$AAN?$AAZ?$AA?$AA@ 004271a8     libucrt:lcidtoname_downlevel.obj
 0002:000061b4       ??_C@_1M@KDBONEHP@?$AAe?$AAs?$AA?9?$AAC?$AAR?$AA?$AA@ 004271b4     libucrt:lcidtoname_downlevel.obj
 0002:000061c0       ??_C@_1M@FHMDOHNN@?$AAf?$AAr?$AA?9?$AAL?$AAU?$AA?$AA@ 004271c0     libucrt:lcidtoname_downlevel.obj
 0002:000061cc       ??_C@_1BG@NFKKMAFG@?$AAb?$AAs?$AA?9?$AAB?$AAA?$AA?9?$AAL?$AAa?$AAt?$AAn?$AA?$AA@ 004271cc     libucrt:lcidtoname_downlevel.obj
 0002:000061e4       ??_C@_1O@IMNBEMCI@?$AAs?$AAm?$AAj?$AA?9?$AAS?$AAE?$AA?$AA@ 004271e4     libucrt:lcidtoname_downlevel.obj
 0002:000061f4       ??_C@_1M@DHHMBNDP@?$AAa?$AAr?$AA?9?$AAM?$AAA?$AA?$AA@ 004271f4     libucrt:lcidtoname_downlevel.obj
 0002:00006200       ??_C@_1M@BNBLJCGH@?$AAe?$AAn?$AA?9?$AAI?$AAE?$AA?$AA@ 00427200     libucrt:lcidtoname_downlevel.obj
 0002:0000620c       ??_C@_1M@GEPAFMDL@?$AAe?$AAs?$AA?9?$AAP?$AAA?$AA?$AA@ 0042720c     libucrt:lcidtoname_downlevel.obj
 0002:00006218       ??_C@_1M@OJONDMDL@?$AAf?$AAr?$AA?9?$AAM?$AAC?$AA?$AA@ 00427218     libucrt:lcidtoname_downlevel.obj
 0002:00006224       ??_C@_1BG@OBCNFJB@?$AAs?$AAr?$AA?9?$AAB?$AAA?$AA?9?$AAL?$AAa?$AAt?$AAn?$AA?$AA@ 00427224     libucrt:lcidtoname_downlevel.obj
 0002:0000623c       ??_C@_1O@KEMEEGPO@?$AAs?$AAm?$AAa?$AA?9?$AAN?$AAO?$AA?$AA@ 0042723c     libucrt:lcidtoname_downlevel.obj
 0002:0000624c       ??_C@_1M@ELMGFODK@?$AAa?$AAr?$AA?9?$AAT?$AAN?$AA?$AA@ 0042724c     libucrt:lcidtoname_downlevel.obj
 0002:00006258       ??_C@_1M@BHDLHFAF@?$AAe?$AAn?$AA?9?$AAZ?$AAA?$AA?$AA@ 00427258     libucrt:lcidtoname_downlevel.obj
 0002:00006264       ??_C@_1M@BMGIGLIF@?$AAe?$AAs?$AA?9?$AAD?$AAO?$AA?$AA@ 00427264     libucrt:lcidtoname_downlevel.obj
 0002:00006270       ??_C@_1BG@CMBHIPBE@?$AAs?$AAr?$AA?9?$AAB?$AAA?$AA?9?$AAC?$AAy?$AAr?$AAl?$AA?$AA@ 00427270     libucrt:lcidtoname_downlevel.obj
 0002:00006288       ??_C@_1O@HEDBLHNP@?$AAs?$AAm?$AAa?$AA?9?$AAS?$AAE?$AA?$AA@ 00427288     libucrt:lcidtoname_downlevel.obj
 0002:00006298       ??_C@_1M@DAGCADIM@?$AAa?$AAr?$AA?9?$AAO?$AAM?$AA?$AA@ 00427298     libucrt:lcidtoname_downlevel.obj
 0002:000062a4       ??_C@_1M@FODLMICG@?$AAe?$AAn?$AA?9?$AAJ?$AAM?$AA?$AA@ 004272a4     libucrt:lcidtoname_downlevel.obj
 0002:000062b0       ??_C@_1M@DNMLCIHB@?$AAe?$AAs?$AA?9?$AAV?$AAE?$AA?$AA@ 004272b0     libucrt:lcidtoname_downlevel.obj
 0002:000062bc       ??_C@_1O@EOKHMKJK@?$AAs?$AAm?$AAs?$AA?9?$AAF?$AAI?$AA?$AA@ 004272bc     libucrt:lcidtoname_downlevel.obj
 0002:000062cc       ??_C@_1M@CAFJMKOF@?$AAa?$AAr?$AA?9?$AAY?$AAE?$AA?$AA@ 004272cc     libucrt:lcidtoname_downlevel.obj
 0002:000062d8       ??_C@_1M@CBFHIJLI@?$AAe?$AAn?$AA?9?$AAC?$AAB?$AA?$AA@ 004272d8     libucrt:lcidtoname_downlevel.obj
 0002:000062e4       ??_C@_1M@BGNFLDN@?$AAe?$AAs?$AA?9?$AAC?$AAO?$AA?$AA@ 004272e4     libucrt:lcidtoname_downlevel.obj
 0002:000062f0       ??_C@_1O@JMPHMAMC@?$AAs?$AAm?$AAn?$AA?9?$AAF?$AAI?$AA?$AA@ 004272f0     libucrt:lcidtoname_downlevel.obj
 0002:00006300       ??_C@_1M@JLANABKE@?$AAa?$AAr?$AA?9?$AAS?$AAY?$AA?$AA@ 00427300     libucrt:lcidtoname_downlevel.obj
 0002:0000630c       ??_C@_1M@HPKGCFGN@?$AAe?$AAn?$AA?9?$AAB?$AAZ?$AA?$AA@ 0042730c     libucrt:lcidtoname_downlevel.obj
 0002:00006318       ??_C@_1M@OLJCMLGM@?$AAe?$AAs?$AA?9?$AAP?$AAE?$AA?$AA@ 00427318     libucrt:lcidtoname_downlevel.obj
 0002:00006324       ??_C@_1M@MKKGFKLE@?$AAa?$AAr?$AA?9?$AAJ?$AAO?$AA?$AA@ 00427324     libucrt:lcidtoname_downlevel.obj
 0002:00006330       ??_C@_1M@EKPGLDNI@?$AAe?$AAn?$AA?9?$AAT?$AAT?$AA?$AA@ 00427330     libucrt:lcidtoname_downlevel.obj
 0002:0000633c       ??_C@_1M@OONGHFHE@?$AAe?$AAs?$AA?9?$AAA?$AAR?$AA?$AA@ 0042733c     libucrt:lcidtoname_downlevel.obj
 0002:00006348       ??_C@_1M@OOJFGBHE@?$AAa?$AAr?$AA?9?$AAL?$AAB?$AA?$AA@ 00427348     libucrt:lcidtoname_downlevel.obj
 0002:00006354       ??_C@_1M@GCEJHNEG@?$AAe?$AAn?$AA?9?$AAZ?$AAW?$AA?$AA@ 00427354     libucrt:lcidtoname_downlevel.obj
 0002:00006360       ??_C@_1M@JNOCAHJI@?$AAe?$AAs?$AA?9?$AAE?$AAC?$AA?$AA@ 00427360     libucrt:lcidtoname_downlevel.obj
 0002:0000636c       ??_C@_1M@JEFHPGGB@?$AAa?$AAr?$AA?9?$AAK?$AAW?$AA?$AA@ 0042736c     libucrt:lcidtoname_downlevel.obj
 0002:00006378       ??_C@_1M@MLKIBJOJ@?$AAe?$AAn?$AA?9?$AAP?$AAH?$AA?$AA@ 00427378     libucrt:lcidtoname_downlevel.obj
 0002:00006384       ??_C@_1M@BDNIPEND@?$AAe?$AAs?$AA?9?$AAC?$AAL?$AA?$AA@ 00427384     libucrt:lcidtoname_downlevel.obj
 0002:00006390       ??_C@_1M@MPNMEKBD@?$AAa?$AAr?$AA?9?$AAA?$AAE?$AA?$AA@ 00427390     libucrt:lcidtoname_downlevel.obj
 0002:0000639c       ??_C@_1M@KBJALCPI@?$AAe?$AAs?$AA?9?$AAU?$AAY?$AA?$AA@ 0042739c     libucrt:lcidtoname_downlevel.obj
 0002:000063a8       ??_C@_1M@LLCCOAGA@?$AAa?$AAr?$AA?9?$AAB?$AAH?$AA?$AA@ 004273a8     libucrt:lcidtoname_downlevel.obj
 0002:000063b4       ??_C@_1M@PBFNCDEL@?$AAe?$AAs?$AA?9?$AAP?$AAY?$AA?$AA@ 004273b4     libucrt:lcidtoname_downlevel.obj
 0002:000063c0       ??_C@_1M@EDGINPNP@?$AAa?$AAr?$AA?9?$AAQ?$AAA?$AA?$AA@ 004273c0     libucrt:lcidtoname_downlevel.obj
 0002:000063cc       ??_C@_1M@MKDBIIJI@?$AAe?$AAs?$AA?9?$AAB?$AAO?$AA?$AA@ 004273cc     libucrt:lcidtoname_downlevel.obj
 0002:000063d8       ??_C@_1M@CPKKEBLD@?$AAe?$AAs?$AA?9?$AAS?$AAV?$AA?$AA@ 004273d8     libucrt:lcidtoname_downlevel.obj
 0002:000063e4       ??_C@_1M@NDBGMMJL@?$AAe?$AAs?$AA?9?$AAH?$AAN?$AA?$AA@ 004273e4     libucrt:lcidtoname_downlevel.obj
 0002:000063f0       ??_C@_1M@JIJIBHDP@?$AAe?$AAs?$AA?9?$AAN?$AAI?$AA?$AA@ 004273f0     libucrt:lcidtoname_downlevel.obj
 0002:000063fc       ??_C@_1M@CGFMKEEK@?$AAe?$AAs?$AA?9?$AAP?$AAR?$AA?$AA@ 004273fc     libucrt:lcidtoname_downlevel.obj
 0002:00006408       ??_C@_1O@ICJHKIIK@?$AAz?$AAh?$AA?9?$AAC?$AAH?$AAT?$AA?$AA@ 00427408     libucrt:lcidtoname_downlevel.obj
 0002:00006418       ??_C@_15CLNEJCE@?$AAs?$AAr?$AA?$AA@ 00427418     libucrt:lcidtoname_downlevel.obj
 0002:00006b40       ??_C@_1M@KAHEKEIG@?$AAa?$AAf?$AA?9?$AAz?$AAa?$AA?$AA@ 00427b40     libucrt:lcidtoname_downlevel.obj
 0002:00006b4c       ??_C@_1M@GIECOABL@?$AAa?$AAr?$AA?9?$AAa?$AAe?$AA?$AA@ 00427b4c     libucrt:lcidtoname_downlevel.obj
 0002:00006b58       ??_C@_1M@BMLMEKGI@?$AAa?$AAr?$AA?9?$AAb?$AAh?$AA?$AA@ 00427b58     libucrt:lcidtoname_downlevel.obj
 0002:00006b64       ??_C@_1M@DAPFDGGB@?$AAa?$AAr?$AA?9?$AAd?$AAz?$AA?$AA@ 00427b64     libucrt:lcidtoname_downlevel.obj
 0002:00006b70       ??_C@_1M@FJNKGKIG@?$AAa?$AAr?$AA?9?$AAe?$AAg?$AA?$AA@ 00427b70     libucrt:lcidtoname_downlevel.obj
 0002:00006b7c       ??_C@_1M@FLGKKCLO@?$AAa?$AAr?$AA?9?$AAi?$AAq?$AA?$AA@ 00427b7c     libucrt:lcidtoname_downlevel.obj
 0002:00006b88       ??_C@_1M@GNDIPALM@?$AAa?$AAr?$AA?9?$AAj?$AAo?$AA?$AA@ 00427b88     libucrt:lcidtoname_downlevel.obj
 0002:00006b94       ??_C@_1M@DDMJFMGJ@?$AAa?$AAr?$AA?9?$AAk?$AAw?$AA?$AA@ 00427b94     libucrt:lcidtoname_downlevel.obj
 0002:00006ba0       ??_C@_1M@EJALMLHM@?$AAa?$AAr?$AA?9?$AAl?$AAb?$AA?$AA@ 00427ba0     libucrt:lcidtoname_downlevel.obj
 0002:00006bac       ??_C@_1M@MOBDBLOC@?$AAa?$AAr?$AA?9?$AAl?$AAy?$AA?$AA@ 00427bac     libucrt:lcidtoname_downlevel.obj
 0002:00006bb8       ??_C@_1M@JAOCLHDH@?$AAa?$AAr?$AA?9?$AAm?$AAa?$AA?$AA@ 00427bb8     libucrt:lcidtoname_downlevel.obj
 0002:00006bc4       ??_C@_1M@JHPMKJIE@?$AAa?$AAr?$AA?9?$AAo?$AAm?$AA?$AA@ 00427bc4     libucrt:lcidtoname_downlevel.obj
 0002:00006bd0       ??_C@_1M@OEPGHFNH@?$AAa?$AAr?$AA?9?$AAq?$AAa?$AA?$AA@ 00427bd0     libucrt:lcidtoname_downlevel.obj
 0002:00006bdc       ??_C@_1M@KJDONENM@?$AAa?$AAr?$AA?9?$AAs?$AAa?$AA?$AA@ 00427bdc     libucrt:lcidtoname_downlevel.obj
 0002:00006be8       ??_C@_1M@DMJDKLKM@?$AAa?$AAr?$AA?9?$AAs?$AAy?$AA?$AA@ 00427be8     libucrt:lcidtoname_downlevel.obj
 0002:00006bf4       ??_C@_1M@OMFIPEDC@?$AAa?$AAr?$AA?9?$AAt?$AAn?$AA?$AA@ 00427bf4     libucrt:lcidtoname_downlevel.obj
 0002:00006c00       ??_C@_1M@IHMHGAON@?$AAa?$AAr?$AA?9?$AAy?$AAe?$AA?$AA@ 00427c00     libucrt:lcidtoname_downlevel.obj
 0002:00006c0c       ??_C@_1BG@KDCPGJGB@?$AAa?$AAz?$AA?9?$AAa?$AAz?$AA?9?$AAc?$AAy?$AAr?$AAl?$AA?$AA@ 00427c0c     libucrt:lcidtoname_downlevel.obj
 0002:00006c24       ??_C@_1BG@IBCKDDOE@?$AAa?$AAz?$AA?9?$AAa?$AAz?$AA?9?$AAl?$AAa?$AAt?$AAn?$AA?$AA@ 00427c24     libucrt:lcidtoname_downlevel.obj
 0002:00006c3c       ??_C@_1M@EGPFDCPD@?$AAb?$AAe?$AA?9?$AAb?$AAy?$AA?$AA@ 00427c3c     libucrt:lcidtoname_downlevel.obj
 0002:00006c48       ??_C@_1M@PCMGMCGC@?$AAb?$AAg?$AA?9?$AAb?$AAg?$AA?$AA@ 00427c48     libucrt:lcidtoname_downlevel.obj
 0002:00006c54       ??_C@_1M@BJBMFGOB@?$AAb?$AAn?$AA?9?$AAi?$AAn?$AA?$AA@ 00427c54     libucrt:lcidtoname_downlevel.obj
 0002:00006c60       ??_C@_1BG@EAKMMACD@?$AAb?$AAs?$AA?9?$AAb?$AAa?$AA?9?$AAl?$AAa?$AAt?$AAn?$AA?$AA@ 00427c60     libucrt:lcidtoname_downlevel.obj
 0002:00006c78       ??_C@_1M@KGADAODK@?$AAc?$AAa?$AA?9?$AAe?$AAs?$AA?$AA@ 00427c78     libucrt:lcidtoname_downlevel.obj
 0002:00006c84       ??_C@_1M@COAJPDHI@?$AAc?$AAs?$AA?9?$AAc?$AAz?$AA?$AA@ 00427c84     libucrt:lcidtoname_downlevel.obj
 0002:00006c90       ??_C@_1M@DHBHFONH@?$AAc?$AAy?$AA?9?$AAg?$AAb?$AA?$AA@ 00427c90     libucrt:lcidtoname_downlevel.obj
 0002:00006c9c       ??_C@_1M@IMGKELGA@?$AAd?$AAa?$AA?9?$AAd?$AAk?$AA?$AA@ 00427c9c     libucrt:lcidtoname_downlevel.obj
 0002:00006ca8       ??_C@_1M@NNDGDNGA@?$AAd?$AAe?$AA?9?$AAa?$AAt?$AA?$AA@ 00427ca8     libucrt:lcidtoname_downlevel.obj
 0002:00006cb4       ??_C@_1M@IKDBHEEM@?$AAd?$AAe?$AA?9?$AAc?$AAh?$AA?$AA@ 00427cb4     libucrt:lcidtoname_downlevel.obj
 0002:00006cc0       ??_C@_1M@GFFOJMCJ@?$AAd?$AAe?$AA?9?$AAd?$AAe?$AA?$AA@ 00427cc0     libucrt:lcidtoname_downlevel.obj
 0002:00006ccc       ??_C@_1M@MDNLKBPM@?$AAd?$AAe?$AA?9?$AAl?$AAi?$AA?$AA@ 00427ccc     libucrt:lcidtoname_downlevel.obj
 0002:00006cd8       ??_C@_1M@NJBEEJNL@?$AAd?$AAe?$AA?9?$AAl?$AAu?$AA?$AA@ 00427cd8     libucrt:lcidtoname_downlevel.obj
 0002:00006ce4       ??_C@_1O@GNNELBAP@?$AAd?$AAi?$AAv?$AA?9?$AAm?$AAv?$AA?$AA@ 00427ce4     libucrt:lcidtoname_downlevel.obj
 0002:00006cf4       ??_C@_1M@EJLEOGAE@?$AAe?$AAl?$AA?9?$AAg?$AAr?$AA?$AA@ 00427cf4     libucrt:lcidtoname_downlevel.obj
 0002:00006d00       ??_C@_1M@GMPONJN@?$AAe?$AAn?$AA?9?$AAa?$AAu?$AA?$AA@ 00427d00     libucrt:lcidtoname_downlevel.obj
 0002:00006d0c       ??_C@_1M@NIDIIPGF@?$AAe?$AAn?$AA?9?$AAb?$AAz?$AA?$AA@ 00427d0c     libucrt:lcidtoname_downlevel.obj
 0002:00006d18       ??_C@_1M@JEHMIMFO@?$AAe?$AAn?$AA?9?$AAc?$AAa?$AA?$AA@ 00427d18     libucrt:lcidtoname_downlevel.obj
 0002:00006d24       ??_C@_1M@IGMJCDLA@?$AAe?$AAn?$AA?9?$AAc?$AAb?$AA?$AA@ 00427d24     libucrt:lcidtoname_downlevel.obj
 0002:00006d30       ??_C@_1M@BNFIGBKG@?$AAe?$AAn?$AA?9?$AAg?$AAb?$AA?$AA@ 00427d30     libucrt:lcidtoname_downlevel.obj
 0002:00006d3c       ??_C@_1M@LKIFDIGP@?$AAe?$AAn?$AA?9?$AAi?$AAe?$AA?$AA@ 00427d3c     libucrt:lcidtoname_downlevel.obj
 0002:00006d48       ??_C@_1M@PJKFGCCO@?$AAe?$AAn?$AA?9?$AAj?$AAm?$AA?$AA@ 00427d48     libucrt:lcidtoname_downlevel.obj
 0002:00006d54       ??_C@_1M@KPPKEPBO@?$AAe?$AAn?$AA?9?$AAn?$AAz?$AA?$AA@ 00427d54     libucrt:lcidtoname_downlevel.obj
 0002:00006d60       ??_C@_1M@GMDGLDOB@?$AAe?$AAn?$AA?9?$AAp?$AAh?$AA?$AA@ 00427d60     libucrt:lcidtoname_downlevel.obj
 0002:00006d6c       ??_C@_1M@ONGIBJNA@?$AAe?$AAn?$AA?9?$AAt?$AAt?$AA?$AA@ 00427d6c     libucrt:lcidtoname_downlevel.obj
 0002:00006d78       ??_C@_1M@LLODPCMM@?$AAe?$AAn?$AA?9?$AAu?$AAs?$AA?$AA@ 00427d78     libucrt:lcidtoname_downlevel.obj
 0002:00006d84       ??_C@_1M@LAKFNPAN@?$AAe?$AAn?$AA?9?$AAz?$AAa?$AA?$AA@ 00427d84     libucrt:lcidtoname_downlevel.obj
 0002:00006d90       ??_C@_1M@MFNHNHEO@?$AAe?$AAn?$AA?9?$AAz?$AAw?$AA?$AA@ 00427d90     libucrt:lcidtoname_downlevel.obj
 0002:00006d9c       ??_C@_1M@EJEINPHM@?$AAe?$AAs?$AA?9?$AAa?$AAr?$AA?$AA@ 00427d9c     libucrt:lcidtoname_downlevel.obj
 0002:00006da8       ??_C@_1M@GNKPCCJA@?$AAe?$AAs?$AA?9?$AAb?$AAo?$AA?$AA@ 00427da8     libucrt:lcidtoname_downlevel.obj
 0002:00006db4       ??_C@_1M@LEEGFONL@?$AAe?$AAs?$AA?9?$AAc?$AAl?$AA?$AA@ 00427db4     libucrt:lcidtoname_downlevel.obj
 0002:00006dc0       ??_C@_1M@KGPDPBDF@?$AAe?$AAs?$AA?9?$AAc?$AAo?$AA?$AA@ 00427dc0     libucrt:lcidtoname_downlevel.obj
 0002:00006dcc       ??_C@_1M@EIAHOHH@?$AAe?$AAs?$AA?9?$AAc?$AAr?$AA?$AA@ 00427dcc     libucrt:lcidtoname_downlevel.obj
 0002:00006dd8       ??_C@_1M@LLPGMBIN@?$AAe?$AAs?$AA?9?$AAd?$AAo?$AA?$AA@ 00427dd8     libucrt:lcidtoname_downlevel.obj
 0002:00006de4       ??_C@_1M@DKHMKNJA@?$AAe?$AAs?$AA?9?$AAe?$AAc?$AA?$AA@ 00427de4     libucrt:lcidtoname_downlevel.obj
 0002:00006df0       ??_C@_1M@GKGFPKAP@?$AAe?$AAs?$AA?9?$AAe?$AAs?$AA?$AA@ 00427df0     libucrt:lcidtoname_downlevel.obj
 0002:00006dfc       ??_C@_1M@LKHKGDLN@?$AAe?$AAs?$AA?9?$AAg?$AAt?$AA?$AA@ 00427dfc     libucrt:lcidtoname_downlevel.obj
 0002:00006e08       ??_C@_1M@HEIIGGJD@?$AAe?$AAs?$AA?9?$AAh?$AAn?$AA?$AA@ 00427e08     libucrt:lcidtoname_downlevel.obj
 0002:00006e14       ??_C@_1M@FBDHPPGD@?$AAe?$AAs?$AA?9?$AAm?$AAx?$AA?$AA@ 00427e14     libucrt:lcidtoname_downlevel.obj
 0002:00006e20       ??_C@_1M@DPAGLNDH@?$AAe?$AAs?$AA?9?$AAn?$AAi?$AA?$AA@ 00427e20     libucrt:lcidtoname_downlevel.obj
 0002:00006e2c       ??_C@_1M@MDGOPGDD@?$AAe?$AAs?$AA?9?$AAp?$AAa?$AA?$AA@ 00427e2c     libucrt:lcidtoname_downlevel.obj
 0002:00006e38       ??_C@_1M@EMAMGBGE@?$AAe?$AAs?$AA?9?$AAp?$AAe?$AA?$AA@ 00427e38     libucrt:lcidtoname_downlevel.obj
 0002:00006e44       ??_C@_1M@IBMCAOEC@?$AAe?$AAs?$AA?9?$AAp?$AAr?$AA?$AA@ 00427e44     libucrt:lcidtoname_downlevel.obj
 0002:00006e50       ??_C@_1M@FGMDIJED@?$AAe?$AAs?$AA?9?$AAp?$AAy?$AA?$AA@ 00427e50     libucrt:lcidtoname_downlevel.obj
 0002:00006e5c       ??_C@_1M@IIDEOLLL@?$AAe?$AAs?$AA?9?$AAs?$AAv?$AA?$AA@ 00427e5c     libucrt:lcidtoname_downlevel.obj
 0002:00006e68       ??_C@_1M@GAOBIPA@?$AAe?$AAs?$AA?9?$AAu?$AAy?$AA?$AA@ 00427e68     libucrt:lcidtoname_downlevel.obj
 0002:00006e74       ??_C@_1M@JKFFICHJ@?$AAe?$AAs?$AA?9?$AAv?$AAe?$AA?$AA@ 00427e74     libucrt:lcidtoname_downlevel.obj
 0002:00006e80       ??_C@_1M@PNMLOJDF@?$AAe?$AAt?$AA?9?$AAe?$AAe?$AA?$AA@ 00427e80     libucrt:lcidtoname_downlevel.obj
 0002:00006e8c       ??_C@_1M@GHHLIKEI@?$AAe?$AAu?$AA?9?$AAe?$AAs?$AA?$AA@ 00427e8c     libucrt:lcidtoname_downlevel.obj
 0002:00006e98       ??_C@_1M@PBNONODE@?$AAf?$AAa?$AA?9?$AAi?$AAr?$AA?$AA@ 00427e98     libucrt:lcidtoname_downlevel.obj
 0002:00006ea4       ??_C@_1M@JEEHPMIL@?$AAf?$AAi?$AA?9?$AAf?$AAi?$AA?$AA@ 00427ea4     libucrt:lcidtoname_downlevel.obj
 0002:00006eb0       ??_C@_1M@LMDCNDBA@?$AAf?$AAo?$AA?9?$AAf?$AAo?$AA?$AA@ 00427eb0     libucrt:lcidtoname_downlevel.obj
 0002:00006ebc       ??_C@_1M@JKEOHLDK@?$AAf?$AAr?$AA?9?$AAb?$AAe?$AA?$AA@ 00427ebc     libucrt:lcidtoname_downlevel.obj
 0002:00006ec8       ??_C@_1M@NOHADPMI@?$AAf?$AAr?$AA?9?$AAc?$AAa?$AA?$AA@ 00427ec8     libucrt:lcidtoname_downlevel.obj
 0002:00006ed4       ??_C@_1M@KDHIHAEC@?$AAf?$AAr?$AA?9?$AAc?$AAh?$AA?$AA@ 00427ed4     libucrt:lcidtoname_downlevel.obj
 0002:00006ee0       ??_C@_1M@MMBBFGAK@?$AAf?$AAr?$AA?9?$AAf?$AAr?$AA?$AA@ 00427ee0     libucrt:lcidtoname_downlevel.obj
 0002:00006eec       ??_C@_1M@PAFNENNF@?$AAf?$AAr?$AA?9?$AAl?$AAu?$AA?$AA@ 00427eec     libucrt:lcidtoname_downlevel.obj
 0002:00006ef8       ??_C@_1M@EOHDJGDD@?$AAf?$AAr?$AA?9?$AAm?$AAc?$AA?$AA@ 00427ef8     libucrt:lcidtoname_downlevel.obj
 0002:00006f04       ??_C@_1M@FAPLLOPF@?$AAg?$AAl?$AA?9?$AAe?$AAs?$AA?$AA@ 00427f04     libucrt:lcidtoname_downlevel.obj
 0002:00006f10       ??_C@_1M@FOPBFLOO@?$AAg?$AAu?$AA?9?$AAi?$AAn?$AA?$AA@ 00427f10     libucrt:lcidtoname_downlevel.obj
 0002:00006f1c       ??_C@_1M@KBMCINPM@?$AAh?$AAe?$AA?9?$AAi?$AAl?$AA?$AA@ 00427f1c     libucrt:lcidtoname_downlevel.obj
 0002:00006f28       ??_C@_1M@BBPHKFPJ@?$AAh?$AAi?$AA?9?$AAi?$AAn?$AA?$AA@ 00427f28     libucrt:lcidtoname_downlevel.obj
 0002:00006f34       ??_C@_1M@PMBNDPHD@?$AAh?$AAr?$AA?9?$AAb?$AAa?$AA?$AA@ 00427f34     libucrt:lcidtoname_downlevel.obj
 0002:00006f40       ??_C@_1M@BPCKOEGE@?$AAh?$AAr?$AA?9?$AAh?$AAr?$AA?$AA@ 00427f40     libucrt:lcidtoname_downlevel.obj
 0002:00006f4c       ??_C@_1M@GACBMHKE@?$AAh?$AAu?$AA?9?$AAh?$AAu?$AA?$AA@ 00427f4c     libucrt:lcidtoname_downlevel.obj
 0002:00006f58       ??_C@_1M@MILPAJJC@?$AAh?$AAy?$AA?9?$AAa?$AAm?$AA?$AA@ 00427f58     libucrt:lcidtoname_downlevel.obj
 0002:00006f64       ??_C@_1M@BABBICEC@?$AAi?$AAd?$AA?9?$AAi?$AAd?$AA?$AA@ 00427f64     libucrt:lcidtoname_downlevel.obj
 0002:00006f70       ??_C@_1M@BIKNHHPF@?$AAi?$AAs?$AA?9?$AAi?$AAs?$AA?$AA@ 00427f70     libucrt:lcidtoname_downlevel.obj
 0002:00006f7c       ??_C@_1M@NMPCJPHE@?$AAi?$AAt?$AA?9?$AAc?$AAh?$AA?$AA@ 00427f7c     libucrt:lcidtoname_downlevel.obj
 0002:00006f88       ??_C@_1M@GHKGFEDF@?$AAi?$AAt?$AA?9?$AAi?$AAt?$AA?$AA@ 00427f88     libucrt:lcidtoname_downlevel.obj
 0002:00006f94       ??_C@_1M@NIEJCJJA@?$AAj?$AAa?$AA?9?$AAj?$AAp?$AA?$AA@ 00427f94     libucrt:lcidtoname_downlevel.obj
 0002:00006fa0       ??_C@_1M@JILFNBIM@?$AAk?$AAa?$AA?9?$AAg?$AAe?$AA?$AA@ 00427fa0     libucrt:lcidtoname_downlevel.obj
 0002:00006fac       ??_C@_1M@PACPMGPH@?$AAk?$AAk?$AA?9?$AAk?$AAz?$AA?$AA@ 00427fac     libucrt:lcidtoname_downlevel.obj
 0002:00006fb8       ??_C@_1M@IELFGMHA@?$AAk?$AAn?$AA?9?$AAi?$AAn?$AA?$AA@ 00427fb8     libucrt:lcidtoname_downlevel.obj
 0002:00006fc4       ??_C@_1O@IBBJHCH@?$AAk?$AAo?$AAk?$AA?9?$AAi?$AAn?$AA?$AA@ 00427fc4     libucrt:lcidtoname_downlevel.obj
 0002:00006fd4       ??_C@_1M@DMHAEOGC@?$AAk?$AAo?$AA?9?$AAk?$AAr?$AA?$AA@ 00427fd4     libucrt:lcidtoname_downlevel.obj
 0002:00006fe0       ??_C@_1M@HBAHBIGA@?$AAk?$AAy?$AA?9?$AAk?$AAg?$AA?$AA@ 00427fe0     libucrt:lcidtoname_downlevel.obj
 0002:00006fec       ??_C@_1M@KPMILCJG@?$AAl?$AAt?$AA?9?$AAl?$AAt?$AA?$AA@ 00427fec     libucrt:lcidtoname_downlevel.obj
 0002:00006ff8       ??_C@_1M@BDEKKCA@?$AAl?$AAv?$AA?9?$AAl?$AAv?$AA?$AA@ 00427ff8     libucrt:lcidtoname_downlevel.obj
 0002:00007004       ??_C@_1M@ELCKCCJJ@?$AAm?$AAi?$AA?9?$AAn?$AAz?$AA?$AA@ 00428004     libucrt:lcidtoname_downlevel.obj
 0002:00007010       ??_C@_1M@CBOOLAPA@?$AAm?$AAk?$AA?9?$AAm?$AAk?$AA?$AA@ 00428010     libucrt:lcidtoname_downlevel.obj
 0002:0000701c       ??_C@_1M@GPHNBJKN@?$AAm?$AAl?$AA?9?$AAi?$AAn?$AA?$AA@ 0042801c     libucrt:lcidtoname_downlevel.obj
 0002:00007028       ??_C@_1M@PABJILIG@?$AAm?$AAn?$AA?9?$AAm?$AAn?$AA?$AA@ 00428028     libucrt:lcidtoname_downlevel.obj
 0002:00007034       ??_C@_1M@FGBKKIPG@?$AAm?$AAr?$AA?9?$AAi?$AAn?$AA?$AA@ 00428034     libucrt:lcidtoname_downlevel.obj
 0002:00007040       ??_C@_1M@NDBPDDAL@?$AAm?$AAs?$AA?9?$AAb?$AAn?$AA?$AA@ 00428040     libucrt:lcidtoname_downlevel.obj
 0002:0000704c       ??_C@_1M@OPIHOOPI@?$AAm?$AAs?$AA?9?$AAm?$AAy?$AA?$AA@ 0042804c     libucrt:lcidtoname_downlevel.obj
 0002:00007058       ??_C@_1M@PPDBCNFM@?$AAm?$AAt?$AA?9?$AAm?$AAt?$AA?$AA@ 00428058     libucrt:lcidtoname_downlevel.obj
 0002:00007064       ??_C@_1M@KDJDKMDD@?$AAn?$AAb?$AA?9?$AAn?$AAo?$AA?$AA@ 00428064     libucrt:lcidtoname_downlevel.obj
 0002:00007070       ??_C@_1M@KFCFLMJP@?$AAn?$AAl?$AA?9?$AAb?$AAe?$AA?$AA@ 00428070     libucrt:lcidtoname_downlevel.obj
 0002:0000707c       ??_C@_1M@KPOPDDGO@?$AAn?$AAl?$AA?9?$AAn?$AAl?$AA?$AA@ 0042807c     libucrt:lcidtoname_downlevel.obj
 0002:00007088       ??_C@_1M@LJKPEMLN@?$AAn?$AAn?$AA?9?$AAn?$AAo?$AA?$AA@ 00428088     libucrt:lcidtoname_downlevel.obj
 0002:00007094       ??_C@_1M@BDGHHBFL@?$AAn?$AAs?$AA?9?$AAz?$AAa?$AA?$AA@ 00428094     libucrt:lcidtoname_downlevel.obj
 0002:000070a0       ??_C@_1M@IDEHOAP@?$AAp?$AAa?$AA?9?$AAi?$AAn?$AA?$AA@ 004280a0     libucrt:lcidtoname_downlevel.obj
 0002:000070ac       ??_C@_1M@HDBKGOGH@?$AAp?$AAl?$AA?9?$AAp?$AAl?$AA?$AA@ 004280ac     libucrt:lcidtoname_downlevel.obj
 0002:000070b8       ??_C@_1M@LJLLCMEH@?$AAp?$AAt?$AA?9?$AAb?$AAr?$AA?$AA@ 004280b8     libucrt:lcidtoname_downlevel.obj
 0002:000070c4       ??_C@_1M@NCMONAAL@?$AAp?$AAt?$AA?9?$AAp?$AAt?$AA?$AA@ 004280c4     libucrt:lcidtoname_downlevel.obj
 0002:000070d0       ??_C@_1O@EAKMAJDN@?$AAq?$AAu?$AAz?$AA?9?$AAb?$AAo?$AA?$AA@ 004280d0     libucrt:lcidtoname_downlevel.obj
 0002:000070e0       ??_C@_1O@BHHPIGDN@?$AAq?$AAu?$AAz?$AA?9?$AAe?$AAc?$AA?$AA@ 004280e0     libucrt:lcidtoname_downlevel.obj
 0002:000070f0       ??_C@_1O@GBAPEKMJ@?$AAq?$AAu?$AAz?$AA?9?$AAp?$AAe?$AA?$AA@ 004280f0     libucrt:lcidtoname_downlevel.obj
 0002:00007100       ??_C@_1M@CLGLEFBO@?$AAr?$AAo?$AA?9?$AAr?$AAo?$AA?$AA@ 00428100     libucrt:lcidtoname_downlevel.obj
 0002:0000710c       ??_C@_1M@CEEDODME@?$AAr?$AAu?$AA?9?$AAr?$AAu?$AA?$AA@ 0042810c     libucrt:lcidtoname_downlevel.obj
 0002:00007118       ??_C@_1M@HPKKKMPP@?$AAs?$AAa?$AA?9?$AAi?$AAn?$AA?$AA@ 00428118     libucrt:lcidtoname_downlevel.obj
 0002:00007124       ??_C@_1M@BKMAIGOJ@?$AAs?$AAe?$AA?9?$AAf?$AAi?$AA?$AA@ 00428124     libucrt:lcidtoname_downlevel.obj
 0002:00007130       ??_C@_1M@NDPIFLFI@?$AAs?$AAe?$AA?9?$AAn?$AAo?$AA?$AA@ 00428130     libucrt:lcidtoname_downlevel.obj
 0002:0000713c       ??_C@_1M@DANKKHJ@?$AAs?$AAe?$AA?9?$AAs?$AAe?$AA?$AA@ 0042813c     libucrt:lcidtoname_downlevel.obj
 0002:00007148       ??_C@_1M@PNBLONPJ@?$AAs?$AAk?$AA?9?$AAs?$AAk?$AA?$AA@ 00428148     libucrt:lcidtoname_downlevel.obj
 0002:00007154       ??_C@_1M@LFMODOAL@?$AAs?$AAl?$AA?9?$AAs?$AAi?$AA?$AA@ 00428154     libucrt:lcidtoname_downlevel.obj
 0002:00007160       ??_C@_1O@DFKOMPG@?$AAs?$AAm?$AAa?$AA?9?$AAn?$AAo?$AA?$AA@ 00428160     libucrt:lcidtoname_downlevel.obj
 0002:00007170       ??_C@_1O@NDKPBNNH@?$AAs?$AAm?$AAa?$AA?9?$AAs?$AAe?$AA?$AA@ 00428170     libucrt:lcidtoname_downlevel.obj
 0002:00007180       ??_C@_1O@PLLKBHAB@?$AAs?$AAm?$AAj?$AA?9?$AAn?$AAo?$AA?$AA@ 00428180     libucrt:lcidtoname_downlevel.obj
 0002:00007190       ??_C@_1O@CLEPOGCA@?$AAs?$AAm?$AAj?$AA?9?$AAs?$AAe?$AA?$AA@ 00428190     libucrt:lcidtoname_downlevel.obj
 0002:000071a0       ??_C@_1O@DLGJGKMK@?$AAs?$AAm?$AAn?$AA?9?$AAf?$AAi?$AA?$AA@ 004281a0     libucrt:lcidtoname_downlevel.obj
 0002:000071b0       ??_C@_1O@OJDJGAJC@?$AAs?$AAm?$AAs?$AA?9?$AAf?$AAi?$AA?$AA@ 004281b0     libucrt:lcidtoname_downlevel.obj
 0002:000071c0       ??_C@_1M@BOFOGHPB@?$AAs?$AAq?$AA?9?$AAa?$AAl?$AA?$AA@ 004281c0     libucrt:lcidtoname_downlevel.obj
 0002:000071cc       ??_C@_1BG@LJBBIPGB@?$AAs?$AAr?$AA?9?$AAb?$AAa?$AA?9?$AAc?$AAy?$AAr?$AAl?$AA?$AA@ 004281cc     libucrt:lcidtoname_downlevel.obj
 0002:000071e4       ??_C@_1BG@JLBENFOE@?$AAs?$AAr?$AA?9?$AAb?$AAa?$AA?9?$AAl?$AAa?$AAt?$AAn?$AA?$AA@ 004281e4     libucrt:lcidtoname_downlevel.obj
 0002:000071fc       ??_C@_1BG@KODPNHE@?$AAs?$AAr?$AA?9?$AAs?$AAp?$AA?9?$AAc?$AAy?$AAr?$AAl?$AA?$AA@ 004281fc     libucrt:lcidtoname_downlevel.obj
 0002:00007214       ??_C@_1BG@CIOGKHPB@?$AAs?$AAr?$AA?9?$AAs?$AAp?$AA?9?$AAl?$AAa?$AAt?$AAn?$AA?$AA@ 00428214     libucrt:lcidtoname_downlevel.obj
 0002:0000722c       ??_C@_1M@NGFJLMAC@?$AAs?$AAv?$AA?9?$AAf?$AAi?$AA?$AA@ 0042822c     libucrt:lcidtoname_downlevel.obj
 0002:00007238       ??_C@_1M@MPJEJAJC@?$AAs?$AAv?$AA?9?$AAs?$AAe?$AA?$AA@ 00428238     libucrt:lcidtoname_downlevel.obj
 0002:00007244       ??_C@_1M@MPNDHLFK@?$AAs?$AAw?$AA?9?$AAk?$AAe?$AA?$AA@ 00428244     libucrt:lcidtoname_downlevel.obj
 0002:00007250       ??_C@_1O@KOHBJJI@?$AAs?$AAy?$AAr?$AA?9?$AAs?$AAy?$AA?$AA@ 00428250     libucrt:lcidtoname_downlevel.obj
 0002:00007260       ??_C@_1M@LDCEFHA@?$AAt?$AAa?$AA?9?$AAi?$AAn?$AA?$AA@ 00428260     libucrt:lcidtoname_downlevel.obj
 0002:0000726c       ??_C@_1M@CNJOFAK@?$AAt?$AAe?$AA?9?$AAi?$AAn?$AA?$AA@ 0042826c     libucrt:lcidtoname_downlevel.obj
 0002:00007278       ??_C@_1M@GNAECACD@?$AAt?$AAh?$AA?9?$AAt?$AAh?$AA?$AA@ 00428278     libucrt:lcidtoname_downlevel.obj
 0002:00007284       ??_C@_1M@CHBIHOJO@?$AAt?$AAn?$AA?9?$AAz?$AAa?$AA?$AA@ 00428284     libucrt:lcidtoname_downlevel.obj
 0002:00007290       ??_C@_1M@GCCMIGPJ@?$AAt?$AAr?$AA?9?$AAt?$AAr?$AA?$AA@ 00428290     libucrt:lcidtoname_downlevel.obj
 0002:0000729c       ??_C@_1M@CELMCNBK@?$AAt?$AAt?$AA?9?$AAr?$AAu?$AA?$AA@ 0042829c     libucrt:lcidtoname_downlevel.obj
 0002:000072a8       ??_C@_1M@KLMCELGA@?$AAu?$AAk?$AA?9?$AAu?$AAa?$AA?$AA@ 004282a8     libucrt:lcidtoname_downlevel.obj
 0002:000072b4       ??_C@_1M@EPAJJAJF@?$AAu?$AAr?$AA?9?$AAp?$AAk?$AA?$AA@ 004282b4     libucrt:lcidtoname_downlevel.obj
 0002:000072c0       ??_C@_1BG@GEGPMCDJ@?$AAu?$AAz?$AA?9?$AAu?$AAz?$AA?9?$AAc?$AAy?$AAr?$AAl?$AA?$AA@ 004282c0     libucrt:lcidtoname_downlevel.obj
 0002:000072d8       ??_C@_1BG@EGGKJILM@?$AAu?$AAz?$AA?9?$AAu?$AAz?$AA?9?$AAl?$AAa?$AAt?$AAn?$AA?$AA@ 004282d8     libucrt:lcidtoname_downlevel.obj
 0002:000072f0       ??_C@_1M@GFOCLFF@?$AAv?$AAi?$AA?9?$AAv?$AAn?$AA?$AA@ 004282f0     libucrt:lcidtoname_downlevel.obj
 0002:000072fc       ??_C@_1M@CPAMEDFI@?$AAx?$AAh?$AA?9?$AAz?$AAa?$AA?$AA@ 004282fc     libucrt:lcidtoname_downlevel.obj
 0002:00007308       ??_C@_1O@EBKIFIGN@?$AAz?$AAh?$AA?9?$AAc?$AAh?$AAs?$AA?$AA@ 00428308     libucrt:lcidtoname_downlevel.obj
 0002:00007318       ??_C@_1O@NMHPGANE@?$AAz?$AAh?$AA?9?$AAc?$AAh?$AAt?$AA?$AA@ 00428318     libucrt:lcidtoname_downlevel.obj
 0002:00007328       ??_C@_1M@LPINJOMC@?$AAz?$AAh?$AA?9?$AAc?$AAn?$AA?$AA@ 00428328     libucrt:lcidtoname_downlevel.obj
 0002:00007334       ??_C@_1M@OCJEJODD@?$AAz?$AAh?$AA?9?$AAh?$AAk?$AA?$AA@ 00428334     libucrt:lcidtoname_downlevel.obj
 0002:00007340       ??_C@_1M@DNDLJINH@?$AAz?$AAh?$AA?9?$AAm?$AAo?$AA?$AA@ 00428340     libucrt:lcidtoname_downlevel.obj
 0002:0000734c       ??_C@_1M@MBFDNDND@?$AAz?$AAh?$AA?9?$AAs?$AAg?$AA?$AA@ 0042834c     libucrt:lcidtoname_downlevel.obj
 0002:00007358       ??_C@_1M@IMEPLEPE@?$AAz?$AAh?$AA?9?$AAt?$AAw?$AA?$AA@ 00428358     libucrt:lcidtoname_downlevel.obj
 0002:00007364       ??_C@_1M@BBGHNHJP@?$AAz?$AAu?$AA?9?$AAz?$AAa?$AA?$AA@ 00428364     libucrt:lcidtoname_downlevel.obj
 0002:000074d0       __infinity                 004284d0     libucrt:87tran.obj
 0002:000074da       __minfinity                004284da     libucrt:87tran.obj
 0002:000074e4       __logemax                  004284e4     libucrt:87tran.obj
 0002:0000750a       __OP_EXPjmptab             0042850a     libucrt:87tran.obj
 0002:00007538       __DEFAULT_CW_in_mem        00428538     libucrt:common.obj
 0002:0000753a       __pi_by_2_to_61            0042853a     libucrt:common.obj
 0002:00007574       ??_C@_1BA@BALFACEM@?$AAC?$AAO?$AAN?$AAO?$AAU?$AAT?$AA$?$AA?$AA@ 00428574     libucrt:initcon.obj
 0002:00007590       ___acrt_log10_table_t      00428590     libucrt:log10_tables.obj
 0002:000079a0       ___acrt_log10_table_cb     004289a0     libucrt:log10_tables.obj
 0002:00007db0       __real@3fe0000000000000    00428db0     libucrt:powhlp.obj
 0002:00007de0       __load_config_used         00428de0     LIBCMT:loadcfg.obj
 0002:00007e40       ___safe_se_handler_table   00428e40     <linker-defined>
 0002:000080f0       ___rtc_iaa                 004290f0     LIBCMT:_initsect_.obj
 0002:000080f4       ___rtc_izz                 004290f4     LIBCMT:_initsect_.obj
 0002:000080f8       ___rtc_taa                 004290f8     LIBCMT:_initsect_.obj
 0002:000080fc       ___rtc_tzz                 004290fc     LIBCMT:_initsect_.obj
 0002:0000858c       __IMPORT_DESCRIPTOR_ole32  0042958c     ole32:ole32.dll
 0002:000085a0       __IMPORT_DESCRIPTOR_WS2_32 004295a0     ws2_32:WS2_32.dll
 0002:000085b4       __IMPORT_DESCRIPTOR_KERNEL32 004295b4     kernel32:KERNEL32.dll
 0002:000085c8       __NULL_IMPORT_DESCRIPTOR   004295c8     ole32:ole32.dll
 0003:00000604       _arg_type                  0042a604     pjlib-util-i386-win32-vc8-release-static:cli.obj
 0003:000006e4       _PJ_VERSION                0042a6e4     pjlib-i386-win32-vc8-release-static:config.obj
 0003:0000072c       _pj_pool_factory_default_policy 0042a72c     pjlib-i386-win32-vc8-release-static:pool_policy_malloc.obj
 0003:0000073c       ___security_cookie_complement 0042a73c     LIBCMT:gs_cookie.obj
 0003:00000740       ___security_cookie         0042a740     LIBCMT:gs_cookie.obj
 0003:00000744       __fltused                  0042a744     LIBCMT:fltused.obj
 0003:00000750       ___scrt_native_dllmain_reason 0042a750     LIBCMT:utility.obj
 0003:00000754       ___scrt_default_matherr    0042a754     LIBCMT:matherr.obj
 0003:00000760       ___isa_enabled             0042a760     LIBCMT:_cpu_disp_.obj
 0003:00000770       __NLG_Destination          0042a770     libvcruntime:_exsup_.obj
 0003:00000788       __iob                      0042a788     libucrt:_file.obj
 0003:00000830       ___abort_behavior          0042a830     libucrt:abort.obj
 0003:00000840       ___acrt_initial_locale_data 0042a840     libucrt:nlsdata.obj
 0003:000008f8       ___acrt_initial_locale_pointers 0042a8f8     libucrt:nlsdata.obj
 0003:00000900       ___acrt_wide_c_locale_string 0042a900     libucrt:nlsdata.obj
 0003:00000908       ___badioinfo               0042a908     libucrt:ioinit.obj
 0003:00000a38       __mbctype                  0042aa38     libucrt:mbctype.obj
 0003:00000b40       __mbcasemap                0042ab40     libucrt:mbctype.obj
 0003:00000c40       ___acrt_initial_multibyte_data 0042ac40     libucrt:mbctype.obj
 0003:00000e60       ___acrt_current_multibyte_data 0042ae60     libucrt:mbctype.obj
 0003:00000e64       ___acrt_lconv_static_decimal 0042ae64     libucrt:localeconv.obj
 0003:00000e68       ___acrt_lconv_static_W_decimal 0042ae68     libucrt:localeconv.obj
 0003:00000e70       ___acrt_lconv_c            0042ae70     libucrt:localeconv.obj
 0003:00000ec0       ___globallocalestatus      0042aec0     libucrt:glstatus.obj
 0003:00000ed0       __lookuptrailbytes         0042aed0     libucrt:read.obj
 0003:00000fd0       ___dcrt_lowio_console_output_handle 0042afd0     libucrt:initcon.obj
 0003:0000167c       ___scrt_current_native_startup_state 0042b67c     LIBCMT:utility.obj
 0003:00001680       ___scrt_native_startup_lock 0042b680     LIBCMT:utility.obj
 0003:000016a0       ?__type_info_root_node@@3U__type_info_node@@A 0042b6a0     LIBCMT:tncleanup.obj
 0003:000016a8       ?_OptionsStorage@?1??__local_stdio_scanf_options@@9@4_KA 0042b6a8     LIBCMT:default_local_stdio_options.obj
 0003:000016b0       ___scrt_debugger_hook_flag 0042b6b0     LIBCMT:utility_desktop.obj
 0003:000016b4       ___isa_available           0042b6b4     LIBCMT:_cpu_disp_.obj
 0003:000016b8       ___favor                   0042b6b8     LIBCMT:_cpu_disp_.obj
 0003:00001734       ___pPurecall               0042b734     libvcruntime:purevirt_data.obj
 0003:00001738       ?pArgList@UnDecorator@@0PAVReplicator@@A 0042b738     libvcruntime:undname.obj
 0003:0000173c       ?pZNameList@UnDecorator@@0PAVReplicator@@A 0042b73c     libvcruntime:undname.obj
 0003:00001740       ?pTemplateArgList@UnDecorator@@0PAVReplicator@@A 0042b740     libvcruntime:undname.obj
 0003:00001744       ?gName@UnDecorator@@0PBDB  0042b744     libvcruntime:undname.obj
 0003:00001748       ?name@UnDecorator@@0PBDB   0042b748     libvcruntime:undname.obj
 0003:0000174c       ?outputString@UnDecorator@@0PADA 0042b74c     libvcruntime:undname.obj
 0003:00001750       ?maxStringLength@UnDecorator@@0HA 0042b750     libvcruntime:undname.obj
 0003:00001754       ?disableFlags@UnDecorator@@0KA 0042b754     libvcruntime:undname.obj
 0003:00001758       ?fExplicitTemplateParams@UnDecorator@@0_NA 0042b758     libvcruntime:undname.obj
 0003:00001759       ?fGetTemplateArgumentList@UnDecorator@@0_NA 0042b759     libvcruntime:undname.obj
 0003:0000175c       ?m_pGetParameter@UnDecorator@@0P6APADJ@ZA 0042b75c     libvcruntime:undname.obj
 0003:00001774       __nstream                  0042b774     libucrt:_file.obj
 0003:00001778       ___piob                    0042b778     libucrt:_file.obj
 0003:0000177c       __cflush                   0042b77c     libucrt:_file.obj
 0003:00001890       __environ_table            0042b890     libucrt:environment_initialization.obj
 0003:00001894       __wenviron_table           0042b894     libucrt:environment_initialization.obj
 0003:00001898       ___dcrt_initial_wide_environment 0042b898     libucrt:environment_initialization.obj
 0003:0000189c       ___dcrt_initial_narrow_environment 0042b89c     libucrt:environment_initialization.obj
 0003:000018ac       ___argc                    0042b8ac     libucrt:argv_data.obj
 0003:000018b0       ___argv                    0042b8b0     libucrt:argv_data.obj
 0003:000018b4       ___wargv                   0042b8b4     libucrt:argv_data.obj
 0003:000018b8       __acmdln                   0042b8b8     libucrt:argv_data.obj
 0003:000018bc       __wcmdln                   0042b8bc     libucrt:argv_data.obj
 0003:000018c0       __pgmptr                   0042b8c0     libucrt:argv_data.obj
 0003:000018c4       ___acrt_locale_changed_data 0042b8c4     libucrt:wsetlocale.obj
 0003:000018cc       __commode                  0042b8cc     libucrt:ncommode.obj
 0003:000018d0       ___acrt_atexit_table       0042b8d0     libucrt:onexit.obj
 0003:000018dc       ___acrt_at_quick_exit_table 0042b8dc     libucrt:onexit.obj
 0003:000018f0       ___acrt_stdout_buffer      0042b8f0     libucrt:_sftbuf.obj
 0003:000018f4       ___acrt_stderr_buffer      0042b8f4     libucrt:_sftbuf.obj
 0003:000018f8       ___acrt_current_locale_data 0042b8f8     libucrt:nlsdata.obj
 0003:00001900       ___pioinfo                 0042b900     libucrt:ioinit.obj
 0003:00001b00       __nhandle                  0042bb00     libucrt:ioinit.obj
 0003:00001bdc       ___mblocalename            0042bbdc     libucrt:mbctype.obj
 0003:00001be0       ___mbcodepage              0042bbe0     libucrt:mbctype.obj
 0003:00001be4       ___ismbcodepage            0042bbe4     libucrt:mbctype.obj
 0003:00001be8       ___mbulinfo                0042bbe8     libucrt:mbctype.obj
 0003:00001d3c       __fmode                    0042bd3c     libucrt:txtmode.obj
 0003:00001d40       ___acrt_lconv_static_null  0042bd40     libucrt:localeconv.obj
 0003:00001d44       ___acrt_lconv_static_W_null 0042bd44     libucrt:localeconv.obj
 0003:00001d48       ___acrt_heap               0042bd48     libucrt:heap_handle.obj
 0003:00001d60       ___fastflag                0042bd60     libucrt:fp_flags.obj
 0003:00001d64       __umaskval                 0042bd64     libucrt:umask.obj
 0003:00001d70       ?_OptionsStorage@?1??__local_stdio_printf_options@@9@9 0042bd70     <common>
 0003:00001d78       _PJ_NO_MEMORY_EXCEPTION    0042bd78     <common>
 0003:00001d7c       ___scrt_ucrt_dll_is_in_use 0042bd7c     <common>
 0003:00001d80       ___dyn_tls_dtor_callback   0042bd80     <common>
 0003:00001d84       ___dyn_tls_init_callback   0042bd84     <common>
 0003:00001d88       __pDestructExceptionObject 0042bd88     <common>
 0003:00001d8c       __pmatherr                 0042bd8c     <common>
 0003:00001d90       ___use_sse2_mathfcns       0042bd90     <common>

 entry point at        0001:0000c2c0

 Static symbols

 0001:000000d0       _sayhello                  004010d0 f   clidemo.obj
 0001:00000120       _saybye                    00401120 f   clidemo.obj
 0001:00000170       _say                       00401170 f   clidemo.obj
 0001:000001c0       _quit_app                  004011c0 f   clidemo.obj
 0001:000001e0       _get_codec_list            004011e0 f   clidemo.obj
 0001:00000240       _log_writer                00401240 f   clidemo.obj
 0001:00000500       _add_arg_node              00401500 f   pjlib-util-i386-win32-vc8-release-static:cli.obj
 0001:000006b0       _add_choice_node           004016b0 f   pjlib-util-i386-win32-vc8-release-static:cli.obj
 0001:00000840       _add_cmd_name              00401840 f   pjlib-util-i386-win32-vc8-release-static:cli.obj
 0001:000008f0       _add_cmd_node              004018f0 f   pjlib-util-i386-win32-vc8-release-static:cli.obj
 0001:00000fd0       _cmd_handler               00401fd0 f   pjlib-util-i386-win32-vc8-release-static:cli.obj
 0001:00001050       _get_available_cmds        00402050 f   pjlib-util-i386-win32-vc8-release-static:cli.obj
 0001:00001170       _get_cmd_name              00402170 f   pjlib-util-i386-win32-vc8-release-static:cli.obj
 0001:00001210       _get_comp_match_cmds       00402210 f   pjlib-util-i386-win32-vc8-release-static:cli.obj
 0001:000012d0       _get_match_args            004022d0 f   pjlib-util-i386-win32-vc8-release-static:cli.obj
 0001:00001620       _get_pattern_match_cmds    00402620 f   pjlib-util-i386-win32-vc8-release-static:cli.obj
 0001:00001750       _get_pattern_match_shortcut 00402750 f   pjlib-util-i386-win32-vc8-release-static:cli.obj
 0001:00001850       _hint_inserted             00402850 f   pjlib-util-i386-win32-vc8-release-static:cli.obj
 0001:000018c0       _insert_new_hint2          004028c0 f   pjlib-util-i386-win32-vc8-release-static:cli.obj
 0001:00001990       _on_syntax_error           00402990 f   pjlib-util-i386-win32-vc8-release-static:cli_telnet.obj
 0001:00001990       _on_syntax_error           00402990 f   pjlib-util-i386-win32-vc8-release-static:cli.obj
 0001:00002230       _console_destroy           00403230 f   pjlib-util-i386-win32-vc8-release-static:cli_console.obj
 0001:000022a0       _console_quit              004032a0 f   pjlib-util-i386-win32-vc8-release-static:cli_console.obj
 0001:000022d0       _console_write_log         004032d0 f   pjlib-util-i386-win32-vc8-release-static:cli_console.obj
 0001:00002300       _handle_exec               00403300 f   pjlib-util-i386-win32-vc8-release-static:cli_console.obj
 0001:0000240c       $LN16                      0040340c     pjlib-util-i386-win32-vc8-release-static:cli_console.obj
 0001:00002430       _handle_hint               00403430 f   pjlib-util-i386-win32-vc8-release-static:cli_console.obj
 0001:000027a0       _readline_thread           004037a0 f   pjlib-util-i386-win32-vc8-release-static:cli_console.obj
 0001:000028f0       _send_ambi_arg             004038f0 f   pjlib-util-i386-win32-vc8-release-static:cli_console.obj
 0001:00002cc0       _send_err_arg              00403cc0 f   pjlib-util-i386-win32-vc8-release-static:cli_console.obj
 0001:00002db0       _send_prompt_str           00403db0 f   pjlib-util-i386-win32-vc8-release-static:cli_console.obj
 0001:00002e20       _compare_str               00403e20 f   pjlib-util-i386-win32-vc8-release-static:cli_telnet.obj
 0001:00002e40       _get_last_token            00403e40 f   pjlib-util-i386-win32-vc8-release-static:cli_telnet.obj
 0001:00002ef0       _get_prev_history          00403ef0 f   pjlib-util-i386-win32-vc8-release-static:cli_telnet.obj
 0001:00002f60       _handle_alfa_num           00403f60 f   pjlib-util-i386-win32-vc8-release-static:cli_telnet.obj
 0001:00002ff0       _handle_backspace          00403ff0 f   pjlib-util-i386-win32-vc8-release-static:cli_telnet.obj
 0001:000030c0       _handle_left_key           004040c0 f   pjlib-util-i386-win32-vc8-release-static:cli_telnet.obj
 0001:00003120       _handle_return             00404120 f   pjlib-util-i386-win32-vc8-release-static:cli_telnet.obj
 0001:00003264       $LN24                      00404264     pjlib-util-i386-win32-vc8-release-static:cli_telnet.obj
 0001:00003280       _handle_right_key          00404280 f   pjlib-util-i386-win32-vc8-release-static:cli_telnet.obj
 0001:000032e0       _handle_tab                004042e0 f   pjlib-util-i386-win32-vc8-release-static:cli_telnet.obj
 0001:00003500       _handle_up_down            00404500 f   pjlib-util-i386-win32-vc8-release-static:cli_telnet.obj
 0001:00003640       _insert_history            00404640 f   pjlib-util-i386-win32-vc8-release-static:cli_telnet.obj
 0001:000038c0       _poll_worker_thread        004048c0 f   pjlib-util-i386-win32-vc8-release-static:cli_telnet.obj
 0001:00003900       _process_vt100_cmd         00404900 f   pjlib-util-i386-win32-vc8-release-static:cli_telnet.obj
 0001:00003960       $LN22                      00404960     pjlib-util-i386-win32-vc8-release-static:cli_telnet.obj
 0001:00003970       _receive_do                00404970 f   pjlib-util-i386-win32-vc8-release-static:cli_telnet.obj
 0001:00003a14       $LN26                      00404a14     pjlib-util-i386-win32-vc8-release-static:cli_telnet.obj
 0001:00003a30       _receive_dont              00404a30 f   pjlib-util-i386-win32-vc8-release-static:cli_telnet.obj
 0001:00003aa8       $LN22                      00404aa8     pjlib-util-i386-win32-vc8-release-static:cli_telnet.obj
 0001:00003ac0       _receive_will              00404ac0 f   pjlib-util-i386-win32-vc8-release-static:cli_telnet.obj
 0001:00003b64       $LN26                      00404b64     pjlib-util-i386-win32-vc8-release-static:cli_telnet.obj
 0001:00003b80       _receive_wont              00404b80 f   pjlib-util-i386-win32-vc8-release-static:cli_telnet.obj
 0001:00003c08       $LN22                      00404c08     pjlib-util-i386-win32-vc8-release-static:cli_telnet.obj
 0001:00003c20       _recv_buf_insert           00404c20 f   pjlib-util-i386-win32-vc8-release-static:cli_telnet.obj
 0001:00003ca0       _send_ambi_arg             00404ca0 f   pjlib-util-i386-win32-vc8-release-static:cli_telnet.obj
 0001:00004020       _send_cmd_do               00405020 f   pjlib-util-i386-win32-vc8-release-static:cli_telnet.obj
 0001:0000409c       $LN23                      0040509c     pjlib-util-i386-win32-vc8-release-static:cli_telnet.obj
 0001:000040c0       _send_cmd_will             004050c0 f   pjlib-util-i386-win32-vc8-release-static:cli_telnet.obj
 0001:00004138       $LN23                      00405138     pjlib-util-i386-win32-vc8-release-static:cli_telnet.obj
 0001:00004150       _send_comp_arg             00405150 f   pjlib-util-i386-win32-vc8-release-static:cli_telnet.obj
 0001:000041c0       _send_err_arg              004051c0 f   pjlib-util-i386-win32-vc8-release-static:cli_telnet.obj
 0001:000043a0       _send_hint_arg             004053a0 f   pjlib-util-i386-win32-vc8-release-static:cli_telnet.obj
 0001:000044e0       _send_prompt_str           004054e0 f   pjlib-util-i386-win32-vc8-release-static:cli_telnet.obj
 0001:00004540       _send_telnet_cmd           00405540 f   pjlib-util-i386-win32-vc8-release-static:cli_telnet.obj
 0001:00004590       _telnet_fe_destroy         00405590 f   pjlib-util-i386-win32-vc8-release-static:cli_telnet.obj
 0001:00004630       _telnet_fe_on_accept       00405630 f   pjlib-util-i386-win32-vc8-release-static:cli_telnet.obj
 0001:00004920       _telnet_fe_write_log       00405920 f   pjlib-util-i386-win32-vc8-release-static:cli_telnet.obj
 0001:00004990       _telnet_restart            00405990 f   pjlib-util-i386-win32-vc8-release-static:cli_telnet.obj
 0001:00004a50       _telnet_sess_destroy       00405a50 f   pjlib-util-i386-win32-vc8-release-static:cli_telnet.obj
 0001:00004ab0       _telnet_sess_on_data_read  00405ab0 f   pjlib-util-i386-win32-vc8-release-static:cli_telnet.obj
 0001:00004d08       $LN61                      00405d08     pjlib-util-i386-win32-vc8-release-static:cli_telnet.obj
 0001:00004d2c       $LN62                      00405d2c     pjlib-util-i386-win32-vc8-release-static:cli_telnet.obj
 0001:00004d40       _telnet_sess_on_data_sent  00405d40 f   pjlib-util-i386-win32-vc8-release-static:cli_telnet.obj
 0001:00004e00       _telnet_sess_send          00405e00 f   pjlib-util-i386-win32-vc8-release-static:cli_telnet.obj
 0001:00004f10       _telnet_sess_send_with_format 00405f10 f   pjlib-util-i386-win32-vc8-release-static:cli_telnet.obj
 0001:00005070       _telnet_start              00406070 f   pjlib-util-i386-win32-vc8-release-static:cli_telnet.obj
 0001:000056e0       _on_syntax_error           004066e0 f   pjlib-util-i386-win32-vc8-release-static:xml.obj
 0001:000057d0       _xml_parse_node            004067d0 f   pjlib-util-i386-win32-vc8-release-static:xml.obj
 0001:00005a70       _init_mutex                00406a70 f   pjlib-i386-win32-vc8-release-static:os_core_win32.obj
 0001:000062e0       _pj_sem_wait_for           004072e0 f   pjlib-i386-win32-vc8-release-static:os_core_win32.obj
 0001:00006b30       _thread_main@4             00407b30 f   pjlib-i386-win32-vc8-release-static:os_core_win32.obj
 0001:00006bb0       _invoke_log                00407bb0 f   pjlib-i386-win32-vc8-release-static:errno.obj
 0001:00006c10       _pj_perror_imp             00407c10 f   pjlib-i386-win32-vc8-release-static:errno.obj
 0001:00006e60       _pjlib_error               00407e60 f   pjlib-i386-win32-vc8-release-static:errno.obj
 0001:00006ee0       _logging_shutdown          00407ee0 f   pjlib-i386-win32-vc8-release-static:log.obj
 0001:000074ec       $LN14                      004084ec     pjlib-i386-win32-vc8-release-static:log.obj
 0001:000075c0       _pj_memcmp                 004085c0 f   pjlib-i386-win32-vc8-release-static:string.obj
 0001:00007c90       _cpool_create_pool         00408c90 f   pjlib-i386-win32-vc8-release-static:pool_caching.obj
 0001:00007dc0       _cpool_dump_status         00408dc0 f   pjlib-i386-win32-vc8-release-static:pool_caching.obj
 0001:00007f10       _cpool_on_block_alloc      00408f10 f   pjlib-i386-win32-vc8-release-static:pool_caching.obj
 0001:00007f30       _cpool_on_block_free       00408f30 f   pjlib-i386-win32-vc8-release-static:pool_caching.obj
 0001:00007f40       _cpool_release_pool        00408f40 f   pjlib-i386-win32-vc8-release-static:pool_caching.obj
 0001:00008290       _exception_cleanup         00409290 f   pjlib-i386-win32-vc8-release-static:except.obj
 0001:00008480       _find_entry                00409480 f   pjlib-i386-win32-vc8-release-static:hash.obj
 0001:000089d0       _pj_pool_create_block      004099d0 f   pjlib-i386-win32-vc8-release-static:pool.obj
 0001:00008c30       _reset_pool                00409c30 f   pjlib-i386-win32-vc8-release-static:pool.obj
 0001:00008cb0       ?decrement_counter@@YAXPAUpj_ioqueue_key_t@@@Z 00409cb0 f   pjlib-i386-win32-vc8-release-static:ioqueue_select.obj
 0001:00008d40       ?increment_counter@@YAXPAUpj_ioqueue_key_t@@@Z 00409d40 f   pjlib-i386-win32-vc8-release-static:ioqueue_select.obj
 0001:00009380       ?ioqueue_init_key@@YAHPAUpj_pool_t@@PAUpj_ioqueue_t@@PAUpj_ioqueue_key_t@@JPAUpj_grp_lock_t@@PAXPBUpj_ioqueue_callback@@@Z 0040a380 f   pjlib-i386-win32-vc8-release-static:ioqueue_select.obj
 0001:00009430       ?scan_closing_keys@@YAXPAUpj_ioqueue_t@@@Z 0040a430 f   pjlib-i386-win32-vc8-release-static:ioqueue_select.obj
 0001:0000aa30       _ioqueue_on_accept_complete 0040ba30 f   pjlib-i386-win32-vc8-release-static:activesock.obj
 0001:0000ab80       _ioqueue_on_connect_complete 0040bb80 f   pjlib-i386-win32-vc8-release-static:activesock.obj
 0001:0000abb0       _ioqueue_on_read_complete  0040bbb0 f   pjlib-i386-win32-vc8-release-static:activesock.obj
 0001:0000adb0       _ioqueue_on_write_complete 0040bdb0 f   pjlib-i386-win32-vc8-release-static:activesock.obj
 0001:0000b2c0       _send_remaining            0040c2c0 f   pjlib-i386-win32-vc8-release-static:activesock.obj
 0001:0000b3e0       _guid_to_str               0040c3e0 f   pjlib-i386-win32-vc8-release-static:guid_win32.obj
 0001:0000b770       _create_mutex_lock         0040c770 f   pjlib-i386-win32-vc8-release-static:lock.obj
 0001:0000b7e0       _grp_lock_acquire          0040c7e0 f   pjlib-i386-win32-vc8-release-static:lock.obj
 0001:0000b850       _grp_lock_destroy          0040c850 f   pjlib-i386-win32-vc8-release-static:lock.obj
 0001:0000b900       _grp_lock_release          0040c900 f   pjlib-i386-win32-vc8-release-static:lock.obj
 0001:0000bb40       _pool_buf_cleanup          0040cb40 f   pjlib-i386-win32-vc8-release-static:pool_buf.obj
 0001:0000bb70       _stack_alloc               0040cb70 f   pjlib-i386-win32-vc8-release-static:pool_buf.obj
 0001:0000bbb0       _default_block_alloc       0040cbb0 f   pjlib-i386-win32-vc8-release-static:pool_policy_malloc.obj
 0001:0000bc10       _default_block_free        0040cc10 f   pjlib-i386-win32-vc8-release-static:pool_policy_malloc.obj
 0001:0000bc50       _default_pool_callback     0040cc50 f   pjlib-i386-win32-vc8-release-static:pool_policy_malloc.obj
 0001:0000c093       ?pre_c_initialization@@YAHXZ 0040d093 f   LIBCMT:exe_main.obj
 0001:0000c137       ?post_pgo_initialization@@YAHXZ 0040d137 f   LIBCMT:exe_main.obj
 0001:0000c13f       ?pre_cpp_initialization@@YAXXZ 0040d13f f   LIBCMT:exe_main.obj
 0001:0000c151       ?__scrt_common_main_seh@@YAHXZ 0040d151 f   LIBCMT:exe_main.obj
 0001:0000c4d0       $$000000                   0040d4d0     LIBCMT:lldiv.obj
 0001:0000c580       $$000000                   0040d580     LIBCMT:llmul.obj
 0001:0000c5c0       $$000000                   0040d5c0     LIBCMT:_ftol3_.obj
 0001:0000c954       ?find_pe_section@@YAPAU_IMAGE_SECTION_HEADER@@QAEI@Z 0040d954 f   LIBCMT:utility.obj
 0001:0000cdf0       _null_op                   0040ddf0 f   pjlib-i386-win32-vc8-release-static:lock.obj
 0001:0000cdf3       ?is_managed_app@@YA_NXZ    0040ddf3 f   libucrt:exit.obj
 0001:0000cef0       $$000000                   0040def0     LIBCMT:_sehprolg4_.obj
 0001:0000d100       $$000000                   0040e100     libvcruntime:_setjmp3_.obj
 0001:0000d180       $$000000                   0040e180     libvcruntime:memcpy.obj
 0001:0000d3e4       TrailingUpVec              0040e3e4     libvcruntime:memcpy.obj
 0001:0000d490       TrailingDownVec            0040e490     libvcruntime:memcpy.obj
 0001:0000d700       $$000000                   0040e700     libvcruntime:memset.obj
 0001:0000d860       $$000000                   0040e860     libvcruntime:memmove.obj
 0001:0000dac4       TrailingUpVec              0040eac4     libvcruntime:memmove.obj
 0001:0000db70       TrailingDownVec            0040eb70     libvcruntime:memmove.obj
 0001:0000dde0       $$000000                   0040ede0     libvcruntime:memchr.obj
 0001:0000de90       $$000000                   0040ee90     libvcruntime:strchr.obj
 0001:0000dfd0       _ValidateLocalCookies      0040efd0 f   libvcruntime:_chandler4_.obj
 0001:0000e1c0       $$000000                   0040f1c0     libvcruntime:_exsup_.obj
 0001:0000e1e0       __unwind_handler           0040f1e0 f   libvcruntime:_exsup_.obj
 0001:0000e300       $$000000                   0040f300     libvcruntime:_longjmp_.obj
 0001:0000e3c0       $$000000                   0040f3c0     libvcruntime:_exsup4_.obj
 0001:0000e450       __unwind_handler4          0040f450 f   libvcruntime:_exsup4_.obj
 0001:0000e5f3       ?try_get_function@@YAPAXW4function_id@?A0x89697e75@@QBDQBW4module_id@2@2@Z 0040f5f3 f   libvcruntime:winapi_downlevel.obj
 0001:0000e693       ?try_get_module@@YAPAUHINSTANCE__@@W4module_id@?A0x89697e75@@@Z 0040f693 f   libvcruntime:winapi_downlevel.obj
 0001:0000e951       ??$common_vsprintf@Vstandard_base@__crt_stdio_output@@D@@YAH_KQADIQBDQAU__crt_locale_pointers@@1@Z 0040f951 f   libucrt:output.obj
 0001:0000ee97       ??R<lambda_4f2c1eaeead2a5fc776db5b62ea0fb9b>@@QBEHXZ 0040fe97 f   libucrt:output.obj
 0001:0000f191       $LN54                      00410191     libucrt:output.obj
 0001:0000f2ad       $LN54                      004102ad     libucrt:output.obj
 0001:0000fc0d       $LN19                      00410c0d     libucrt:output.obj
 0001:00010666       ??$common_fgets@D@@YAPADQADHV__crt_stdio_stream@@@Z 00411666 f   libucrt:fgets.obj
 0001:00010736       ??$common_freopen@D@@YAHQAPAU_iobuf@@QBD1V__crt_stdio_stream@@H@Z 00411736 f   libucrt:freopen.obj
 0001:000108e9       ??R<lambda_55f9cbce55698c0319f95c01c080475b>@@QBEHXZ 004118e9 f   libucrt:puts.obj
 0001:00010a30       $$000000                   00411a30     libucrt:strncpy.obj
 0001:00010c80       $$000000                   00411c80     libucrt:strncmp.obj
 0001:00010e1b       ??$common_tox_l@$1?internal_isupper_l@@YA_NHQAU__crt_locale_pointers@@@Z$1?internal_map_lower@@YAHH0@Z@@YAHHKQAU__crt_locale_pointers@@@Z 00411e1b f   libucrt:tolower_toupper.obj
 0001:00010f65       ?internal_isupper_l@@YA_NHQAU__crt_locale_pointers@@@Z 00411f65 f   libucrt:tolower_toupper.obj
 0001:00010fe0       $$000000                   00411fe0     libucrt:87fmod.obj
 0001:00011215       ??$common_configure_argv@D@@YAHW4_crt_argv_mode@@@Z 00412215 f   libucrt:argv_parsing.obj
 0001:00011339       ??$parse_command_line@D@@YAXPADPAPAD0PAI2@Z 00412339 f   libucrt:argv_parsing.obj
 0001:0001150e       ??$common_get_or_create_environment_nolock@D@@YAPAPADXZ 0041250e f   libucrt:environment_initialization.obj
 0001:0001153d       ??$common_initialize_environment_nolock@D@@YAHXZ 0041253d f   libucrt:environment_initialization.obj
 0001:00011596       ??$create_environment@D@@YAQAPADQAD@Z 00412596 f   libucrt:environment_initialization.obj
 0001:00011667       ??$free_environment@_W@@YAXQAPA_W@Z 00412667 f   libucrt:environment_initialization.obj
 0001:00011667       ??$free_environment@D@@YAXQAPAD@Z 00412667 f   libucrt:environment_initialization.obj
 0001:00011696       ??$initialize_environment_by_cloning_nolock@D@@YAHXZ 00412696 f   libucrt:environment_initialization.obj
 0001:00011755       ??$uninitialize_environment_internal@D@@YAXAAPAPAD@Z 00412755 f   libucrt:environment_initialization.obj
 0001:00011770       ??$uninitialize_environment_internal@_W@@YAXAAPAPA_W@Z 00412770 f   libucrt:environment_initialization.obj
 0001:00011881       ?atexit_exception_filter@@YAHK@Z 00412881 f   libucrt:exit.obj
 0001:00011894       ?common_exit@@YAXHW4_crt_exit_cleanup_mode@@W4_crt_exit_return_mode@@@Z 00412894 f   libucrt:exit.obj
 0001:000119ad       ?exit_or_terminate_process@@YAXI@Z 004129ad f   libucrt:exit.obj
 0001:000119ee       ?try_cor_exit_process@@YAXI@Z 004129ee f   libucrt:exit.obj
 0001:0001251a       ??R<lambda_275893d493268fdec8709772e3fcec0e>@@QBEHXZ 0041351a f   libucrt:onexit.obj
 0001:0001263a       ??R<lambda_4e60a939b0d047cfe11ddc22648dfba9>@@QBEHXZ 0041363a f   libucrt:onexit.obj
 0001:0001280f       _initialize_global_variables 0041380f f   libucrt:initialization.obj
 0001:00012821       _initialize_c              00413821 f   libucrt:initialization.obj
 0001:0001283b       _uninitialize_environment  0041383b f   libucrt:initialization.obj
 0001:00012843       _initialize_environment    00413843 f   libucrt:initialization.obj
 0001:00012843       _report_memory_leaks       00413843 f   libucrt:initialization.obj
 0001:00012843       _initialize_global_state_isolation 00413843 f   libucrt:initialization.obj
 0001:00012843       _uninitialize_c            00413843 f   libucrt:initialization.obj
 0001:00012843       _uninitialize_global_state_isolation 00413843 f   libucrt:initialization.obj
 0001:00012846       _initialize_pointers       00413846 f   libucrt:initialization.obj
 0001:00012883       _uninitialize_vcruntime    00413883 f   libucrt:initialization.obj
 0001:0001288c       _uninitialize_allocated_memory 0041388c f   libucrt:initialization.obj
 0001:00013807       ?construct_ptd@@YAXQAU__acrt_ptd@@QAPAU__crt_locale_data@@@Z 00414807 f   libucrt:per_thread_data.obj
 0001:00013880       ?destroy_fls@@YGXPAX@Z     00414880 f   libucrt:per_thread_data.obj
 0001:000138a1       ?destroy_ptd@@YAXQAU__acrt_ptd@@@Z 004148a1 f   libucrt:per_thread_data.obj
 0001:0001394a       ?replace_current_thread_locale_nolock@@YAXQAU__acrt_ptd@@QAU__crt_locale_data@@@Z 0041494a f   libucrt:per_thread_data.obj
 0001:00013bc8       ?fp_format_a@@YAHQBNPADIQADIH_NIQAU__crt_locale_pointers@@@Z 00414bc8 f   libucrt:cvt.obj
 0001:00013ecb       ?fp_format_e@@YAHQBNQADI1IH_NIQAU__crt_locale_pointers@@@Z 00414ecb f   libucrt:cvt.obj
 0001:00013f66       ?fp_format_e_internal@@YAHQADIH_NIQAU_strflt@@1QAU__crt_locale_pointers@@@Z 00414f66 f   libucrt:cvt.obj
 0001:000140b1       ?fp_format_f@@YAHQBNQADI1IHQAU__crt_locale_pointers@@@Z 004150b1 f   libucrt:cvt.obj
 0001:0001413e       ?fp_format_f_internal@@YAHQADIHQAU_strflt@@_NQAU__crt_locale_pointers@@@Z 0041513e f   libucrt:cvt.obj
 0001:00014215       ?fp_format_g@@YAHQBNQADI1IH_NIQAU__crt_locale_pointers@@@Z 00415215 f   libucrt:cvt.obj
 0001:000142dd       ?fp_format_nan_or_infinity@@YAHW4__acrt_fp_class@@_NPADI1@Z 004152dd f   libucrt:cvt.obj
 0001:000143d5       ?shift_bytes@@YAXQADI0H@Z  004153d5 f   libucrt:cvt.obj
 0001:000146a5       ?initialize_inherited_file_handles_nolock@@YAXXZ 004156a5 f   libucrt:ioinit.obj
 0001:0001475b       ?initialize_stdio_handles_nolock@@YAXXZ 0041575b f   libucrt:ioinit.obj
 0001:00014893       ?try_get_CompareStringEx@@YAP6GHPB_WK0H0HPAU_nlsversioninfo@@PAXJ@ZXZ 00415893 f   libucrt:winapi_thunks.obj
 0001:000148ad       ?try_get_function@@YAPAXW4function_id@?A0x352e5c4b@@QBDQBW4module_id@2@2@Z 004158ad f   libucrt:winapi_thunks.obj
 0001:00014949       ?try_get_module@@YAPAUHINSTANCE__@@W4module_id@?A0x352e5c4b@@@Z 00415949 f   libucrt:winapi_thunks.obj
 0001:00014f60       _common_flush_all          00415f60 f   libucrt:fflush.obj
 0001:000153e5       ??$common_openfile@D@@YAPAU_iobuf@@QBD0HV__crt_stdio_stream@@@Z 004163e5 f   libucrt:openfile.obj
 0001:000157e0       $$000000                   004167e0     libucrt:_strnicm.obj
 0001:0001587a       ?__acrt_LCMapStringA_stat@@YAHPAU__crt_locale_pointers@@PB_WKPBDHPADHHH@Z 0041687a f   libucrt:lcmapstringa.obj
 0001:00015b10       $$000000                   00416b10     libucrt:87cdisp.obj
 0001:00015da0       $$000000                   00416da0     libucrt:87disp.obj
 0001:00015f94       ?<helper_func_cdecl>@<lambda_62bb7ecb46d0a77b591a051c43eb5ad1>@@CAHPBX0@Z 00416f94 f   libucrt:argv_wildcards.obj
 0001:00015fac       ??$common_expand_argv_wildcards@D@@YAHQAPADQAPAPAD@Z 00416fac f   libucrt:argv_wildcards.obj
 0001:0001613c       ??$copy_and_add_argument_to_buffer@D@@YAHQBD0IAAV?$argument_list@D@?A0xb0e4b824@@@Z 0041713c f   libucrt:argv_wildcards.obj
 0001:000161d2       ??$expand_argument_wildcards@D@@YAHQAD0AAV?$argument_list@D@?A0xb0e4b824@@@Z 004171d2 f   libucrt:argv_wildcards.obj
 0001:000164ad       ??R<lambda_ad1ced32f4ac17aa236e5ef05d6b3b7c>@@QBEXXZ 004174ad f   libucrt:mbctype.obj
 0001:00016571       ?CPtoLocaleName@@YAPB_WH@Z 00417571 f   libucrt:mbctype.obj
 0001:000165af       ?getSystemCP@@YAHH@Z       004175af f   libucrt:mbctype.obj
 0001:00016622       ?setSBCS@@YAXPAU__crt_multibyte_data@@@Z 00417622 f   libucrt:mbctype.obj
 0001:00016687       ?setSBUpLow@@YAXPAU__crt_multibyte_data@@@Z 00417687 f   libucrt:mbctype.obj
 0001:0001681b       ?setmbcp_internal@@YAHH_N@Z 0041781b f   libucrt:mbctype.obj
 0001:00016bcd       ?x_ismbbtype_l@@YAHPAU__crt_locale_pointers@@IHH@Z 00417bcd f   libucrt:ismbbyte.obj
 0001:00016c3e       ?find_end_of_double_null_terminated_sequence@@YAPB_WQB_W@Z 00417c3e f   libucrt:get_environment_from_os.obj
 0001:00016cf8       ??$common_set_variable_in_environment_nolock@D@@YAHQADH@Z 00417cf8 f   libucrt:setenv.obj
 0001:00016f33       ??$copy_environment@D@@YAPAPADQAPAD@Z 00417f33 f   libucrt:setenv.obj
 0001:00016fe4       ??$find_in_environment_nolock@D@@YAHQBDI@Z 00417fe4 f   libucrt:setenv.obj
 0001:00017678       ?free_crt_array_internal@@YAXQAPBXI@Z 00418678 f   libucrt:inittime.obj
 0001:00018158       ?get_global_action_nolock@@YAPAP6AXH@ZH@Z 00419158 f   libucrt:signal.obj
 0001:0001819a       ?siglookup@@YAPAU__crt_signal_action_t@@HQAU1@@Z 0041919a f   libucrt:signal.obj
 0001:00018425       ___hw_cw_sse2              00419425 f   libucrt:ieee87.obj
 0001:000188b0       __hw_cw                    004198b0 f   libucrt:ieee87.obj
 0001:0001a27a       _memcpy_s                  0041b27a f   libucrt:cfout.obj
 0001:0001a27a       _memcpy_s                  0041b27a f   libucrt:mbctype.obj
 0001:0001a2fb       ??$common_flush_and_write_nolock@D@@YAHHV__crt_stdio_stream@@@Z 0041b2fb f   libucrt:_flsbuf.obj
 0001:0001a40c       ??$write_buffer_nolock@D@@YA_NDV__crt_stdio_stream@@@Z 0041b40c f   libucrt:_flsbuf.obj
 0001:0001a539       ?GetTableIndexFromLocaleName@@YAHPB_W@Z 0041b539 f   libucrt:lcidtoname_downlevel.obj
 0001:0001a750       ?write_double_translated_ansi_nolock@@YA?AUwrite_result@?A0x47fa6670@@HQBDI@Z 0041b750 f   libucrt:write.obj
 0001:0001a903       ?write_double_translated_unicode_nolock@@YA?AUwrite_result@?A0x47fa6670@@QBDI@Z 0041b903 f   libucrt:write.obj
 0001:0001a970       ?write_requires_double_translation_nolock@@YA_NH@Z 0041b970 f   libucrt:write.obj
 0001:0001a9e6       ?write_text_ansi_nolock@@YA?AUwrite_result@?A0x47fa6670@@HQBDI@Z 0041b9e6 f   libucrt:write.obj
 0001:0001aac5       ?write_text_utf16le_nolock@@YA?AUwrite_result@?A0x47fa6670@@HQBDI@Z 0041bac5 f   libucrt:write.obj
 0001:0001abb3       ?write_text_utf8_nolock@@YA?AUwrite_result@?A0x47fa6670@@HQBDI@Z 0041bbb3 f   libucrt:write.obj
 0001:0001afd7       ??$common_refill_and_read_nolock@D@@YAHV__crt_stdio_stream@@@Z 0041bfd7 f   libucrt:_filbuf.obj
 0001:0001b363       ??$common_sopen_dispatch@D@@YAHQBDHHHQAHH@Z 0041c363 f   libucrt:open.obj
 0001:0001b42f       ?configure_text_mode@@YAHHUfile_options@?A0x704126de@@HAAW4__crt_lowio_text_mode@@@Z 0041c42f f   libucrt:open.obj
 0001:0001b67c       ?create_file@@YAPAXQB_WQAU_SECURITY_ATTRIBUTES@@Ufile_options@?A0x704126de@@@Z 0041c67c f   libucrt:open.obj
 0001:0001b6a1       ?decode_open_create_flags@@YAKH@Z 0041c6a1 f   libucrt:open.obj
 0001:0001b711       ?decode_options@@YA?AUfile_options@?A0x704126de@@HHH@Z 0041c711 f   libucrt:open.obj
 0001:0001b88d       ?truncate_ctrl_z_if_present@@YAHH@Z 0041c88d f   libucrt:open.obj
 0001:0001be00       ?shortsort@@YAXPAD0IP6AHPBX1@Z@Z 0041ce00 f   libucrt:qsort.obj
 0001:0001bea0       ?swap@@YAXPAD0I@Z          0041cea0 f   libucrt:qsort.obj
 0001:0001c27a       ??$common_tcsncpy_s@D@@YAHQADIQBDI@Z 0041d27a f   libucrt:strncpy_s.obj
 0001:0001c340       $$000000                   0041d340     libucrt:strpbrk.obj
 0001:0001c424       ?initialize_multibyte@@YAHXZ 0041d424 f   libucrt:multibyte_initializer.obj
 0001:0001c680       $$000000                   0041d680     libucrt:log10.obj
 0001:0001c7d0       $$000000                   0041d7d0     libucrt:ceil_pentium4.obj
 0001:0001c8ed       ??$common_lseek@_J@@YA_JH_JH@Z 0041d8ed f   libucrt:lseek.obj
 0001:0001c9f2       ??$common_lseek_nolock@_J@@YA_JH_JH@Z 0041d9f2 f   libucrt:lseek.obj
 0001:0001cb48       ??$translate_text_mode_nolock@D@@YAHHQADI@Z 0041db48 f   libucrt:read.obj
 0001:0001cc9f       ??$translate_text_mode_nolock@_W@@YAHHQA_WI@Z 0041dc9f f   libucrt:read.obj
 0001:0001ce5f       ?translate_ansi_or_utf8_nolock@@YAHHQADIQA_WI@Z 0041de5f f   libucrt:read.obj
 0001:0001cfaf       ?translate_utf16_from_console_nolock@@YAHHQA_WI@Z 0041dfaf f   libucrt:read.obj
 0001:0001d750       ?InternalCompareStringA@@YAHPAU__crt_locale_pointers@@PB_WKPBDH2HH@Z 0041e750 f   libucrt:comparestringa.obj
 0001:0001da40       ___get_abstract_control_sse2 0041ea40 f   libucrt:_fenvutils.obj
 0001:0001dabd       ___get_abstract_control_x87 0041eabd f   libucrt:_fenvutils.obj
 0001:0001db30       ___get_machine_control     0041eb30 f   libucrt:_fenvutils.obj
 0001:0001dba1       ___get_machine_control_sse2 0041eba1 f   libucrt:_fenvutils.obj
 0001:0001dc21       ___get_machine_status_sse2 0041ec21 f   libucrt:_fenvutils.obj
 0001:0001dc82       ___get_machine_status_x87  0041ec82 f   libucrt:_fenvutils.obj
 0001:0001dee0       $$000000                   0041eee0     libucrt:log10_pentium4.obj
 0001:0001e170       $$000000                   0041f170     libucrt:87tran.obj
 0001:0001e370       $$000000                   0041f370     libucrt:common.obj
 0001:0001e500       $$000000                   0041f500     libucrt:genexcep.obj
 0001:0001ec00       $$000000                   0041fc00     LIBCMT:ulldvrm.obj
 0001:0001eca0       $$000000                   0041fca0     LIBCMT:_sehprolg4gs_.obj
 0001:0001ed00       $$000000                   0041fd00     LIBCMT:lldvrm.obj
 0001:0001ede0       $$000000                   0041fde0     LIBCMT:ullshr.obj
 0001:0001ee00       $$000000                   0041fe00     LIBCMT:alloca16.obj
 0001:0001ee30       $$000000                   0041fe30     LIBCMT:llshl.obj
 0001:0001ee50       $$000000                   0041fe50     LIBCMT:_ftol2_.obj
 0001:0001ef10       $$000000                   0041ff10     LIBCMT:chkstk.obj
 0001:0001ef50       $$000000                   0041ff50     libvcruntime:strrchr.obj
 0002:000001c4       ?pre_cpp_initializer@@3P6AXXZA 004211c4     LIBCMT:exe_main.obj
 0002:000001d0       ?pre_c_initializer@@3P6AHXZA 004211d0     LIBCMT:exe_main.obj
 0002:000001d4       ?post_pgo_initializer@@3P6AHXZA 004211d4     LIBCMT:exe_main.obj
 0002:00000210       _err_str                   00421210     pjlib-util-i386-win32-vc8-release-static:errno.obj
 0002:00001130       ?SHORTCUT@?8??get_pattern_match_shortcut@@9@9 00422130     pjlib-util-i386-win32-vc8-release-static:cli.obj
 0002:00001138       ?SHORTCUT@?L@??get_pattern_match_cmds@@9@9 00422138     pjlib-util-i386-win32-vc8-release-static:cli.obj
 0002:000012d4       ?ERR_MSG@?1??send_inv_arg@@9@9 004222d4     pjlib-util-i386-win32-vc8-release-static:cli_console.obj
 0002:000012dc       ?ERR_MSG@?1??send_too_many_arg@@9@9 004222dc     pjlib-util-i386-win32-vc8-release-static:cli_console.obj
 0002:000012e4       ?sc_type@?1??send_ambi_arg@@9@9 004222e4     pjlib-util-i386-win32-vc8-release-static:cli_console.obj
 0002:000012ec       ?choice_type@?1??send_ambi_arg@@9@9 004222ec     pjlib-util-i386-win32-vc8-release-static:cli_console.obj
 0002:00001408       ?bell@?1??send_bell@@9@9   00422408     pjlib-util-i386-win32-vc8-release-static:cli_telnet.obj
 0002:00001409       ?move_cursor_left@?1??handle_left_key@@9@9 00422409     pjlib-util-i386-win32-vc8-release-static:cli_telnet.obj
 0002:0000140c       ?ERR_MSG@?1??send_inv_arg@@9@9 0042240c     pjlib-util-i386-win32-vc8-release-static:cli_telnet.obj
 0002:00001414       ?ERR_MSG@?1??send_too_many_arg@@9@9 00422414     pjlib-util-i386-win32-vc8-release-static:cli_telnet.obj
 0002:0000141c       ?sc_type@?1??send_ambi_arg@@9@9 0042241c     pjlib-util-i386-win32-vc8-release-static:cli_telnet.obj
 0002:00001424       ?choice_type@?1??send_ambi_arg@@9@9 00422424     pjlib-util-i386-win32-vc8-release-static:cli_telnet.obj
 0002:0000142c       ?echo@?4??handle_backspace@@9@9 0042242c     pjlib-util-i386-win32-vc8-release-static:cli_telnet.obj
 0002:00001430       ?CR_LF@?1??telnet_sess_send_with_format@@9@9 00422430     pjlib-util-i386-win32-vc8-release-static:cli_telnet.obj
 0002:00001750       _err_str                   00422750     pjlib-i386-win32-vc8-release-static:errno.obj
 0002:00001fb0       _gaErrorList               00422fb0     pjlib-i386-win32-vc8-release-static:os_error_win32.obj
 0002:000029b0       _GS_ExceptionPointers      004239b0     LIBCMT:gs_report.obj
 0002:000029c0       _Int32ToUInt32             004239c0     LIBCMT:_ftol3_.obj
 0002:000029c8       _DP2to32                   004239c8     LIBCMT:_ftol3_.obj
 0002:000029d0       _MantissaMask              004239d0     LIBCMT:_ftol3_.obj
 0002:000029d8       _IntegerBit                004239d8     LIBCMT:_ftol3_.obj
 0002:000029e0       _SignBit64                 004239e0     LIBCMT:_ftol3_.obj
 0002:000029e8       _MinFP64                   004239e8     LIBCMT:_ftol3_.obj
 0002:000029f0       _MinInt64                  004239f0     LIBCMT:_ftol3_.obj
 0002:000029f8       _MaxInt64                  004239f8     LIBCMT:_ftol3_.obj
 0002:00002a00       _MaxUInt64                 00423a00     LIBCMT:_ftol3_.obj
 0002:00002a08       _MaxFP32                   00423a08     LIBCMT:_ftol3_.obj
 0002:00002a10       _MinFP32                   00423a10     LIBCMT:_ftol3_.obj
 0002:00002a18       _MinSubInexact             00423a18     LIBCMT:_ftol3_.obj
 0002:00002a20       _FpExcptTable              00423a20     LIBCMT:_ftol3_.obj
 0002:00002a30       _i1075                     00423a30     LIBCMT:_ftol3_.obj
 0002:00002a34       _i1087                     00423a34     LIBCMT:_ftol3_.obj
 0002:00002a38       _x0800                     00423a38     LIBCMT:_ftol3_.obj
 0002:00002a3c       _x17FF                     00423a3c     LIBCMT:_ftol3_.obj
 0002:00002a40       _CWMask                    00423a40     LIBCMT:_ftol3_.obj
 0002:00002a44       ?module_names@?A0x89697e75@@3QBQB_WB 00423a44     libvcruntime:winapi_downlevel.obj
 0002:00002af4       ?candidate_modules@?1??try_get_FlsAlloc@@YAP6GKP6GXPAX@Z@ZXZ@4QBW4module_id@?A0x89697e75@@B 00423af4     libvcruntime:winapi_downlevel.obj
 0002:00002b08       ?candidate_modules@?1??try_get_FlsFree@@YAP6GHK@ZXZ@4QBW4module_id@?A0x89697e75@@B 00423b08     libvcruntime:winapi_downlevel.obj
 0002:00002b24       ?candidate_modules@?1??try_get_FlsSetValue@@YAP6GHKPAX@ZXZ@4QBW4module_id@?A0x89697e75@@B 00423b24     libvcruntime:winapi_downlevel.obj
 0002:00002b38       ?candidate_modules@?1??try_get_InitializeCriticalSectionEx@@YAP6GHPAU_RTL_CRITICAL_SECTION@@KK@ZXZ@4QBW4module_id@?A0x89697e75@@B 00423b38     libvcruntime:winapi_downlevel.obj
 0002:00002b60       ?tokenTable@@3QBQBDB       00423b60     libvcruntime:undname.obj
 0002:00002b98       ?nameTable@@3QBQBDB        00423b98     libvcruntime:undname.obj
 0002:00002cdc       ?rttiTable@@3QBQBDB        00423cdc     libvcruntime:undname.obj
 0002:000034e8       ?_names@?1??_get_fname@@9@9 004244e8     libucrt:fpexcept.obj
 0002:000035f8       ___acrt_initializers       004245f8     libucrt:initialization.obj
 0002:00003670       _errtable                  00424670     libucrt:errno.obj
 0002:00003cc8       _module_names              00424cc8     libucrt:winapi_thunks.obj
 0002:00004168       ?candidate_modules@?1??try_get_AreFileApisANSI@@YAP6GHXZXZ@4QBW4module_id@?A0x352e5c4b@@B 00425168     libucrt:winapi_thunks.obj
 0002:0000417c       ?candidate_modules@?1??try_get_CompareStringEx@@YAP6GHPB_WK0H0HPAU_nlsversioninfo@@PAXJ@ZXZ@4QBW4module_id@?A0x352e5c4b@@B 0042517c     libucrt:winapi_thunks.obj
 0002:00004194       ?candidate_modules@?1??try_get_FlsAlloc@@YAP6GKP6GXPAX@Z@ZXZ@4QBW4module_id@?A0x352e5c4b@@B 00425194     libucrt:winapi_thunks.obj
 0002:0000419c       ?candidate_modules@?1??try_get_FlsFree@@YAP6GHK@ZXZ@4QBW4module_id@?A0x352e5c4b@@B 0042519c     libucrt:winapi_thunks.obj
 0002:000041a4       ?candidate_modules@?1??try_get_FlsGetValue@@YAP6GPAXK@ZXZ@4QBW4module_id@?A0x352e5c4b@@B 004251a4     libucrt:winapi_thunks.obj
 0002:000041ac       ?candidate_modules@?1??try_get_FlsSetValue@@YAP6GHKPAX@ZXZ@4QBW4module_id@?A0x352e5c4b@@B 004251ac     libucrt:winapi_thunks.obj
 0002:000041b4       ?candidate_modules@?1??try_get_GetCurrentPackageId@@YAP6GJPAIPAE@ZXZ@4QBW4module_id@?A0x352e5c4b@@B 004251b4     libucrt:winapi_thunks.obj
 0002:000041d0       ?candidate_modules@?1??try_get_InitializeCriticalSectionEx@@YAP6GHPAU_RTL_CRITICAL_SECTION@@KK@ZXZ@4QBW4module_id@?A0x352e5c4b@@B 004251d0     libucrt:winapi_thunks.obj
 0002:000041d8       ?candidate_modules@?1??try_get_LCMapStringEx@@YAP6GHPB_WK0HPA_WHPAU_nlsversioninfo@@PAXJ@ZXZ@4QBW4module_id@?A0x352e5c4b@@B 004251d8     libucrt:winapi_thunks.obj
 0002:000041f0       ?candidate_modules@?1??try_get_LocaleNameToLCID@@YAP6GKPB_WK@ZXZ@4QBW4module_id@?A0x352e5c4b@@B 004251f0     libucrt:winapi_thunks.obj
 0002:00004830       DblMax                     00425830     libucrt:87cdisp.obj
 0002:00004838       DblMin                     00425838     libucrt:87cdisp.obj
 0002:00004840       IeeeAdjO                   00425840     libucrt:87cdisp.obj
 0002:00004848       IeeeAdjU                   00425848     libucrt:87cdisp.obj
 0002:00004850       _infinity                  00425850     libucrt:87cdisp.obj
 0002:00004858       _zero                      00425858     libucrt:87cdisp.obj
 0002:0000487e       One                        0042587e     libucrt:87disp.obj
 0002:00004886       Three                      00425886     libucrt:87disp.obj
 0002:0000488e       XAMtoTagTab                0042588e     libucrt:87disp.obj
 0002:000048a0       __mb_locale_names          004258a0     libucrt:mbctype.obj
 0002:00004900       _over                      00425900     libucrt:fpctrl.obj
 0002:0000490c       _under                     0042590c     libucrt:fpctrl.obj
 0002:00005300       _LcidToLocaleNameTable     00426300     libucrt:lcidtoname_downlevel.obj
 0002:00006420       _LocaleNameToIndexTable    00427420     libucrt:lcidtoname_downlevel.obj
 0002:00007370       LOG_name                   00428370     libucrt:log10.obj
 0002:00007380       _One                       00428380     libucrt:ceil_pentium4.obj
 0002:00007390       _Bns                       00428390     libucrt:ceil_pentium4.obj
 0002:000073a0       _Zero                      004283a0     libucrt:ceil_pentium4.obj
 0002:000073b0       _S                         004283b0     libucrt:ceil_pentium4.obj
 0002:000073c0       _NegZero                   004283c0     libucrt:ceil_pentium4.obj
 0002:000073d0       emask                      004283d0     libucrt:log10_pentium4.obj
 0002:000073e0       CC                         004283e0     libucrt:log10_pentium4.obj
 0002:000073f0       Magic                      004283f0     libucrt:log10_pentium4.obj
 0002:00007400       hi_mask                    00428400     libucrt:log10_pentium4.obj
 0002:00007410       LOG10_2                    00428410     libucrt:log10_pentium4.obj
 0002:00007420       place_L                    00428420     libucrt:log10_pentium4.obj
 0002:00007440       One                        00428440     libucrt:log10_pentium4.obj
 0002:00007450       Zero                       00428450     libucrt:log10_pentium4.obj
 0002:00007460       Two52                      00428460     libucrt:log10_pentium4.obj
 0002:00007470       Infs                       00428470     libucrt:log10_pentium4.obj
 0002:00007480       NaN                        00428480     libucrt:log10_pentium4.obj
 0002:00007490       coeff                      00428490     libucrt:log10_pentium4.obj
 0002:000074ee       _log2max                   004284ee     libucrt:87tran.obj
 0002:000074f8       _smallarg                  004284f8     libucrt:87tran.obj
 0002:00007502       _half                      00428502     libucrt:87tran.obj
 0002:00007530       One                        00428530     libucrt:common.obj
 0002:00007544       DblMax                     00428544     libucrt:common.obj
 0002:0000754c       DblMin                     0042854c     libucrt:common.obj
 0002:00007554       IeeeAdjO                   00428554     libucrt:common.obj
 0002:0000755c       IeeeAdjU                   0042855c     libucrt:common.obj
 0002:00007564       _infinity                  00428564     libucrt:common.obj
 0002:0000756c       _zero                      0042856c     libucrt:common.obj
 0002:00008100       __sehtable$?__scrt_common_main_seh@@YAHXZ 00429100     LIBCMT:exe_main.obj
 0002:00008120       __sehtable$___scrt_is_nonwritable_in_current_image 00429120     LIBCMT:utility.obj
 0002:00008140       __sehtable$__rt_probe_read4@4 00429140     libvcruntime:_sehsupp_.obj
 0002:00008160       __sehtable$??$?RV<lambda_db08b09ef7aa9d4f8620ce68402612bc>@@AAV<lambda_4f2c1eaeead2a5fc776db5b62ea0fb9b>@@V<lambda_3ae262bc35d4ba6a3825c4f6bcaaf95c>@@@?$__crt_seh_guarded_call@H@@QAEH$$QAV<lambda_db08b09ef7aa9d4f8620ce68402612bc>@@AAV<lambda_4f2c1eaeead2a5fc776db5b62ea0fb9b>@@$$QAV<lambda_3ae262bc35d4ba6a3825c4f6bcaaf95c>@@@Z 00429160     libucrt:output.obj
 0002:00008180       __sehtable$??$common_fgets@D@@YAPADQADHV__crt_stdio_stream@@@Z 00429180     libucrt:fgets.obj
 0002:000081a0       __sehtable$??$common_freopen@D@@YAHQAPAU_iobuf@@QBD1V__crt_stdio_stream@@H@Z 004291a0     libucrt:freopen.obj
 0002:000081c0       __sehtable$??$?RV<lambda_1fb4243d5e107ad4daf16ff362ca4a34>@@AAV<lambda_55f9cbce55698c0319f95c01c080475b>@@V<lambda_d740392b9cecdfa14abfd902a66ab607>@@@?$__crt_seh_guarded_call@H@@QAEH$$QAV<lambda_1fb4243d5e107ad4daf16ff362ca4a34>@@AAV<lambda_55f9cbce55698c0319f95c01c080475b>@@$$QAV<lambda_d740392b9cecdfa14abfd902a66ab607>@@@Z 004291c0     libucrt:puts.obj
 0002:000081e0       __sehtable$?common_exit@@YAXHW4_crt_exit_cleanup_mode@@W4_crt_exit_return_mode@@@Z 004291e0     libucrt:exit.obj
 0002:00008208       __sehtable$___acrt_uninitialize_locale 00429208     libucrt:wsetlocale.obj
 0002:00008228       __sehtable$??$?RV<lambda_800076c951b434888f4765a74a194fcc>@@AAV<lambda_4e60a939b0d047cfe11ddc22648dfba9>@@V<lambda_6dbb1268764f43b569ce7b67e331d33a>@@@?$__crt_seh_guarded_call@H@@QAEH$$QAV<lambda_800076c951b434888f4765a74a194fcc>@@AAV<lambda_4e60a939b0d047cfe11ddc22648dfba9>@@$$QAV<lambda_6dbb1268764f43b569ce7b67e331d33a>@@@Z 00429228     libucrt:onexit.obj
 0002:00008248       __sehtable$??$?RV<lambda_995298e7d72eb4c2aab26c0585b3abe5>@@AAV<lambda_275893d493268fdec8709772e3fcec0e>@@V<lambda_293819299cbf9a7022e18b56a874bb5c>@@@?$__crt_seh_guarded_call@H@@QAEH$$QAV<lambda_995298e7d72eb4c2aab26c0585b3abe5>@@AAV<lambda_275893d493268fdec8709772e3fcec0e>@@$$QAV<lambda_293819299cbf9a7022e18b56a874bb5c>@@@Z 00429248     libucrt:onexit.obj
 0002:00008268       __sehtable$_terminate      00429268     libucrt:terminate.obj
 0002:00008288       __sehtable$??$?RV<lambda_9df27f884b057bc3edfc946cb5b7cf47>@@AAV<lambda_e69574bed617af4e071282c136b37893>@@V<lambda_cc0d902bcbbeb830f749456577db4721>@@@?$__crt_seh_guarded_call@X@@QAEX$$QAV<lambda_9df27f884b057bc3edfc946cb5b7cf47>@@AAV<lambda_e69574bed617af4e071282c136b37893>@@$$QAV<lambda_cc0d902bcbbeb830f749456577db4721>@@@Z 00429288     libucrt:per_thread_data.obj
 0002:000082a8       __sehtable$??$?RV<lambda_3518db117f0e7cdb002338c5d3c47b6c>@@AAV<lambda_b2ea41f6bbb362cd97d94c6828d90b61>@@V<lambda_abdedf541bb04549bc734292b4a045d4>@@@?$__crt_seh_guarded_call@X@@QAEX$$QAV<lambda_3518db117f0e7cdb002338c5d3c47b6c>@@AAV<lambda_b2ea41f6bbb362cd97d94c6828d90b61>@@$$QAV<lambda_abdedf541bb04549bc734292b4a045d4>@@@Z 004292a8     libucrt:per_thread_data.obj
 0002:000082c8       __sehtable$??$?RV<lambda_51b6e8b1eb166f2a3faf91f424b38130>@@AAV<lambda_6250bd4b2a391816dd638c3bf72b0bcb>@@V<lambda_0b5a4a3e68152e1d9b943535f5f47bed>@@@?$__crt_seh_guarded_call@X@@QAEX$$QAV<lambda_51b6e8b1eb166f2a3faf91f424b38130>@@AAV<lambda_6250bd4b2a391816dd638c3bf72b0bcb>@@$$QAV<lambda_0b5a4a3e68152e1d9b943535f5f47bed>@@@Z 004292c8     libucrt:per_thread_data.obj
 0002:000082e8       __sehtable$??$?RV<lambda_5b71d36f03204c0beab531769a5b5694>@@AAV<lambda_be2b3da3f62db62e9dad5dc70221a656>@@V<lambda_8f9ce462984622f9bf76b59e2aaaf805>@@@?$__crt_seh_guarded_call@X@@QAEX$$QAV<lambda_5b71d36f03204c0beab531769a5b5694>@@AAV<lambda_be2b3da3f62db62e9dad5dc70221a656>@@$$QAV<lambda_8f9ce462984622f9bf76b59e2aaaf805>@@@Z 004292e8     libucrt:per_thread_data.obj
 0002:00008308       __sehtable$___acrt_initialize_lowio 00429308     libucrt:ioinit.obj
 0002:00008328       __sehtable$__fcloseall     00429328     libucrt:closeall.obj
 0002:00008348       __sehtable$_common_flush_all 00429348     libucrt:fflush.obj
 0002:00008370       __sehtable$_fclose         00429370     libucrt:fclose.obj
 0002:00008390       __sehtable$___acrt_update_thread_multibyte_data 00429390     libucrt:mbctype.obj
 0002:000083b0       __sehtable$??$?RV<lambda_978dc153c237d78434369da87b74ff60>@@AAV<lambda_ad1ced32f4ac17aa236e5ef05d6b3b7c>@@V<lambda_4a8533e2866a575feecb8298ce776b0d>@@@?$__crt_seh_guarded_call@X@@QAEX$$QAV<lambda_978dc153c237d78434369da87b74ff60>@@AAV<lambda_ad1ced32f4ac17aa236e5ef05d6b3b7c>@@$$QAV<lambda_4a8533e2866a575feecb8298ce776b0d>@@@Z 004293b0     libucrt:mbctype.obj
 0002:000083d0       __sehtable$__alloc_osfhnd  004293d0     libucrt:osfinfo.obj
 0002:000083f0       __sehtable$___acrt_lowio_ensure_fh_exists 004293f0     libucrt:osfinfo.obj
 0002:00008410       __sehtable$___acrt_update_thread_locale_data 00429410     libucrt:locale_refcounting.obj
 0002:00008430       __sehtable$___set_fpsr_sse2 00429430     libucrt:fpctrl.obj
 0002:00008450       __sehtable$__query_new_handler 00429450     libucrt:new_handler.obj
 0002:00008470       __sehtable$_raise          00429470     libucrt:signal.obj
 0002:00008490       __sehtable$??$?RV<lambda_a048d3beccc847880fc8490e18b82769>@@AAV<lambda_ec61778202f4f5fc7e7711acc23c3bca>@@V<lambda_f7496a158712204296dd6628a163878e>@@@?$__crt_seh_guarded_call@P6AXH@Z@@QAEP6AXH@Z$$QAV<lambda_a048d3beccc847880fc8490e18b82769>@@AAV<lambda_ec61778202f4f5fc7e7711acc23c3bca>@@$$QAV<lambda_f7496a158712204296dd6628a163878e>@@@Z 00429490     libucrt:signal.obj
 0002:000084b0       __sehtable$??$?RV<lambda_61cee617f5178ae960314fd4d05640a0>@@AAV<lambda_6978c1fb23f02e42e1d9e99668cc68aa>@@V<lambda_9cd88cf8ad10232537feb2133f08c833>@@@?$__crt_seh_guarded_call@H@@QAEH$$QAV<lambda_61cee617f5178ae960314fd4d05640a0>@@AAV<lambda_6978c1fb23f02e42e1d9e99668cc68aa>@@$$QAV<lambda_9cd88cf8ad10232537feb2133f08c833>@@@Z 004294b0     libucrt:commit.obj
 0002:000084d0       __sehtable$__write         004294d0     libucrt:write.obj
 0002:000084f0       __sehtable$??$?RV<lambda_123407a5e2ac06da108355a851863b7a>@@AAV<lambda_2fe9b910cf3cbf4a0ab98a02ba45b3ec>@@V<lambda_ae55bdf541ad94d75914d381c370e64d>@@@?$__crt_seh_guarded_call@H@@QAEH$$QAV<lambda_123407a5e2ac06da108355a851863b7a>@@AAV<lambda_2fe9b910cf3cbf4a0ab98a02ba45b3ec>@@$$QAV<lambda_ae55bdf541ad94d75914d381c370e64d>@@@Z 004294f0     libucrt:close.obj
 0002:00008510       __sehtable$??$common_sopen_dispatch@D@@YAHQBDHHHQAHH@Z 00429510     libucrt:open.obj
 0002:00008530       __sehtable$??$common_lseek@_J@@YA_JH_JH@Z 00429530     libucrt:lseek.obj
 0002:00008550       __sehtable$__read          00429550     libucrt:read.obj
 0002:00008570       __sehtable$__IsNonwritableInCurrentImage 00429570     LIBCMT:pesect.obj
 0002:000087a8       .idata$6                   004297a8     ole32:ole32.dll
 0002:000087cc       .idata$6                   004297cc     ws2_32:WS2_32.dll
 0002:00008b06       .idata$6                   00429b06     kernel32:KERNEL32.dll
 0003:00000000       $SG3298                    0042a000     clidemo.obj
 0003:00000014       $SG3299                    0042a014     clidemo.obj
 0003:00000028       $SG12014                   0042a028     clidemo.obj
 0003:00000038       $SG12029                   0042a038     clidemo.obj
 0003:00000044       $SG12045                   0042a044     clidemo.obj
 0003:00000050       $SG12057                   0042a050     clidemo.obj
 0003:00000058       $SG12058                   0042a058     clidemo.obj
 0003:00000064       $SG12059                   0042a064     clidemo.obj
 0003:0000006c       $SG12060                   0042a06c     clidemo.obj
 0003:00000078       _cmd_xmls                  0042a078     clidemo.obj
 0003:000000a8       $SG12064                   0042a0a8     clidemo.obj
 0003:00000138       $SG12065                   0042a138     clidemo.obj
 0003:000001b8       $SG12066                   0042a1b8     clidemo.obj
 0003:00000270       $SG12067                   0042a270     clidemo.obj
 0003:00000480       $SG12068                   0042a480     clidemo.obj
 0003:00000560       $SG12069                   0042a560     clidemo.obj
 0003:000005ac       $SG12096                   0042a5ac     clidemo.obj
 0003:000005b8       $SG12097                   0042a5b8     clidemo.obj
 0003:000005cc       $SG12100                   0042a5cc     clidemo.obj
 0003:000005d8       $SG12117                   0042a5d8     clidemo.obj
 0003:000005e4       $SG12123                   0042a5e4     clidemo.obj
 0003:000005f0       $SG12124                   0042a5f0     clidemo.obj
 0003:000005fc       ?choice_str@?BA@??get_match_args@@9@9 0042a5fc     pjlib-util-i386-win32-vc8-release-static:cli.obj
 0003:0000061c       _thread_tls_id             0042a61c     pjlib-i386-win32-vc8-release-static:os_core_win32.obj
 0003:00000620       _thread_suspended_tls_id   0042a620     pjlib-i386-win32-vc8-release-static:log.obj
 0003:00000624       _thread_indent_tls_id      0042a624     pjlib-i386-win32-vc8-release-static:log.obj
 0003:00000628       _pj_log_max_level          0042a628     pjlib-i386-win32-vc8-release-static:log.obj
 0003:0000062c       _log_writer                0042a62c     pjlib-i386-win32-vc8-release-static:log.obj
 0003:00000630       _log_decor                 0042a630     pjlib-i386-win32-vc8-release-static:log.obj
 0003:00000634       _PJ_LOG_COLOR_0            0042a634     pjlib-i386-win32-vc8-release-static:log.obj
 0003:00000638       _PJ_LOG_COLOR_1            0042a638     pjlib-i386-win32-vc8-release-static:log.obj
 0003:0000063c       _PJ_LOG_COLOR_2            0042a63c     pjlib-i386-win32-vc8-release-static:log.obj
 0003:00000640       _PJ_LOG_COLOR_3            0042a640     pjlib-i386-win32-vc8-release-static:log.obj
 0003:00000644       _PJ_LOG_COLOR_4            0042a644     pjlib-i386-win32-vc8-release-static:log.obj
 0003:00000648       _PJ_LOG_COLOR_5            0042a648     pjlib-i386-win32-vc8-release-static:log.obj
 0003:0000064c       _PJ_LOG_COLOR_6            0042a64c     pjlib-i386-win32-vc8-release-static:log.obj
 0003:00000650       _PJ_LOG_COLOR_77           0042a650     pjlib-i386-win32-vc8-release-static:log.obj
 0003:00000654       ?ltexts@?2??pj_log@@9@9    0042a654     pjlib-i386-win32-vc8-release-static:log.obj
 0003:00000670       ?wdays@?3??pj_log@@9@9     0042a670     pjlib-i386-win32-vc8-release-static:log.obj
 0003:00000690       _pool_sizes                0042a690     pjlib-i386-win32-vc8-release-static:pool_caching.obj
 0003:000006d0       _thread_local_id           0042a6d0     pjlib-i386-win32-vc8-release-static:except.obj
 0003:000006d4       ?hex@?1??hex2digit@@9@9    0042a6d4     pjlib-i386-win32-vc8-release-static:guid_win32.obj
 0003:000006e8       _id                        0042a6e8     pjlib-i386-win32-vc8-release-static:config.obj
 0003:000006ec       _null_lock_template        0042a6ec     pjlib-i386-win32-vc8-release-static:lock.obj
 0003:00000700       _sem_lock_template         0042a700     pjlib-i386-win32-vc8-release-static:lock.obj
 0003:00000714       _mutex_lock_template       0042a714     pjlib-i386-win32-vc8-release-static:lock.obj
 0003:00000728       _tls                       0042a728     pjlib-i386-win32-vc8-release-static:pool_buf.obj
 0003:00000780       ?__vcrt_flsindex@@3KA      0042a780     libvcruntime:per_thread_data.obj
 0003:00000834       _errno_no_memory           0042a834     libucrt:errno.obj
 0003:00000838       _doserrno_no_memory        0042a838     libucrt:errno.obj
 0003:0000083c       ___acrt_flsindex           0042a83c     libucrt:per_thread_data.obj
 0003:00000940       ___rgctypeflag             0042a940     libucrt:mbctype.obj
 0003:00000948       ___rgcode_page_info        0042a948     libucrt:mbctype.obj
 0003:00000ec4       ?__DAZ_ENABLED@?1??__set_fpsr_sse2@@9@9 0042aec4     libucrt:fpctrl.obj
 0003:00000fe0       _cli                       0042afe0     clidemo.obj
 0003:00000fe4       $SG12015                   0042afe4     clidemo.obj
 0003:00000fe5       $SG12030                   0042afe5     clidemo.obj
 0003:00000fe6       $SG12046                   0042afe6     clidemo.obj
 0003:00000fe8       _initialized               0042afe8     pjlib-i386-win32-vc8-release-static:os_core_win32.obj
 0003:00000fec       _atexit_count              0042afec     pjlib-i386-win32-vc8-release-static:os_core_win32.obj
 0003:00000ff0       _main_thread               0042aff0     pjlib-i386-win32-vc8-release-static:os_core_win32.obj
 0003:000010f0       _critical_section_mutex    0042b0f0     pjlib-i386-win32-vc8-release-static:os_core_win32.obj
 0003:00001128       _atexit_func               0042b128     pjlib-i386-win32-vc8-release-static:os_core_win32.obj
 0003:000011a8       _err_msg_hnd_cnt           0042b1a8     pjlib-i386-win32-vc8-release-static:errno.obj
 0003:000011b0       _err_msg_hnd               0042b1b0     pjlib-i386-win32-vc8-release-static:errno.obj
 0003:00001228       _g_last_thread             0042b228     pjlib-i386-win32-vc8-release-static:log.obj
 0003:00001230       _exception_id_names        0042b230     pjlib-i386-win32-vc8-release-static:except.obj
 0003:00001270       ?unknown_name@?1??pj_exception_id_name@@9@9 0042b270     pjlib-i386-win32-vc8-release-static:except.obj
 0003:00001290       ?buf@?1??pj_gethostname@@9@9 0042b290     pjlib-i386-win32-vc8-release-static:sock_bsd.obj
 0003:00001310       ?hostname@?1??pj_gethostname@@9@9 0042b310     pjlib-i386-win32-vc8-release-static:sock_bsd.obj
 0003:00001318       _base_time                 0042b318     pjlib-i386-win32-vc8-release-static:os_time_win32.obj
 0003:00001320       _stack_based_factory       0042b320     pjlib-i386-win32-vc8-release-static:pool_buf.obj
 0003:00001344       _is_initialized            0042b344     pjlib-i386-win32-vc8-release-static:pool_buf.obj
 0003:00001348       _s_hDLL                    0042b348     pjlib-i386-win32-vc8-release-static:ip_helper_win32.obj
 0003:0000134c       _s_pfnGetIpAddrTable       0042b34c     pjlib-i386-win32-vc8-release-static:ip_helper_win32.obj
 0003:00001350       _s_pfnGetAdapterAddresses  0042b350     pjlib-i386-win32-vc8-release-static:ip_helper_win32.obj
 0003:00001354       _s_pfnGetIpForwardTable    0042b354     pjlib-i386-win32-vc8-release-static:ip_helper_win32.obj
 0003:00001358       _s_pfnGetIfEntry           0042b358     pjlib-i386-win32-vc8-release-static:ip_helper_win32.obj
 0003:00001360       _GS_ExceptionRecord        0042b360     LIBCMT:gs_report.obj
 0003:000013b0       _GS_ContextRecord          0042b3b0     LIBCMT:gs_report.obj
 0003:00001684       ?module_local_atexit_table@@3U_onexit_table_t@@A 0042b684     LIBCMT:utility.obj
 0003:00001690       ?module_local_at_quick_exit_table@@3U_onexit_table_t@@A 0042b690     LIBCMT:utility.obj
 0003:0000169c       ?is_initialized_as_dll@@3_NA 0042b69c     LIBCMT:utility.obj
 0003:000016bc       ?__vcrt_startup_thread_ptd@@3U__vcrt_ptd@@A 0042b6bc     libvcruntime:per_thread_data.obj
 0003:000016e4       ___vcrt_lock_table         0042b6e4     libvcruntime:locks.obj
 0003:000016fc       ___vcrt_locks_initialized  0042b6fc     libvcruntime:locks.obj
 0003:00001700       ?module_handles@@3PAPAUHINSTANCE__@@A 0042b700     libvcruntime:winapi_downlevel.obj
 0003:00001710       ?encoded_function_pointers@@3PAPAXA 0042b710     libvcruntime:winapi_downlevel.obj
 0003:00001760       ?heap@@3V_HeapManager@@A   0042b760     libvcruntime:undname.obj
 0003:00001780       ___acrt_app_type           0042b780     libucrt:report_runtime_error.obj
 0003:00001784       _user_matherr              0042b784     libucrt:matherr.obj
 0003:00001788       ?program_name@?5???$common_configure_argv@D@@YAHW4_crt_argv_mode@@@Z@4PADA 0042b788     libucrt:argv_parsing.obj
 0003:000018a0       _c_termination_complete    0042b8a0     libucrt:exit.obj
 0003:000018a4       _thread_local_exit_callback_func 0042b8a4     libucrt:exit.obj
 0003:000018a8       ?c_exit_complete@?5??common_exit@@YAXHW4_crt_exit_cleanup_mode@@W4_crt_exit_return_mode@@@Z@4_NA 0042b8a8     libucrt:exit.obj
 0003:000018c8       ___acrt_global_new_mode    0042b8c8     libucrt:new_mode.obj
 0003:000018e8       ___acrt_invalid_parameter_handler 0042b8e8     libucrt:invalid_parameter.obj
 0003:000018ec       _enable_percent_n          0042b8ec     libucrt:printf_count_output.obj
 0003:00001b08       _module_handles            0042bb08     libucrt:winapi_thunks.obj
 0003:00001b58       _encoded_function_pointers 0042bb58     libucrt:winapi_thunks.obj
 0003:00001bd8       ?state_cache@?1??__acrt_is_packaged_app@@9@4JA 0042bbd8     libucrt:winapi_thunks.obj
 0003:00001bf4       _fSystemSet                0042bbf4     libucrt:mbctype.obj
 0003:00001bf8       ?initialized@?1??__acrt_initialize_multibyte@@9@4_NA 0042bbf8     libucrt:mbctype.obj
 0003:00001c00       ___acrt_lock_table         0042bc00     libucrt:locks.obj
 0003:00001d38       ___acrt_locks_initialized  0042bd38     libucrt:locks.obj
 0003:00001d4c       ___acrt_new_handler        0042bd4c     libucrt:new_handler.obj
 0003:00001d50       _ctrlc_action              0042bd50     libucrt:signal.obj
 0003:00001d54       _ctrlbreak_action          0042bd54     libucrt:signal.obj
 0003:00001d58       _abort_action              0042bd58     libucrt:signal.obj
 0003:00001d5c       _term_action               0042bd5c     libucrt:signal.obj
 0003:00001d68       __pmatherr_set             0042bd68     libucrt:libm_error.obj
 0004:00000000       __guard_fids____dcrt_uninitialize_environments_nolock 0042c000     libucrt:environment_initialization.obj
 0004:00000008       __guard_fids__             0042c008     libucrt:initialization.obj
 0004:00000068       __guard_fids____acrt_initialize_ptd 0042c068     libucrt:per_thread_data.obj
 0004:0000006c       __guard_fids__             0042c06c     libucrt:stdio_initializer.obj
 0004:00000070       __guard_fids__             0042c070     libucrt:stdio_initializer.obj
 0004:00000074       __guard_fids_??$expand_argument_wildcards@D@@YAHQAD0AAV?$argument_list@D@?A0xb0e4b824@@@Z 0042c074     libucrt:argv_wildcards.obj
 0004:00000078       __guard_fids__             0042c078     libucrt:locale_initializer.obj
 0004:0000007c       __guard_fids__             0042c07c     libucrt:multibyte_initializer.obj
 0004:00000080       __guard_fids____libm_error_support 0042c080     libucrt:libm_error.obj
 0004:00000084       __guard_fids__             0042c084     libucrt:sse2_initializer.obj
 0004:00000088       __guard_fids__             0042c088     libucrt:console_output_initializer.obj
 0004:0000008c       __guard_fids__             0042c08c     LIBCMT:exe_main.obj
 0004:00000090       __guard_fids__             0042c090     LIBCMT:exe_main.obj
 0004:00000094       __guard_fids__             0042c094     LIBCMT:exe_main.obj
 0004:00000098       __guard_fids_?pre_c_initialization@@YAHXZ 0042c098     LIBCMT:exe_main.obj
 0004:000000a0       __guard_fids____scrt_set_unhandled_exception_filter 0042c0a0     LIBCMT:utility_desktop.obj
 0004:000000a4       __guard_fids__             0042c0a4     LIBCMT:guard_support.obj
 0004:000000a8       __guard_fids____vcrt_initialize_ptd 0042c0a8     libvcruntime:per_thread_data.obj
