 confsample

 Timestamp is 597aac68 (Fri Jul 28 11:15:52 2017)

 Preferred load address is 00400000

 Start         Length     Name                   Class
 0001:00000000 00022134H .text$mn                CODE
 0002:00000000 00000280H .idata$5                DATA
 0002:00000280 00000004H .00cfg                  DATA
 0002:00000284 00000004H .CRT$XCA                DATA
 0002:00000288 00000004H .CRT$XCAA               DATA
 0002:0000028c 00000004H .CRT$XCZ                DATA
 0002:00000290 00000004H .CRT$XIA                DATA
 0002:00000294 00000004H .CRT$XIAA               DATA
 0002:00000298 00000004H .CRT$XIAC               DATA
 0002:0000029c 00000004H .CRT$XIZ                DATA
 0002:000002a0 00000004H .CRT$XPA                DATA
 0002:000002a4 00000004H .CRT$XPZ                DATA
 0002:000002a8 00000004H .CRT$XTA                DATA
 0002:000002ac 00000004H .CRT$XTZ                DATA
 0002:000002b0 00017840H .rdata                  DATA
 0002:00017af0 00000004H .rdata$sxdata           DATA
 0002:00017af4 00000250H .rdata$zzzdbg           DATA
 0002:00017d44 00000004H .rtc$IAA                DATA
 0002:00017d48 00000004H .rtc$IZZ                DATA
 0002:00017d4c 00000004H .rtc$TAA                DATA
 0002:00017d50 00000008H .rtc$TZZ                DATA
 0002:00017d58 0000003cH .xdata$x                DATA
 0002:00017d94 00000000H .edata                  DATA
 0002:00017d94 000000f0H .idata$2                DATA
 0002:00017e84 00000014H .idata$3                DATA
 0002:00017e98 00000280H .idata$4                DATA
 0002:00018118 00000a48H .idata$6                DATA
 0003:00000000 00003c40H .data                   DATA
 0003:00003c40 00001640H .bss                    DATA
 0004:00000000 00000020H .gfids$y                DATA
 0005:00000000 000005e0H _RDATA                  DATA

  Address         Publics by Value              Rva+Base       Lib:Object

 0000:00000000       ___guard_longjmp_count     00000000     <absolute>
 0000:00000000       ___guard_longjmp_table     00000000     <absolute>
 0000:00000000       ___guard_iat_table         00000000     <absolute>
 0000:00000000       ___guard_iat_count         00000000     <absolute>
 0000:00000000       ___guard_fids_count        00000000     <absolute>
 0000:00000000       ___guard_fids_table        00000000     <absolute>
 0000:00000000       ___dynamic_value_reloc_table 00000000     <absolute>
 0000:00000001       ___safe_se_handler_count   00000001     <absolute>
 0000:00000100       ___guard_flags             00000100     <absolute>
 0000:00000000       ___ImageBase               00400000     <linker-defined>
 0001:00000070       _get_snd_options           00401070 f   confsample.obj
 0001:00000460       _dump_pool_usage           00401460 f   confsample.obj
 0001:00000890       _main                      00401890 f   confsample.obj
 0001:00001260       ___local_stdio_printf_options 00402260 f i confsample.obj
 0001:00001270       _printf                    00402270 f i confsample.obj
 0001:000012a0       _sprintf                   004022a0 f i confsample.obj
 0001:000012e0       _pjmedia_port_destroy      004022e0 f   pjmedia-i386-win32-vc8-release:port.obj
 0001:00001310       _pjmedia_port_get_frame    00402310 f   pjmedia-i386-win32-vc8-release:port.obj
 0001:00001350       _pjmedia_port_info_init    00402350 f   pjmedia-i386-win32-vc8-release:port.obj
 0001:000013e0       _pjmedia_port_put_frame    004023e0 f   pjmedia-i386-win32-vc8-release:port.obj
 0001:00001410       __snprintf                 00402410 f i pjmedia-i386-win32-vc8-release:conference.obj
 0001:00001b40       _pjmedia_conf_add_port     00402b40 f   pjmedia-i386-win32-vc8-release:conference.obj
 0001:00001c40       _pjmedia_conf_adjust_rx_level 00402c40 f   pjmedia-i386-win32-vc8-release:conference.obj
 0001:00001cb0       _pjmedia_conf_adjust_tx_level 00402cb0 f   pjmedia-i386-win32-vc8-release:conference.obj
 0001:00001d20       _pjmedia_conf_connect_port 00402d20 f   pjmedia-i386-win32-vc8-release:conference.obj
 0001:00001e00       _pjmedia_conf_create       00402e00 f   pjmedia-i386-win32-vc8-release:conference.obj
 0001:00001f80       _pjmedia_conf_destroy      00402f80 f   pjmedia-i386-win32-vc8-release:conference.obj
 0001:00002000       _pjmedia_conf_disconnect_port 00403000 f   pjmedia-i386-win32-vc8-release:conference.obj
 0001:00002100       _pjmedia_conf_get_port_info 00403100 f   pjmedia-i386-win32-vc8-release:conference.obj
 0001:000021b0       _pjmedia_conf_get_ports_info 004031b0 f   pjmedia-i386-win32-vc8-release:conference.obj
 0001:00002230       _pjmedia_conf_get_signal_level 00403230 f   pjmedia-i386-win32-vc8-release:conference.obj
 0001:00002a30       _pjmedia_endpt_create      00403a30 f   pjmedia-i386-win32-vc8-release:endpoint.obj
 0001:00002c10       _pjmedia_endpt_destroy     00403c10 f   pjmedia-i386-win32-vc8-release:endpoint.obj
 0001:00002ca0       _pjmedia_endpt_stop_threads 00403ca0 f   pjmedia-i386-win32-vc8-release:endpoint.obj
 0001:00003150       _pjmedia_wav_player_port_create 00404150 f   pjmedia-i386-win32-vc8-release:wav_player.obj
 0001:000038a0       _pjmedia_wav_writer_port_create 004048a0 f   pjmedia-i386-win32-vc8-release:wav_writer.obj
 0001:00003ba0       _pjmedia_format_get_audio_format_detail 00404ba0 f   pjmedia-i386-win32-vc8-release:format.obj
 0001:00003dc0       _pjmedia_delay_buf_create  00404dc0 f   pjmedia-i386-win32-vc8-release:delaybuf.obj
 0001:00003ef0       _pjmedia_delay_buf_destroy 00404ef0 f   pjmedia-i386-win32-vc8-release:delaybuf.obj
 0001:00003f50       _pjmedia_delay_buf_get     00404f50 f   pjmedia-i386-win32-vc8-release:delaybuf.obj
 0001:00004090       _pjmedia_delay_buf_put     00405090 f   pjmedia-i386-win32-vc8-release:delaybuf.obj
 0001:00004190       _pjmedia_delay_buf_reset   00405190 f   pjmedia-i386-win32-vc8-release:delaybuf.obj
 0001:00004370       _pjmedia_resample_create   00405370 f   pjmedia-i386-win32-vc8-release:resample_resample.obj
 0001:000045a0       _pjmedia_resample_run      004055a0 f   pjmedia-i386-win32-vc8-release:resample_resample.obj
 0001:00004790       _pjmedia_snd_port_connect  00405790 f   pjmedia-i386-win32-vc8-release:sound_port.obj
 0001:00004850       _pjmedia_snd_port_create   00405850 f   pjmedia-i386-win32-vc8-release:sound_port.obj
 0001:00004900       _pjmedia_snd_port_create2  00405900 f   pjmedia-i386-win32-vc8-release:sound_port.obj
 0001:00004a30       _pjmedia_snd_port_create_player 00405a30 f   pjmedia-i386-win32-vc8-release:sound_port.obj
 0001:00004ad0       _pjmedia_snd_port_destroy  00405ad0 f   pjmedia-i386-win32-vc8-release:sound_port.obj
 0001:00004b30       _pjmedia_snd_port_get_snd_stream 00405b30 f   pjmedia-i386-win32-vc8-release:sound_port.obj
 0001:00004b50       _pjmedia_snd_port_set_ec   00405b50 f   pjmedia-i386-win32-vc8-release:sound_port.obj
 0001:000051c0       _pjmedia_codec_mgr_destroy 004061c0 f   pjmedia-i386-win32-vc8-release:codec.obj
 0001:00005250       _pjmedia_codec_mgr_init    00406250 f   pjmedia-i386-win32-vc8-release:codec.obj
 0001:000052c0       _pjmedia_sdp_attr_create   004062c0 f   pjmedia-i386-win32-vc8-release:sdp.obj
 0001:00005320       _pjmedia_sdp_attr_find     00406320 f   pjmedia-i386-win32-vc8-release:sdp.obj
 0001:000053a0       _pjmedia_sdp_media_deactivate 004063a0 f   pjmedia-i386-win32-vc8-release:sdp.obj
 0001:000053d0       _pjmedia_sdp_media_find_attr 004063d0 f   pjmedia-i386-win32-vc8-release:sdp.obj
 0001:00005400       _pjmedia_strerror          00406400 f   pjmedia-i386-win32-vc8-release:errno.obj
 0001:00006020       _pjmedia_wsola_create      00407020 f   pjmedia-i386-win32-vc8-release:wsola.obj
 0001:000061e0       _pjmedia_wsola_discard     004071e0 f   pjmedia-i386-win32-vc8-release:wsola.obj
 0001:00006430       _pjmedia_wsola_generate    00407430 f   pjmedia-i386-win32-vc8-release:wsola.obj
 0001:000064f0       _pjmedia_wsola_reset       004074f0 f   pjmedia-i386-win32-vc8-release:wsola.obj
 0001:00006550       _pjmedia_wsola_save        00407550 f   pjmedia-i386-win32-vc8-release:wsola.obj
 0001:00006920       _pjmedia_clock_src_init    00407920 f   pjmedia-i386-win32-vc8-release:clock_thread.obj
 0001:00006960       _pjmedia_clock_src_update  00407960 f   pjmedia-i386-win32-vc8-release:clock_thread.obj
 0001:000069a0       _pjmedia_echo_capture      004079a0 f   pjmedia-i386-win32-vc8-release:echo_common.obj
 0001:00006a60       _pjmedia_echo_create2      00407a60 f   pjmedia-i386-win32-vc8-release:echo_common.obj
 0001:00006c40       _pjmedia_echo_destroy      00407c40 f   pjmedia-i386-win32-vc8-release:echo_common.obj
 0001:00006c80       _pjmedia_echo_playback     00407c80 f   pjmedia-i386-win32-vc8-release:echo_common.obj
 0001:00007f60       _get_libsrtp_errstr        00408f60 f   pjmedia-i386-win32-vc8-release:transport_srtp.obj
 0001:000081d0       _pjmedia_transport_srtp_start 004091d0 f   pjmedia-i386-win32-vc8-release:transport_srtp.obj
 0001:00008870       _pjmedia_transport_srtp_stop 00409870 f   pjmedia-i386-win32-vc8-release:transport_srtp.obj
 0001:00008ca0       _echo_supp_cancel_echo     00409ca0 f   pjmedia-i386-win32-vc8-release:echo_suppress.obj
 0001:00008f90       _echo_supp_create          00409f90 f   pjmedia-i386-win32-vc8-release:echo_suppress.obj
 0001:000090c0       _echo_supp_reset           0040a0c0 f   pjmedia-i386-win32-vc8-release:echo_suppress.obj
 0001:00009180       _echo_supp_soft_reset      0040a180 f   pjmedia-i386-win32-vc8-release:echo_suppress.obj
 0001:00009880       _speex_aec_cancel_echo     0040a880 f   pjmedia-i386-win32-vc8-release:echo_speex.obj
 0001:000098e0       _speex_aec_capture         0040a8e0 f   pjmedia-i386-win32-vc8-release:echo_speex.obj
 0001:00009930       _speex_aec_create          0040a930 f   pjmedia-i386-win32-vc8-release:echo_speex.obj
 0001:00009a40       _speex_aec_destroy         0040aa40 f   pjmedia-i386-win32-vc8-release:echo_speex.obj
 0001:00009a90       _speex_aec_playback        0040aa90 f   pjmedia-i386-win32-vc8-release:echo_speex.obj
 0001:00009ac0       _speex_aec_reset           0040aac0 f   pjmedia-i386-win32-vc8-release:echo_speex.obj
 0001:00009ae0       _pjmedia_calc_avg_signal   0040aae0 f   pjmedia-i386-win32-vc8-release:silencedet.obj
 0001:0000a3f0       _pj_getopt_long            0040b3f0 f   pjlib-util-i386-win32-vc8-release:getopt.obj
 0001:0000a410       _pj_base64_decode          0040b410 f   pjlib-util-i386-win32-vc8-release:base64.obj
 0001:0000a610       _pj_base64_encode          0040b610 f   pjlib-util-i386-win32-vc8-release:base64.obj
 0001:0000a850       _pj_atexit                 0040b850 f   pjlib-i386-win32-vc8-release:os_core_win32.obj
 0001:0000a880       _pj_atomic_dec_and_get     0040b880 f   pjlib-i386-win32-vc8-release:os_core_win32.obj
 0001:0000a8d0       _pj_atomic_destroy         0040b8d0 f   pjlib-i386-win32-vc8-release:os_core_win32.obj
 0001:0000a8f0       _pj_atomic_inc             0040b8f0 f   pjlib-i386-win32-vc8-release:os_core_win32.obj
 0001:0000a940       _pj_enter_critical_section 0040b940 f   pjlib-i386-win32-vc8-release:os_core_win32.obj
 0001:0000a950       _pj_init                   0040b950 f   pjlib-i386-win32-vc8-release:os_core_win32.obj
 0001:0000aa90       _pj_leave_critical_section 0040ba90 f   pjlib-i386-win32-vc8-release:os_core_win32.obj
 0001:0000aae0       _pj_mutex_create           0040bae0 f   pjlib-i386-win32-vc8-release:os_core_win32.obj
 0001:0000ab30       _pj_mutex_create_recursive 0040bb30 f   pjlib-i386-win32-vc8-release:os_core_win32.obj
 0001:0000ab30       _pj_mutex_create_simple    0040bb30 f   pjlib-i386-win32-vc8-release:os_core_win32.obj
 0001:0000ab80       _pj_mutex_destroy          0040bb80 f   pjlib-i386-win32-vc8-release:os_core_win32.obj
 0001:0000abe0       _pj_mutex_lock             0040bbe0 f   pjlib-i386-win32-vc8-release:os_core_win32.obj
 0001:0000ac50       _pj_mutex_trylock          0040bc50 f   pjlib-i386-win32-vc8-release:os_core_win32.obj
 0001:0000acd0       _pj_mutex_unlock           0040bcd0 f   pjlib-i386-win32-vc8-release:os_core_win32.obj
 0001:0000ad30       _pj_sem_destroy            0040bd30 f   pjlib-i386-win32-vc8-release:os_core_win32.obj
 0001:0000adc0       _pj_sem_post               0040bdc0 f   pjlib-i386-win32-vc8-release:os_core_win32.obj
 0001:0000ae50       _pj_sem_trywait            0040be50 f   pjlib-i386-win32-vc8-release:os_core_win32.obj
 0001:0000aeb0       _pj_sem_wait               0040beb0 f   pjlib-i386-win32-vc8-release:os_core_win32.obj
 0001:0000afc0       _pj_shutdown               0040bfc0 f   pjlib-i386-win32-vc8-release:os_core_win32.obj
 0001:0000b100       _pj_term_set_color         0040c100 f   pjlib-i386-win32-vc8-release:os_core_win32.obj
 0001:0000b1d0       _pj_thread_check_stack     0040c1d0 f   pjlib-i386-win32-vc8-release:os_core_win32.obj
 0001:0000b210       _pj_thread_create          0040c210 f   pjlib-i386-win32-vc8-release:os_core_win32.obj
 0001:0000b350       _pj_thread_destroy         0040c350 f   pjlib-i386-win32-vc8-release:os_core_win32.obj
 0001:0000b3e0       _pj_thread_get_name        0040c3e0 f   pjlib-i386-win32-vc8-release:os_core_win32.obj
 0001:0000b430       _pj_thread_init            0040c430 f   pjlib-i386-win32-vc8-release:os_core_win32.obj
 0001:0000b490       _pj_thread_join            0040c490 f   pjlib-i386-win32-vc8-release:os_core_win32.obj
 0001:0000b550       _pj_thread_local_alloc     0040c550 f   pjlib-i386-win32-vc8-release:os_core_win32.obj
 0001:0000b5a0       _pj_thread_local_free      0040c5a0 f   pjlib-i386-win32-vc8-release:os_core_win32.obj
 0001:0000b5f0       _pj_thread_local_get       0040c5f0 f   pjlib-i386-win32-vc8-release:os_core_win32.obj
 0001:0000b600       _pj_thread_local_set       0040c600 f   pjlib-i386-win32-vc8-release:os_core_win32.obj
 0001:0000b640       _pj_thread_register        0040c640 f   pjlib-i386-win32-vc8-release:os_core_win32.obj
 0001:0000b700       _pj_thread_sleep           0040c700 f   pjlib-i386-win32-vc8-release:os_core_win32.obj
 0001:0000b750       _pj_thread_this            0040c750 f   pjlib-i386-win32-vc8-release:os_core_win32.obj
 0001:0000b7e0       _pj_errno_clear_handlers   0040c7e0 f   pjlib-i386-win32-vc8-release:errno.obj
 0001:0000b800       _pj_register_strerror      0040c800 f   pjlib-i386-win32-vc8-release:errno.obj
 0001:0000b8e0       _pj_strerror               0040c8e0 f   pjlib-i386-win32-vc8-release:errno.obj
 0001:0000ba30       _pj_pool_alloc             0040ca30 f   pjlib-i386-win32-vc8-release:pool.obj
 0001:0000ba80       _pj_pool_allocate_find     0040ca80 f   pjlib-i386-win32-vc8-release:pool.obj
 0001:0000bb60       _pj_pool_calloc            0040cb60 f   pjlib-i386-win32-vc8-release:pool.obj
 0001:0000bbc0       _pj_pool_create            0040cbc0 f   pjlib-i386-win32-vc8-release:pool.obj
 0001:0000bc50       _pj_pool_create_int        0040cc50 f   pjlib-i386-win32-vc8-release:pool.obj
 0001:0000bd00       _pj_pool_destroy_int       0040cd00 f   pjlib-i386-win32-vc8-release:pool.obj
 0001:0000bd40       _pj_pool_get_capacity      0040cd40 f   pjlib-i386-win32-vc8-release:pool.obj
 0001:0000bd50       _pj_pool_get_used_size     0040cd50 f   pjlib-i386-win32-vc8-release:pool.obj
 0001:0000bd80       _pj_pool_getobjname        0040cd80 f   pjlib-i386-win32-vc8-release:pool.obj
 0001:0000bd90       _pj_pool_init_int          0040cd90 f   pjlib-i386-win32-vc8-release:pool.obj
 0001:0000be00       _pj_pool_release           0040ce00 f   pjlib-i386-win32-vc8-release:pool.obj
 0001:0000be20       _pj_pool_reset             0040ce20 f   pjlib-i386-win32-vc8-release:pool.obj
 0001:0000c230       _pj_caching_pool_destroy   0040d230 f   pjlib-i386-win32-vc8-release:pool_caching.obj
 0001:0000c310       _pj_caching_pool_init      0040d310 f   pjlib-i386-win32-vc8-release:pool_caching.obj
 0001:0000c410       _pj_log                    0040d410 f   pjlib-i386-win32-vc8-release:log.obj
 0001:0000c910       _pj_log_1                  0040d910 f   pjlib-i386-win32-vc8-release:log.obj
 0001:0000c930       _pj_log_2                  0040d930 f   pjlib-i386-win32-vc8-release:log.obj
 0001:0000c950       _pj_log_3                  0040d950 f   pjlib-i386-win32-vc8-release:log.obj
 0001:0000c970       _pj_log_4                  0040d970 f   pjlib-i386-win32-vc8-release:log.obj
 0001:0000c990       _pj_log_5                  0040d990 f   pjlib-i386-win32-vc8-release:log.obj
 0001:0000c9b0       _pj_log_get_color          0040d9b0 f   pjlib-i386-win32-vc8-release:log.obj
 0001:0000ca20       _pj_log_get_decor          0040da20 f   pjlib-i386-win32-vc8-release:log.obj
 0001:0000ca30       _pj_log_get_level          0040da30 f   pjlib-i386-win32-vc8-release:log.obj
 0001:0000ca40       _pj_log_init               0040da40 f   pjlib-i386-win32-vc8-release:log.obj
 0001:0000cbe0       _pj_str                    0040dbe0 f   pjlib-i386-win32-vc8-release:string.obj
 0001:0000cc00       _pj_strcmp                 0040dc00 f   pjlib-i386-win32-vc8-release:string.obj
 0001:0000cc60       _pj_strdup2                0040dc60 f   pjlib-i386-win32-vc8-release:string.obj
 0001:0000ccc0       _pj_strdup2_with_null      0040dcc0 f   pjlib-i386-win32-vc8-release:string.obj
 0001:0000cd20       _pj_strdup_with_null       0040dd20 f   pjlib-i386-win32-vc8-release:string.obj
 0001:0000cd70       _pj_stricmp                0040dd70 f   pjlib-i386-win32-vc8-release:string.obj
 0001:0000cde0       _pj_stricmp2               0040dde0 f   pjlib-i386-win32-vc8-release:string.obj
 0001:0000ce40       _pj_strncpy_with_null      0040de40 f   pjlib-i386-win32-vc8-release:string.obj
 0001:0000ce80       _pj_strtoul                0040de80 f   pjlib-i386-win32-vc8-release:string.obj
 0001:0000cee0       _pj_strtoul2               0040dee0 f   pjlib-i386-win32-vc8-release:string.obj
 0001:0000cf90       _pj_utoa                   0040df90 f   pjlib-i386-win32-vc8-release:string.obj
 0001:0000cfb0       _pj_utoa_pad               0040dfb0 f   pjlib-i386-win32-vc8-release:string.obj
 0001:0000d050       _pj_array_erase            0040e050 f   pjlib-i386-win32-vc8-release:array.obj
 0001:0000d090       _pj_ntohl                  0040e090 f   pjlib-i386-win32-vc8-release:sock_bsd.obj
 0001:0000d0a0       _pj_ntohs                  0040e0a0 f   pjlib-i386-win32-vc8-release:sock_bsd.obj
 0001:0000d0b0       _pj_sock_accept            0040e0b0 f   pjlib-i386-win32-vc8-release:sock_bsd.obj
 0001:0000d120       _pj_sock_getsockname       0040e120 f   pjlib-i386-win32-vc8-release:sock_bsd.obj
 0001:0000d180       _pj_sock_getsockopt        0040e180 f   pjlib-i386-win32-vc8-release:sock_bsd.obj
 0001:0000d1f0       _pj_sock_recv              0040e1f0 f   pjlib-i386-win32-vc8-release:sock_bsd.obj
 0001:0000d260       _pj_sock_recvfrom          0040e260 f   pjlib-i386-win32-vc8-release:sock_bsd.obj
 0001:0000d2d0       _pj_sock_send              0040e2d0 f   pjlib-i386-win32-vc8-release:sock_bsd.obj
 0001:0000d340       _pj_sock_sendto            0040e340 f   pjlib-i386-win32-vc8-release:sock_bsd.obj
 0001:0000d3b0       _pj_gettimeofday           0040e3b0 f   pjlib-i386-win32-vc8-release:os_time_win32.obj
 0001:0000d460       _pj_time_decode            0040e460 f   pjlib-i386-win32-vc8-release:os_time_win32.obj
 0001:0000d510       _pj_list_erase             0040e510 f   pjlib-i386-win32-vc8-release:list.obj
 0001:0000d530       _pj_list_insert_after      0040e530 f   pjlib-i386-win32-vc8-release:list.obj
 0001:0000d550       _pj_list_insert_before     0040e550 f   pjlib-i386-win32-vc8-release:list.obj
 0001:0000d630       ?ioqueue_dispatch_exception_event@@YAXPAUpj_ioqueue_t@@PAUpj_ioqueue_key_t@@@Z 0040e630 f   pjlib-i386-win32-vc8-release:ioqueue_select.obj
 0001:0000d760       ?ioqueue_dispatch_read_event@@YAXPAUpj_ioqueue_t@@PAUpj_ioqueue_key_t@@@Z 0040e760 f   pjlib-i386-win32-vc8-release:ioqueue_select.obj
 0001:0000d980       ?ioqueue_dispatch_write_event@@YAXPAUpj_ioqueue_t@@PAUpj_ioqueue_key_t@@@Z 0040e980 f   pjlib-i386-win32-vc8-release:ioqueue_select.obj
 0001:0000dcd0       _pj_ioqueue_create         0040ecd0 f   pjlib-i386-win32-vc8-release:ioqueue_select.obj
 0001:0000de70       _pj_ioqueue_destroy        0040ee70 f   pjlib-i386-win32-vc8-release:ioqueue_select.obj
 0001:0000df30       _pj_ioqueue_poll           0040ef30 f   pjlib-i386-win32-vc8-release:ioqueue_select.obj
 0001:0000e260       _pj_ioqueue_set_lock       0040f260 f   pjlib-i386-win32-vc8-release:ioqueue_select.obj
 0001:0000e2a0       _pj_ioqueue_unlock_key     0040f2a0 f   pjlib-i386-win32-vc8-release:ioqueue_select.obj
 0001:0000e2d0       _pj_file_exists            0040f2d0 f   pjlib-i386-win32-vc8-release:file_access_win32.obj
 0001:0000e310       _pj_file_size              0040f310 f   pjlib-i386-win32-vc8-release:file_access_win32.obj
 0001:0000e3a0       _pj_file_close             0040f3a0 f   pjlib-i386-win32-vc8-release:file_io_win32.obj
 0001:0000e3e0       _pj_file_getpos            0040f3e0 f   pjlib-i386-win32-vc8-release:file_io_win32.obj
 0001:0000e440       _pj_file_open              0040f440 f   pjlib-i386-win32-vc8-release:file_io_win32.obj
 0001:0000e560       _pj_file_read              0040f560 f   pjlib-i386-win32-vc8-release:file_io_win32.obj
 0001:0000e5c0       _pj_file_setpos            0040f5c0 f   pjlib-i386-win32-vc8-release:file_io_win32.obj
 0001:0000e630       _pj_file_write             0040f630 f   pjlib-i386-win32-vc8-release:file_io_win32.obj
 0001:0000e890       _pj_grp_lock_acquire       0040f890 f   pjlib-i386-win32-vc8-release:lock.obj
 0001:0000e8a0       _pj_grp_lock_add_ref       0040f8a0 f   pjlib-i386-win32-vc8-release:lock.obj
 0001:0000e8c0       _pj_grp_lock_dec_ref       0040f8c0 f   pjlib-i386-win32-vc8-release:lock.obj
 0001:0000e8f0       _pj_grp_lock_release       0040f8f0 f   pjlib-i386-win32-vc8-release:lock.obj
 0001:0000e900       _pj_lock_acquire           0040f900 f   pjlib-i386-win32-vc8-release:lock.obj
 0001:0000e920       _pj_lock_create_null_mutex 0040f920 f   pjlib-i386-win32-vc8-release:lock.obj
 0001:0000e940       _pj_lock_create_recursive_mutex 0040f940 f   pjlib-i386-win32-vc8-release:lock.obj
 0001:0000e960       _pj_lock_create_simple_mutex 0040f960 f   pjlib-i386-win32-vc8-release:lock.obj
 0001:0000e980       _pj_lock_destroy           0040f980 f   pjlib-i386-win32-vc8-release:lock.obj
 0001:0000e9a0       _pj_lock_release           0040f9a0 f   pjlib-i386-win32-vc8-release:lock.obj
 0001:0000e9c0       _pj_exception_id_alloc     0040f9c0 f   pjlib-i386-win32-vc8-release:except.obj
 0001:0000ea10       _pj_exception_id_free      0040fa10 f   pjlib-i386-win32-vc8-release:except.obj
 0001:0000ea50       _pj_throw_exception_       0040fa50 f   pjlib-i386-win32-vc8-release:except.obj
 0001:0000eaf0       _pj_get_timestamp          0040faf0 f   pjlib-i386-win32-vc8-release:os_timestamp_win32.obj
 0001:0000eb50       _pj_get_timestamp_freq     0040fb50 f   pjlib-i386-win32-vc8-release:os_timestamp_win32.obj
 0001:0000ebb0       _pj_elapsed_time           0040fbb0 f   pjlib-i386-win32-vc8-release:os_timestamp_common.obj
 0001:0000ec60       _pj_gettickcount           0040fc60 f   pjlib-i386-win32-vc8-release:os_timestamp_common.obj
 0001:0000ed20       _pj_generate_unique_string 0040fd20 f   pjlib-i386-win32-vc8-release:guid_win32.obj
 0001:0000ed70       _pj_get_netos_error        0040fd70 f   pjlib-i386-win32-vc8-release:os_error_win32.obj
 0001:0000ed90       _pj_get_os_error           0040fd90 f   pjlib-i386-win32-vc8-release:os_error_win32.obj
 0001:0000edb0       _platform_strerror         0040fdb0 f   pjlib-i386-win32-vc8-release:os_error_win32.obj
 0001:0000ee90       _pj_pool_create_on_buf     0040fe90 f   pjlib-i386-win32-vc8-release:pool_buf.obj
 0001:0000efa0       _pj_log_write              0040ffa0 f   pjlib-i386-win32-vc8-release:log_writer_stdout.obj
 0001:0000f000       _pj_time_val_normalize     00410000 f   pjlib-i386-win32-vc8-release:types.obj
 0001:0000f090       _PJ_FD_CLR                 00410090 f   pjlib-i386-win32-vc8-release:sock_select.obj
 0001:0000f110       _PJ_FD_COUNT               00410110 f   pjlib-i386-win32-vc8-release:sock_select.obj
 0001:0000f110       _rdb_get_value             00410110 f   libsrtp-i386-win32-vc8-release:rdb.obj
 0001:0000f120       _PJ_FD_ISSET               00410120 f   pjlib-i386-win32-vc8-release:sock_select.obj
 0001:0000f150       _PJ_FD_ZERO                00410150 f   pjlib-i386-win32-vc8-release:sock_select.obj
 0001:0000f180       _pj_sock_select            00410180 f   pjlib-i386-win32-vc8-release:sock_select.obj
 0001:0000f790       _res_GetXOFF               00410790 f   libresample-i386-win32-vc8-release:resamplesubs.obj
 0001:0000f7d0       _res_Resample              004107d0 f   libresample-i386-win32-vc8-release:resamplesubs.obj
 0001:0000f8b0       _res_SrcLinear             004108b0 f   libresample-i386-win32-vc8-release:resamplesubs.obj
 0001:0000fc90       _speex_echo_cancellation   00410c90 f   libspeex-i386-win32-vc8-release:mdf.obj
 0001:00011040       _speex_echo_capture        00412040 f   libspeex-i386-win32-vc8-release:mdf.obj
 0001:00011130       _speex_echo_ctl            00412130 f   libspeex-i386-win32-vc8-release:mdf.obj
 0001:00011220       _speex_echo_get_residual   00412220 f   libspeex-i386-win32-vc8-release:mdf.obj
 0001:00011470       _speex_echo_playback       00412470 f   libspeex-i386-win32-vc8-release:mdf.obj
 0001:00011560       _speex_echo_state_destroy  00412560 f   libspeex-i386-win32-vc8-release:mdf.obj
 0001:00011650       _speex_echo_state_init     00412650 f   libspeex-i386-win32-vc8-release:mdf.obj
 0001:00011ba0       _speex_echo_state_reset    00412ba0 f   libspeex-i386-win32-vc8-release:mdf.obj
 0001:00012bc0       _speex_preprocess_ctl      00413bc0 f   libspeex-i386-win32-vc8-release:preprocess.obj
 0001:00013250       _speex_preprocess_run      00414250 f   libspeex-i386-win32-vc8-release:preprocess.obj
 0001:00014ae0       _speex_preprocess_state_destroy 00415ae0 f   libspeex-i386-win32-vc8-release:preprocess.obj
 0001:00014bd0       _speex_preprocess_state_init 00415bd0 f   libspeex-i386-win32-vc8-release:preprocess.obj
 0001:00015b00       _spx_fft                   00416b00 f   libspeex-i386-win32-vc8-release:fftwrap.obj
 0001:00015bd0       _spx_fft_destroy           00416bd0 f   libspeex-i386-win32-vc8-release:fftwrap.obj
 0001:00015bf0       _spx_fft_init              00416bf0 f   libspeex-i386-win32-vc8-release:fftwrap.obj
 0001:00015c10       _spx_ifft                  00416c10 f   libspeex-i386-win32-vc8-release:fftwrap.obj
 0001:00015c80       _filterbank_compute_bank32 00416c80 f   libspeex-i386-win32-vc8-release:filterbank.obj
 0001:00015d00       _filterbank_compute_psd16  00416d00 f   libspeex-i386-win32-vc8-release:filterbank.obj
 0001:00015d50       _filterbank_destroy        00416d50 f   libspeex-i386-win32-vc8-release:filterbank.obj
 0001:00015d90       _filterbank_new            00416d90 f   libspeex-i386-win32-vc8-release:filterbank.obj
 0001:000193e0       _spx_drft_backward         0041a3e0 f   libspeex-i386-win32-vc8-release:smallft.obj
 0001:00019410       _spx_drft_clear            0041a410 f   libspeex-i386-win32-vc8-release:smallft.obj
 0001:00019440       _spx_drft_forward          0041a440 f   libspeex-i386-win32-vc8-release:smallft.obj
 0001:00019470       _spx_drft_init             0041a470 f   libspeex-i386-win32-vc8-release:smallft.obj
 0001:000194c0       _crypto_get_random         0041a4c0 f   libsrtp-i386-win32-vc8-release:crypto_kernel.obj
 0001:000194e0       _crypto_kernel_alloc_auth  0041a4e0 f   libsrtp-i386-win32-vc8-release:crypto_kernel.obj
 0001:00019530       _crypto_kernel_alloc_cipher 0041a530 f   libsrtp-i386-win32-vc8-release:crypto_kernel.obj
 0001:000195b0       _srtp_add_stream           0041a5b0 f   libsrtp-i386-win32-vc8-release:srtp.obj
 0001:00019680       _srtp_create               0041a680 f   libsrtp-i386-win32-vc8-release:srtp.obj
 0001:00019700       _srtp_dealloc              0041a700 f   libsrtp-i386-win32-vc8-release:srtp.obj
 0001:00019860       _srtp_event_reporter       0041a860 f   libsrtp-i386-win32-vc8-release:srtp.obj
 0001:000198f0       _srtp_protect              0041a8f0 f   libsrtp-i386-win32-vc8-release:srtp.obj
 0001:00019d30       _srtp_protect_rtcp         0041ad30 f   libsrtp-i386-win32-vc8-release:srtp.obj
 0001:0001a030       _srtp_stream_alloc         0041b030 f   libsrtp-i386-win32-vc8-release:srtp.obj
 0001:0001a1a0       _srtp_stream_clone         0041b1a0 f   libsrtp-i386-win32-vc8-release:srtp.obj
 0001:0001a250       _srtp_stream_init          0041b250 f   libsrtp-i386-win32-vc8-release:srtp.obj
 0001:0001a2d0       _srtp_stream_init_keys     0041b2d0 f   libsrtp-i386-win32-vc8-release:srtp.obj
 0001:0001a760       _srtp_unprotect            0041b760 f   libsrtp-i386-win32-vc8-release:srtp.obj
 0001:0001ae60       _srtp_unprotect_rtcp       0041be60 f   libsrtp-i386-win32-vc8-release:srtp.obj
 0001:0001b1d0       _crypto_alloc              0041c1d0 f   libsrtp-i386-win32-vc8-release:alloc.obj
 0001:0001b230       _crypto_free               0041c230 f   libsrtp-i386-win32-vc8-release:alloc.obj
 0001:0001b260       _err_report                0041c260 f   libsrtp-i386-win32-vc8-release:srtp_err.obj
 0001:0001b290       _cipher_output             0041c290 f   libsrtp-i386-win32-vc8-release:cipher.obj
 0001:0001b2c0       _ctr_prng_get_octet_string 0041c2c0 f   libsrtp-i386-win32-vc8-release:ctr_prng.obj
 0001:0001b350       _auth_get_key_length       0041c350 f   libsrtp-i386-win32-vc8-release:auth.obj
 0001:0001b360       _auth_get_prefix_length    0041c360 f   libsrtp-i386-win32-vc8-release:auth.obj
 0001:0001b370       _auth_get_tag_length       0041c370 f   libsrtp-i386-win32-vc8-release:auth.obj
 0001:0001b370       _cipher_get_key_length     0041c370 f   libsrtp-i386-win32-vc8-release:cipher.obj
 0001:0001b380       _null_cipher_init          0041c380 f   libsrtp-i386-win32-vc8-release:null_cipher.obj
 0001:0001b3b0       _null_cipher_alloc         0041c3b0 f   libsrtp-i386-win32-vc8-release:null_cipher.obj
 0001:0001b410       _null_cipher_dealloc       0041c410 f   libsrtp-i386-win32-vc8-release:null_cipher.obj
 0001:0001b440       _aes_icm_context_init      0041c440 f   libsrtp-i386-win32-vc8-release:aes_icm.obj
 0001:0001b510       _aes_icm_set_iv            0041c510 f   libsrtp-i386-win32-vc8-release:aes_icm.obj
 0001:0001b5a0       _aes_icm_encrypt           0041c5a0 f   libsrtp-i386-win32-vc8-release:aes_icm.obj
 0001:0001b5c0       _aes_icm_dealloc           0041c5c0 f   libsrtp-i386-win32-vc8-release:aes_icm.obj
 0001:0001b5f0       _aes_icm_alloc             0041c5f0 f   libsrtp-i386-win32-vc8-release:aes_icm.obj
 0001:0001b710       _aes_icm_encrypt_ismacryp  0041c710 f   libsrtp-i386-win32-vc8-release:aes_icm.obj
 0001:0001b8f0       _aes_icm_output            0041c8f0 f   libsrtp-i386-win32-vc8-release:aes_icm.obj
 0001:0001b920       _aes_cbc_context_init      0041c920 f   libsrtp-i386-win32-vc8-release:aes_cbc.obj
 0001:0001b9d0       _aes_cbc_set_iv            0041c9d0 f   libsrtp-i386-win32-vc8-release:aes_cbc.obj
 0001:0001ba20       _aes_cbc_nist_encrypt      0041ca20 f   libsrtp-i386-win32-vc8-release:aes_cbc.obj
 0001:0001bb60       _aes_cbc_nist_decrypt      0041cb60 f   libsrtp-i386-win32-vc8-release:aes_cbc.obj
 0001:0001bbb0       _aes_cbc_alloc             0041cbb0 f   libsrtp-i386-win32-vc8-release:aes_cbc.obj
 0001:0001bc20       _aes_cbc_dealloc           0041cc20 f   libsrtp-i386-win32-vc8-release:aes_cbc.obj
 0001:0001bc50       _aes_cbc_decrypt           0041cc50 f   libsrtp-i386-win32-vc8-release:aes_cbc.obj
 0001:0001bdd0       _lpc_alloc                 0041cdd0 f   libsrtp-i386-win32-vc8-release:lpc_algo.obj
 0001:0001be20       _lpc_dealloc               0041ce20 f   libsrtp-i386-win32-vc8-release:lpc_algo.obj
 0001:0001be50       _lpc_context_init          0041ce50 f   libsrtp-i386-win32-vc8-release:lpc_algo.obj
 0001:0001bec0       _lpc_set_iv                0041cec0 f   libsrtp-i386-win32-vc8-release:lpc_algo.obj
 0001:0001bf00       _null_auth_alloc           0041cf00 f   libsrtp-i386-win32-vc8-release:null_auth.obj
 0001:0001bf90       _null_auth_dealloc         0041cf90 f   libsrtp-i386-win32-vc8-release:null_auth.obj
 0001:0001bfc0       _hmac_alloc                0041cfc0 f   libsrtp-i386-win32-vc8-release:hmac.obj
 0001:0001c070       _hmac_dealloc              0041d070 f   libsrtp-i386-win32-vc8-release:hmac.obj
 0001:0001c0a0       _hmac_init                 0041d0a0 f   libsrtp-i386-win32-vc8-release:hmac.obj
 0001:0001c310       _hmac_start                0041d310 f   libsrtp-i386-win32-vc8-release:hmac.obj
 0001:0001c330       _hmac_update               0041d330 f   libsrtp-i386-win32-vc8-release:hmac.obj
 0001:0001c380       _hmac_compute              0041d380 f   libsrtp-i386-win32-vc8-release:hmac.obj
 0001:0001c4b0       _octet_string_hex_string   0041d4b0 f   libsrtp-i386-win32-vc8-release:datatypes.obj
 0001:0001c550       _octet_string_is_eq        0041d550 f   libsrtp-i386-win32-vc8-release:datatypes.obj
 0001:0001c590       _octet_string_set_to_zero  0041d590 f   libsrtp-i386-win32-vc8-release:datatypes.obj
 0001:0001c5b0       _v128_copy_octet_string    0041d5b0 f   libsrtp-i386-win32-vc8-release:datatypes.obj
 0001:0001c630       _v128_hex_string           0041d630 f   libsrtp-i386-win32-vc8-release:datatypes.obj
 0001:0001c6c0       _v128_left_shift           0041d6c0 f   libsrtp-i386-win32-vc8-release:datatypes.obj
 0001:0001c7a0       _index_guess               0041d7a0 f   libsrtp-i386-win32-vc8-release:rdbx.obj
 0001:0001c830       _rdbx_add_index            0041d830 f   libsrtp-i386-win32-vc8-release:rdbx.obj
 0001:0001c880       _rdbx_check                0041d880 f   libsrtp-i386-win32-vc8-release:rdbx.obj
 0001:0001c8c0       _rdbx_estimate_index       0041d8c0 f   libsrtp-i386-win32-vc8-release:rdbx.obj
 0001:0001c900       _rdbx_init                 0041d900 f   libsrtp-i386-win32-vc8-release:rdbx.obj
 0001:0001c940       _key_limit_clone           0041d940 f   libsrtp-i386-win32-vc8-release:key.obj
 0001:0001c960       _key_limit_set             0041d960 f   libsrtp-i386-win32-vc8-release:key.obj
 0001:0001c9a0       _key_limit_update          0041d9a0 f   libsrtp-i386-win32-vc8-release:key.obj
 0001:0001c9f0       _rdb_add_index             0041d9f0 f   libsrtp-i386-win32-vc8-release:rdb.obj
 0001:0001ca40       _rdb_check                 0041da40 f   libsrtp-i386-win32-vc8-release:rdb.obj
 0001:0001ca90       _rdb_increment             0041da90 f   libsrtp-i386-win32-vc8-release:rdb.obj
 0001:0001cab0       _rdb_init                  0041dab0 f   libsrtp-i386-win32-vc8-release:rdb.obj
 0001:0001cae0       _aes_decrypt               0041dae0 f   libsrtp-i386-win32-vc8-release:aes.obj
 0001:0001cb80       _aes_encrypt               0041db80 f   libsrtp-i386-win32-vc8-release:aes.obj
 0001:0001cc20       _aes_expand_decryption_key 0041dc20 f   libsrtp-i386-win32-vc8-release:aes.obj
 0001:0001ce00       _aes_expand_encryption_key 0041de00 f   libsrtp-i386-win32-vc8-release:aes.obj
 0001:0001d5e0       _sha1_core                 0041e5e0 f   libsrtp-i386-win32-vc8-release:sha1.obj
 0001:0001daf0       _sha1_final                0041eaf0 f   libsrtp-i386-win32-vc8-release:sha1.obj
 0001:0001e100       _sha1_init                 0041f100 f   libsrtp-i386-win32-vc8-release:sha1.obj
 0001:0001e140       _sha1_update               0041f140 f   libsrtp-i386-win32-vc8-release:sha1.obj
 0001:0001e210       ___WSAFDIsSet@8            0041f210 f   ws2_32:WS2_32.dll
 0001:0001e216       @__security_check_cookie@4 0041f216 f   MSVCRT:_secchk_.obj
 0001:0001e454       _mainCRTStartup            0041f454 f   MSVCRT:exe_main.obj
 0001:0001e460       __aulldiv                  0041f460 f   MSVCRT:ulldiv.obj
 0001:0001e4d0       __allmul                   0041f4d0 f   MSVCRT:llmul.obj
 0001:0001e510       __ftoui3                   0041f510 f   MSVCRT:_ftol3_.obj
 0001:0001e51f       __ftoul3                   0041f51f f   MSVCRT:_ftol3_.obj
 0001:0001e52e       __ftol3                    0041f52e f   MSVCRT:_ftol3_.obj
 0001:0001e53b       __ftol3_NaN                0041f53b f   MSVCRT:_ftol3_.obj
 0001:0001e553       __ftol3_work               0041f553 f   MSVCRT:_ftol3_.obj
 0001:0001e5d9       __ftol3_common             0041f5d9 f   MSVCRT:_ftol3_.obj
 0001:0001e69b       __ftol3_arg_error          0041f69b f   MSVCRT:_ftol3_.obj
 0001:0001e6ad       __ftol3_except             0041f6ad f   MSVCRT:_ftol3_.obj
 0001:0001e6f1       __dtoui3                   0041f6f1 f   MSVCRT:_ftol3_.obj
 0001:0001e700       __dtoul3                   0041f700 f   MSVCRT:_ftol3_.obj
 0001:0001e70f       __dtol3                    0041f70f f   MSVCRT:_ftol3_.obj
 0001:0001e71c       __dtol3_NaN                0041f71c f   MSVCRT:_ftol3_.obj
 0001:0001e739       __dtol3_work               0041f739 f   MSVCRT:_ftol3_.obj
 0001:0001e820       __ultod3                   0041f820 f   MSVCRT:_ftol3_.obj
 0001:0001e860       __ltod3                    0041f860 f   MSVCRT:_ftol3_.obj
 0001:0001e890       __alldiv                   0041f890 f   MSVCRT:lldiv.obj
 0001:0001e940       ___vdecl_cos2              0041f940 f   MSVCRT:_svml_dcos2_dispatch_.obj
 0001:0001e945       ___raise_securityfailure   0041f945 f   MSVCRT:gs_report.obj
 0001:0001e96d       ___report_gsfailure        0041f96d f   MSVCRT:gs_report.obj
 0001:0001ea68       ___report_rangecheckfailure 0041fa68 f   MSVCRT:gs_report.obj
 0001:0001ea74       ___report_securityfailure  0041fa74 f   MSVCRT:gs_report.obj
 0001:0001eb50       __allshl                   0041fb50 f   MSVCRT:llshl.obj
 0001:0001eb70       __ftol2_sse                0041fb70 f   MSVCRT:_ftol2_.obj
 0001:0001eb79       __ftol2_pentium4           0041fb79 f   MSVCRT:_ftol2_.obj
 0001:0001eb8c       __ftol2_sse_excpt          0041fb8c f   MSVCRT:_ftol2_.obj
 0001:0001ebb0       __ftol2                    0041fbb0 f   MSVCRT:_ftol2_.obj
 0001:0001ec69       ___scrt_acquire_startup_lock 0041fc69 f   MSVCRT:utility.obj
 0001:0001ec9e       ___scrt_initialize_crt     0041fc9e f   MSVCRT:utility.obj
 0001:0001ecd7       ___scrt_initialize_onexit_tables 0041fcd7 f   MSVCRT:utility.obj
 0001:0001ed6e       ___scrt_is_nonwritable_in_current_image 0041fd6e f   MSVCRT:utility.obj
 0001:0001edf8       ___scrt_release_startup_lock 0041fdf8 f   MSVCRT:utility.obj
 0001:0001ee15       ___scrt_uninitialize_crt   0041fe15 f   MSVCRT:utility.obj
 0001:0001ee3d       __onexit                   0041fe3d f   MSVCRT:utility.obj
 0001:0001ee78       _atexit                    0041fe78 f   MSVCRT:utility.obj
 0001:0001ee8d       ___security_init_cookie    0041fe8d f   MSVCRT:gs_support.obj
 0001:0001ef29       __get_startup_argv_mode    0041ff29 f   MSVCRT:argv_mode.obj
 0001:0001ef30       _echo_supp_destroy         0041ff30 f   pjmedia-i386-win32-vc8-release:echo_suppress.obj
 0001:0001ef30       ___scrt_initialize_winrt   0041ff30 f   MSVCRT:utility_desktop.obj
 0001:0001ef30       _null_auth_update          0041ff30 f   libsrtp-i386-win32-vc8-release:null_auth.obj
 0001:0001ef30       _pjmedia_wsola_destroy     0041ff30 f   pjmedia-i386-win32-vc8-release:wsola.obj
 0001:0001ef30       _lpc_encrypt               0041ff30 f   libsrtp-i386-win32-vc8-release:lpc_algo.obj
 0001:0001ef30       _null_auth_init            0041ff30 f   libsrtp-i386-win32-vc8-release:null_auth.obj
 0001:0001ef30       _null_cipher_encrypt       0041ff30 f   libsrtp-i386-win32-vc8-release:null_cipher.obj
 0001:0001ef30       _null_auth_compute         0041ff30 f   libsrtp-i386-win32-vc8-release:null_auth.obj
 0001:0001ef30       __get_startup_thread_locale_mode 0041ff30 f   MSVCRT:thread_locale.obj
 0001:0001ef30       __get_startup_new_mode     0041ff30 f   MSVCRT:new_mode.obj
 0001:0001ef30       _null_auth_start           0041ff30 f   libsrtp-i386-win32-vc8-release:null_auth.obj
 0001:0001ef30       _null_cipher_set_iv        0041ff30 f   libsrtp-i386-win32-vc8-release:null_cipher.obj
 0001:0001ef30       __get_startup_commit_mode  0041ff30 f   MSVCRT:commit_mode.obj
 0001:0001ef30       __matherr                  0041ff30 f   MSVCRT:matherr.obj
 0001:0001ef33       __get_startup_file_mode    0041ff33 f   MSVCRT:file_mode.obj
 0001:0001ef39       ?__scrt_initialize_type_info@@YAXXZ 0041ff39 f   MSVCRT:tncleanup.obj
 0001:0001ef45       ___acrt_initialize         0041ff45 f   MSVCRT:ucrt_stubs.obj
 0001:0001ef45       ___vcrt_uninitialize       0041ff45 f   MSVCRT:ucrt_stubs.obj
 0001:0001ef45       ___scrt_stub_for_acrt_initialize 0041ff45 f   MSVCRT:ucrt_stubs.obj
 0001:0001ef45       __should_initialize_environment 0041ff45 f   MSVCRT:env_mode.obj
 0001:0001ef45       ___scrt_stub_for_acrt_uninitialize 0041ff45 f   MSVCRT:ucrt_stubs.obj
 0001:0001ef45       ___vcrt_initialize         0041ff45 f   MSVCRT:ucrt_stubs.obj
 0001:0001ef45       ___acrt_uninitialize       0041ff45 f   MSVCRT:ucrt_stubs.obj
 0001:0001ef48       __initialize_default_precision 0041ff48 f   MSVCRT:default_precision.obj
 0001:0001ef69       ___local_stdio_scanf_options 0041ff69 f i MSVCRT:default_local_stdio_options.obj
 0001:0001ef6f       ___scrt_initialize_default_local_stdio_options 0041ff6f f   MSVCRT:default_local_stdio_options.obj
 0001:0001ef8c       ___scrt_is_user_matherr_present 0041ff8c f   MSVCRT:matherr_detection.obj
 0001:0001ef98       ___scrt_get_dyn_tls_init_callback 0041ff98 f   MSVCRT:dyn_tls_init.obj
 0001:0001ef9e       ___scrt_get_dyn_tls_dtor_callback 0041ff9e f   MSVCRT:dyn_tls_dtor.obj
 0001:0001efa4       ___scrt_fastfail           0041ffa4 f   MSVCRT:utility_desktop.obj
 0001:0001f0bf       ___scrt_is_managed_app     004200bf f   MSVCRT:utility_desktop.obj
 0001:0001f103       ___scrt_set_unhandled_exception_filter 00420103 f   MSVCRT:utility_desktop.obj
 0001:0001f10f       ___scrt_unhandled_exception_filter@4 0042010f f   MSVCRT:utility_desktop.obj
 0001:0001f150       __RTC_Initialize           00420150 f   MSVCRT:_initsect_.obj
 0001:0001f17b       __RTC_Terminate            0042017b f   MSVCRT:_initsect_.obj
 0001:0001f1a6       @_guard_check_icall@4      004201a6 f i MSVCRT:checkcfg.obj
 0001:0001f1b0       __SEH_prolog4              004201b0 f   MSVCRT:_sehprolg4_.obj
 0001:0001f1f6       __SEH_epilog4              004201f6 f   MSVCRT:_sehprolg4_.obj
 0001:0001f20b       __except_handler4          0042020b f   MSVCRT:_chandler4gs_.obj
 0001:0001f230       ___sse2_cos2               00420230 f   MSVCRT:_svml_dcos2_sse2_.obj
 0001:0001f3d0       ___isa_available_init      004203d0 f   MSVCRT:_cpu_disp_.obj
 0001:0001f56a       ___scrt_is_ucrt_dll_in_use 0042056a f   MSVCRT:ucrt_detection.obj
 0001:0001f580       __initialize_denormal_control 00420580 f i MSVCRT:denormal_control.obj
 0001:0001f580       __initialize_invalid_parameter_handler 00420580 f i MSVCRT:invalid_parameter_handler.obj
 0001:0001f580       _pjmedia_wave_hdr_file_to_host 00420580 f i pjmedia-i386-win32-vc8-release:wave.obj
 0001:0001f580       @_guard_check_icall_nop@4  00420580 f i MSVCRT:guard_support.obj
 0001:0001f580       _pjmedia_wave_hdr_host_to_file 00420580 f i pjmedia-i386-win32-vc8-release:wave.obj
 0001:0001f590       ___common_sin_reduction_LA 00420590 f   MSVCRT:_svml_dtrig_.obj
 0001:0001f8e0       ___common_cos_reduction_LA 004208e0 f   MSVCRT:_svml_dtrig_.obj
 0001:0001fbd0       ___common_pi04_reduction_LA 00420bd0 f   MSVCRT:_svml_dtrig_.obj
 0001:0001fee0       _IsProcessorFeaturePresent@4 00420ee0 f   kernel32:KERNEL32.dll
 0001:0001fee6       _memset                    00420ee6 f   vcruntime:VCRUNTIME140.dll
 0001:0001feec       _memmove                   00420eec f   vcruntime:VCRUNTIME140.dll
 0001:0001fef2       _memcpy                    00420ef2 f   vcruntime:VCRUNTIME140.dll
 0001:0001fef8       _strchr                    00420ef8 f   vcruntime:VCRUNTIME140.dll
 0001:0001fefe       _longjmp                   00420efe f   vcruntime:VCRUNTIME140.dll
 0001:0001ff04       __except_handler4_common   00420f04 f   vcruntime:VCRUNTIME140.dll
 0001:0001ff0a       ___stdio_common_vsprintf   00420f0a f   ucrt:api-ms-win-crt-stdio-l1-1-0.dll
 0001:0001ff10       _strncpy                   00420f10 f   ucrt:api-ms-win-crt-string-l1-1-0.dll
 0001:0001ff16       __stricmp                  00420f16 f   ucrt:api-ms-win-crt-string-l1-1-0.dll
 0001:0001ff1c       _isdigit                   00420f1c f   ucrt:api-ms-win-crt-string-l1-1-0.dll
 0001:0001ff22       __libm_sse2_cos_precise    00420f22 f   ucrt:api-ms-win-crt-math-l1-1-0.dll
 0001:0001ff28       _strtok                    00420f28 f   ucrt:api-ms-win-crt-string-l1-1-0.dll
 0001:0001ff2e       _atoi                      00420f2e f   ucrt:api-ms-win-crt-convert-l1-1-0.dll
 0001:0001ff34       _strncmp                   00420f34 f   ucrt:api-ms-win-crt-string-l1-1-0.dll
 0001:0001ff3a       _isxdigit                  00420f3a f   ucrt:api-ms-win-crt-string-l1-1-0.dll
 0001:0001ff40       __strnicmp                 00420f40 f   ucrt:api-ms-win-crt-string-l1-1-0.dll
 0001:0001ff46       _free                      00420f46 f   ucrt:api-ms-win-crt-heap-l1-1-0.dll
 0001:0001ff4c       _malloc                    00420f4c f   ucrt:api-ms-win-crt-heap-l1-1-0.dll
 0001:0001ff52       __CIfmod                   00420f52 f   ucrt:api-ms-win-crt-math-l1-1-0.dll
 0001:0001ff58       _calloc                    00420f58 f   ucrt:api-ms-win-crt-heap-l1-1-0.dll
 0001:0001ff5e       __libm_sse2_exp_precise    00420f5e f   ucrt:api-ms-win-crt-math-l1-1-0.dll
 0001:0001ff64       __libm_sse2_sqrt_precise   00420f64 f   ucrt:api-ms-win-crt-math-l1-1-0.dll
 0001:0001ff6a       __libm_sse2_log_precise    00420f6a f   ucrt:api-ms-win-crt-math-l1-1-0.dll
 0001:0001ff70       __libm_sse2_pow_precise    00420f70 f   ucrt:api-ms-win-crt-math-l1-1-0.dll
 0001:0001ff76       _floor                     00420f76 f   ucrt:api-ms-win-crt-math-l1-1-0.dll
 0001:0001ff7c       __libm_sse2_atan_precise   00420f7c f   ucrt:api-ms-win-crt-math-l1-1-0.dll
 0001:0001ff82       __libm_sse2_sin_precise    00420f82 f   ucrt:api-ms-win-crt-math-l1-1-0.dll
 0001:0001ff88       _exit                      00420f88 f   ucrt:api-ms-win-crt-runtime-l1-1-0.dll
 0001:0001ff8e       _perror                    00420f8e f   ucrt:api-ms-win-crt-runtime-l1-1-0.dll
 0001:0001ff94       _fclose                    00420f94 f   ucrt:api-ms-win-crt-stdio-l1-1-0.dll
 0001:0001ff9a       _fopen                     00420f9a f   ucrt:api-ms-win-crt-stdio-l1-1-0.dll
 0001:0001ffa0       _fputs                     00420fa0 f   ucrt:api-ms-win-crt-stdio-l1-1-0.dll
 0001:0001ffa6       _fseek                     00420fa6 f   ucrt:api-ms-win-crt-stdio-l1-1-0.dll
 0001:0001ffac       __seh_filter_exe           00420fac f   ucrt:api-ms-win-crt-runtime-l1-1-0.dll
 0001:0001ffb2       __set_app_type             00420fb2 f   ucrt:api-ms-win-crt-runtime-l1-1-0.dll
 0001:0001ffb8       ___setusermatherr          00420fb8 f   ucrt:api-ms-win-crt-math-l1-1-0.dll
 0001:0001ffbe       __configure_narrow_argv    00420fbe f   ucrt:api-ms-win-crt-runtime-l1-1-0.dll
 0001:0001ffc4       __initialize_narrow_environment 00420fc4 f   ucrt:api-ms-win-crt-runtime-l1-1-0.dll
 0001:0001ffca       __get_initial_narrow_environment 00420fca f   ucrt:api-ms-win-crt-runtime-l1-1-0.dll
 0001:0001ffd0       __initterm                 00420fd0 f   ucrt:api-ms-win-crt-runtime-l1-1-0.dll
 0001:0001ffd6       __initterm_e               00420fd6 f   ucrt:api-ms-win-crt-runtime-l1-1-0.dll
 0001:0001ffdc       __exit                     00420fdc f   ucrt:api-ms-win-crt-runtime-l1-1-0.dll
 0001:0001ffe2       __set_fmode                00420fe2 f   ucrt:api-ms-win-crt-stdio-l1-1-0.dll
 0001:0001ffe8       ___p___argc                00420fe8 f   ucrt:api-ms-win-crt-runtime-l1-1-0.dll
 0001:0001ffee       ___p___argv                00420fee f   ucrt:api-ms-win-crt-runtime-l1-1-0.dll
 0001:0001fff4       __cexit                    00420ff4 f   ucrt:api-ms-win-crt-runtime-l1-1-0.dll
 0001:0001fffa       __c_exit                   00420ffa f   ucrt:api-ms-win-crt-runtime-l1-1-0.dll
 0001:00020000       __register_thread_local_exe_atexit_callback 00421000 f   ucrt:api-ms-win-crt-runtime-l1-1-0.dll
 0001:00020006       __configthreadlocale       00421006 f   ucrt:api-ms-win-crt-locale-l1-1-0.dll
 0001:0002000c       __set_new_mode             0042100c f   ucrt:api-ms-win-crt-heap-l1-1-0.dll
 0001:00020012       ___p__commode              00421012 f   ucrt:api-ms-win-crt-stdio-l1-1-0.dll
 0001:00020018       __except1                  00421018 f   ucrt:api-ms-win-crt-math-l1-1-0.dll
 0001:0002001e       __initialize_onexit_table  0042101e f   ucrt:api-ms-win-crt-runtime-l1-1-0.dll
 0001:00020024       __register_onexit_function 00421024 f   ucrt:api-ms-win-crt-runtime-l1-1-0.dll
 0001:0002002a       __crt_atexit               0042102a f   ucrt:api-ms-win-crt-runtime-l1-1-0.dll
 0001:00020030       __controlfp_s              00421030 f   ucrt:api-ms-win-crt-runtime-l1-1-0.dll
 0001:00020036       _terminate                 00421036 f   ucrt:api-ms-win-crt-runtime-l1-1-0.dll
 0001:00020400       _pjmedia_aud_dev_default_param 00421400 f   pjmedia-audiodev-i386-win32-vc8-release:audiodev.obj
 0001:00020480       _pjmedia_aud_dev_get_info  00421480 f   pjmedia-audiodev-i386-win32-vc8-release:audiodev.obj
 0001:000204e0       _pjmedia_aud_stream_create 004214e0 f   pjmedia-audiodev-i386-win32-vc8-release:audiodev.obj
 0001:00020690       _pjmedia_aud_stream_destroy 00421690 f   pjmedia-audiodev-i386-win32-vc8-release:audiodev.obj
 0001:000206b0       _pjmedia_aud_stream_get_cap 004216b0 f   pjmedia-audiodev-i386-win32-vc8-release:audiodev.obj
 0001:000206d0       _pjmedia_aud_stream_get_param 004216d0 f   pjmedia-audiodev-i386-win32-vc8-release:audiodev.obj
 0001:00020730       _pjmedia_aud_stream_set_cap 00421730 f   pjmedia-audiodev-i386-win32-vc8-release:audiodev.obj
 0001:00020750       _pjmedia_aud_stream_start  00421750 f   pjmedia-audiodev-i386-win32-vc8-release:audiodev.obj
 0001:00020770       _pjmedia_aud_stream_stop   00421770 f   pjmedia-audiodev-i386-win32-vc8-release:audiodev.obj
 0001:00020790       _pjmedia_aud_subsys_init   00421790 f   pjmedia-audiodev-i386-win32-vc8-release:audiodev.obj
 0001:00020860       _pjmedia_aud_subsys_shutdown 00421860 f   pjmedia-audiodev-i386-win32-vc8-release:audiodev.obj
 0001:000208e0       _pjmedia_audiodev_strerror 004218e0 f   pjmedia-audiodev-i386-win32-vc8-release:errno.obj
 0001:00021cb0       _pjmedia_wmme_factory      00422cb0 f   pjmedia-audiodev-i386-win32-vc8-release:wmme_dev.obj
 0002:00000000       __imp__CreateEventA@16     00424000     kernel32:KERNEL32.dll
 0002:00000004       __imp__GetModuleHandleW@4  00424004     kernel32:KERNEL32.dll
 0002:00000008       __imp__IsDebuggerPresent@0 00424008     kernel32:KERNEL32.dll
 0002:0000000c       __imp__InitializeSListHead@4 0042400c     kernel32:KERNEL32.dll
 0002:00000010       __imp__GetSystemTimeAsFileTime@4 00424010     kernel32:KERNEL32.dll
 0002:00000014       __imp__IsProcessorFeaturePresent@4 00424014     kernel32:KERNEL32.dll
 0002:00000018       __imp__TerminateProcess@8  00424018     kernel32:KERNEL32.dll
 0002:0000001c       __imp__GetCurrentProcess@0 0042401c     kernel32:KERNEL32.dll
 0002:00000020       __imp__SetUnhandledExceptionFilter@4 00424020     kernel32:KERNEL32.dll
 0002:00000024       __imp__UnhandledExceptionFilter@4 00424024     kernel32:KERNEL32.dll
 0002:00000028       __imp__FormatMessageA@28   00424028     kernel32:KERNEL32.dll
 0002:0000002c       __imp__QueryPerformanceFrequency@4 0042402c     kernel32:KERNEL32.dll
 0002:00000030       __imp__QueryPerformanceCounter@4 00424030     kernel32:KERNEL32.dll
 0002:00000034       __imp__WriteFile@20        00424034     kernel32:KERNEL32.dll
 0002:00000038       __imp__SetFilePointer@16   00424038     kernel32:KERNEL32.dll
 0002:0000003c       __imp__ReadFile@20         0042403c     kernel32:KERNEL32.dll
 0002:00000040       __imp__GetFileSize@8       00424040     kernel32:KERNEL32.dll
 0002:00000044       __imp__WaitForMultipleObjects@16 00424044     kernel32:KERNEL32.dll
 0002:00000048       __imp__CreateFileA@28      00424048     kernel32:KERNEL32.dll
 0002:0000004c       __imp__SystemTimeToFileTime@8 0042404c     kernel32:KERNEL32.dll
 0002:00000050       __imp__FileTimeToSystemTime@8 00424050     kernel32:KERNEL32.dll
 0002:00000054       __imp__GetLocalTime@4      00424054     kernel32:KERNEL32.dll
 0002:00000058       __imp__SetConsoleTextAttribute@8 00424058     kernel32:KERNEL32.dll
 0002:0000005c       __imp__GetStdHandle@4      0042405c     kernel32:KERNEL32.dll
 0002:00000060       __imp__CloseHandle@4       00424060     kernel32:KERNEL32.dll
 0002:00000064       __imp__GetLastError@0      00424064     kernel32:KERNEL32.dll
 0002:00000068       __imp__InitializeCriticalSection@4 00424068     kernel32:KERNEL32.dll
 0002:0000006c       __imp__EnterCriticalSection@4 0042406c     kernel32:KERNEL32.dll
 0002:00000070       __imp__LeaveCriticalSection@4 00424070     kernel32:KERNEL32.dll
 0002:00000074       __imp__TryEnterCriticalSection@4 00424074     kernel32:KERNEL32.dll
 0002:00000078       __imp__DeleteCriticalSection@4 00424078     kernel32:KERNEL32.dll
 0002:0000007c       __imp__SetEvent@4          0042407c     kernel32:KERNEL32.dll
 0002:00000080       __imp__ReleaseSemaphore@12 00424080     kernel32:KERNEL32.dll
 0002:00000084       __imp__WaitForSingleObject@8 00424084     kernel32:KERNEL32.dll
 0002:00000088       __imp__Sleep@4             00424088     kernel32:KERNEL32.dll
 0002:0000008c       __imp__GetCurrentProcessId@0 0042408c     kernel32:KERNEL32.dll
 0002:00000090       __imp__CreateThread@24     00424090     kernel32:KERNEL32.dll
 0002:00000094       __imp__GetCurrentThread@0  00424094     kernel32:KERNEL32.dll
 0002:00000098       __imp__GetCurrentThreadId@0 00424098     kernel32:KERNEL32.dll
 0002:0000009c       __imp__SetThreadPriority@8 0042409c     kernel32:KERNEL32.dll
 0002:000000a0       __imp__TlsAlloc@0          004240a0     kernel32:KERNEL32.dll
 0002:000000a4       __imp__TlsGetValue@4       004240a4     kernel32:KERNEL32.dll
 0002:000000a8       __imp__TlsSetValue@8       004240a8     kernel32:KERNEL32.dll
 0002:000000ac       __imp__TlsFree@4           004240ac     kernel32:KERNEL32.dll
 0002:000000b0       \177KERNEL32_NULL_THUNK_DATA 004240b0     kernel32:KERNEL32.dll
 0002:000000b4       __imp__memset              004240b4     vcruntime:VCRUNTIME140.dll
 0002:000000b8       __imp__memmove             004240b8     vcruntime:VCRUNTIME140.dll
 0002:000000bc       __imp__memcpy              004240bc     vcruntime:VCRUNTIME140.dll
 0002:000000c0       __imp__strchr              004240c0     vcruntime:VCRUNTIME140.dll
 0002:000000c4       __imp__longjmp             004240c4     vcruntime:VCRUNTIME140.dll
 0002:000000c8       __imp___except_handler4_common 004240c8     vcruntime:VCRUNTIME140.dll
 0002:000000cc       \177VCRUNTIME140_NULL_THUNK_DATA 004240cc     vcruntime:VCRUNTIME140.dll
 0002:000000d0       __imp__waveOutGetErrorTextA@12 004240d0     winmm:WINMM.dll
 0002:000000d4       __imp__waveInGetErrorTextA@12 004240d4     winmm:WINMM.dll
 0002:000000d8       __imp__waveOutGetNumDevs@0 004240d8     winmm:WINMM.dll
 0002:000000dc       __imp__waveOutGetDevCapsA@12 004240dc     winmm:WINMM.dll
 0002:000000e0       __imp__waveOutGetVolume@8  004240e0     winmm:WINMM.dll
 0002:000000e4       __imp__waveOutSetVolume@8  004240e4     winmm:WINMM.dll
 0002:000000e8       __imp__waveOutOpen@24      004240e8     winmm:WINMM.dll
 0002:000000ec       __imp__waveOutPrepareHeader@12 004240ec     winmm:WINMM.dll
 0002:000000f0       __imp__waveOutUnprepareHeader@12 004240f0     winmm:WINMM.dll
 0002:000000f4       __imp__waveOutWrite@12     004240f4     winmm:WINMM.dll
 0002:000000f8       __imp__waveOutPause@4      004240f8     winmm:WINMM.dll
 0002:000000fc       __imp__waveOutRestart@4    004240fc     winmm:WINMM.dll
 0002:00000100       __imp__waveOutReset@4      00424100     winmm:WINMM.dll
 0002:00000104       __imp__waveInGetNumDevs@0  00424104     winmm:WINMM.dll
 0002:00000108       __imp__waveInGetDevCapsA@12 00424108     winmm:WINMM.dll
 0002:0000010c       __imp__waveInOpen@24       0042410c     winmm:WINMM.dll
 0002:00000110       __imp__waveInClose@4       00424110     winmm:WINMM.dll
 0002:00000114       __imp__waveInPrepareHeader@12 00424114     winmm:WINMM.dll
 0002:00000118       __imp__waveInUnprepareHeader@12 00424118     winmm:WINMM.dll
 0002:0000011c       __imp__waveInAddBuffer@12  0042411c     winmm:WINMM.dll
 0002:00000120       __imp__waveInStart@4       00424120     winmm:WINMM.dll
 0002:00000124       __imp__waveInStop@4        00424124     winmm:WINMM.dll
 0002:00000128       __imp__waveInReset@4       00424128     winmm:WINMM.dll
 0002:0000012c       __imp__waveOutClose@4      0042412c     winmm:WINMM.dll
 0002:00000130       \177WINMM_NULL_THUNK_DATA  00424130     winmm:WINMM.dll
 0002:00000134       __imp__select@20           00424134     ws2_32:WS2_32.dll
 0002:00000138       __imp____WSAFDIsSet@8      00424138     ws2_32:WS2_32.dll
 0002:0000013c       __imp__WSAStartup@8        0042413c     ws2_32:WS2_32.dll
 0002:00000140       __imp__WSACleanup@0        00424140     ws2_32:WS2_32.dll
 0002:00000144       __imp__WSAGetLastError@0   00424144     ws2_32:WS2_32.dll
 0002:00000148       __imp__accept@12           00424148     ws2_32:WS2_32.dll
 0002:0000014c       __imp__recv@16             0042414c     ws2_32:WS2_32.dll
 0002:00000150       __imp__getsockname@12      00424150     ws2_32:WS2_32.dll
 0002:00000154       __imp__recvfrom@24         00424154     ws2_32:WS2_32.dll
 0002:00000158       __imp__getsockopt@20       00424158     ws2_32:WS2_32.dll
 0002:0000015c       __imp__send@16             0042415c     ws2_32:WS2_32.dll
 0002:00000160       __imp__htonl@4             00424160     ws2_32:WS2_32.dll
 0002:00000164       __imp__htons@4             00424164     ws2_32:WS2_32.dll
 0002:00000168       __imp__sendto@24           00424168     ws2_32:WS2_32.dll
 0002:0000016c       __imp__ntohl@4             0042416c     ws2_32:WS2_32.dll
 0002:00000170       __imp__ntohs@4             00424170     ws2_32:WS2_32.dll
 0002:00000174       \177WS2_32_NULL_THUNK_DATA 00424174     ws2_32:WS2_32.dll
 0002:00000178       __imp__strtol              00424178     ucrt:api-ms-win-crt-convert-l1-1-0.dll
 0002:0000017c       __imp__atoi                0042417c     ucrt:api-ms-win-crt-convert-l1-1-0.dll
 0002:00000180       \177api-ms-win-crt-convert-l1-1-0_NULL_THUNK_DATA 00424180     ucrt:api-ms-win-crt-convert-l1-1-0.dll
 0002:00000184       __imp__malloc              00424184     ucrt:api-ms-win-crt-heap-l1-1-0.dll
 0002:00000188       __imp___set_new_mode       00424188     ucrt:api-ms-win-crt-heap-l1-1-0.dll
 0002:0000018c       __imp__calloc              0042418c     ucrt:api-ms-win-crt-heap-l1-1-0.dll
 0002:00000190       __imp__free                00424190     ucrt:api-ms-win-crt-heap-l1-1-0.dll
 0002:00000194       \177api-ms-win-crt-heap-l1-1-0_NULL_THUNK_DATA 00424194     ucrt:api-ms-win-crt-heap-l1-1-0.dll
 0002:00000198       __imp___configthreadlocale 00424198     ucrt:api-ms-win-crt-locale-l1-1-0.dll
 0002:0000019c       \177api-ms-win-crt-locale-l1-1-0_NULL_THUNK_DATA 0042419c     ucrt:api-ms-win-crt-locale-l1-1-0.dll
 0002:000001a0       __imp___libm_sse2_atan_precise 004241a0     ucrt:api-ms-win-crt-math-l1-1-0.dll
 0002:000001a4       __imp__floor               004241a4     ucrt:api-ms-win-crt-math-l1-1-0.dll
 0002:000001a8       __imp___libm_sse2_pow_precise 004241a8     ucrt:api-ms-win-crt-math-l1-1-0.dll
 0002:000001ac       __imp___libm_sse2_cos_precise 004241ac     ucrt:api-ms-win-crt-math-l1-1-0.dll
 0002:000001b0       __imp___CIfmod             004241b0     ucrt:api-ms-win-crt-math-l1-1-0.dll
 0002:000001b4       __imp____setusermatherr    004241b4     ucrt:api-ms-win-crt-math-l1-1-0.dll
 0002:000001b8       __imp___except1            004241b8     ucrt:api-ms-win-crt-math-l1-1-0.dll
 0002:000001bc       __imp___libm_sse2_exp_precise 004241bc     ucrt:api-ms-win-crt-math-l1-1-0.dll
 0002:000001c0       __imp___libm_sse2_sqrt_precise 004241c0     ucrt:api-ms-win-crt-math-l1-1-0.dll
 0002:000001c4       __imp___libm_sse2_sin_precise 004241c4     ucrt:api-ms-win-crt-math-l1-1-0.dll
 0002:000001c8       __imp___libm_sse2_log_precise 004241c8     ucrt:api-ms-win-crt-math-l1-1-0.dll
 0002:000001cc       \177api-ms-win-crt-math-l1-1-0_NULL_THUNK_DATA 004241cc     ucrt:api-ms-win-crt-math-l1-1-0.dll
 0002:000001d0       __imp___exit               004241d0     ucrt:api-ms-win-crt-runtime-l1-1-0.dll
 0002:000001d4       __imp____p___argc          004241d4     ucrt:api-ms-win-crt-runtime-l1-1-0.dll
 0002:000001d8       __imp____p___argv          004241d8     ucrt:api-ms-win-crt-runtime-l1-1-0.dll
 0002:000001dc       __imp___cexit              004241dc     ucrt:api-ms-win-crt-runtime-l1-1-0.dll
 0002:000001e0       __imp___initterm_e         004241e0     ucrt:api-ms-win-crt-runtime-l1-1-0.dll
 0002:000001e4       __imp___register_thread_local_exe_atexit_callback 004241e4     ucrt:api-ms-win-crt-runtime-l1-1-0.dll
 0002:000001e8       __imp___initterm           004241e8     ucrt:api-ms-win-crt-runtime-l1-1-0.dll
 0002:000001ec       __imp___get_initial_narrow_environment 004241ec     ucrt:api-ms-win-crt-runtime-l1-1-0.dll
 0002:000001f0       __imp___initialize_narrow_environment 004241f0     ucrt:api-ms-win-crt-runtime-l1-1-0.dll
 0002:000001f4       __imp___configure_narrow_argv 004241f4     ucrt:api-ms-win-crt-runtime-l1-1-0.dll
 0002:000001f8       __imp___initialize_onexit_table 004241f8     ucrt:api-ms-win-crt-runtime-l1-1-0.dll
 0002:000001fc       __imp___register_onexit_function 004241fc     ucrt:api-ms-win-crt-runtime-l1-1-0.dll
 0002:00000200       __imp___crt_atexit         00424200     ucrt:api-ms-win-crt-runtime-l1-1-0.dll
 0002:00000204       __imp___controlfp_s        00424204     ucrt:api-ms-win-crt-runtime-l1-1-0.dll
 0002:00000208       __imp__terminate           00424208     ucrt:api-ms-win-crt-runtime-l1-1-0.dll
 0002:0000020c       __imp___set_app_type       0042420c     ucrt:api-ms-win-crt-runtime-l1-1-0.dll
 0002:00000210       __imp___seh_filter_exe     00424210     ucrt:api-ms-win-crt-runtime-l1-1-0.dll
 0002:00000214       __imp__exit                00424214     ucrt:api-ms-win-crt-runtime-l1-1-0.dll
 0002:00000218       __imp___c_exit             00424218     ucrt:api-ms-win-crt-runtime-l1-1-0.dll
 0002:0000021c       __imp__perror              0042421c     ucrt:api-ms-win-crt-runtime-l1-1-0.dll
 0002:00000220       \177api-ms-win-crt-runtime-l1-1-0_NULL_THUNK_DATA 00424220     ucrt:api-ms-win-crt-runtime-l1-1-0.dll
 0002:00000224       __imp____acrt_iob_func     00424224     ucrt:api-ms-win-crt-stdio-l1-1-0.dll
 0002:00000228       __imp__fflush              00424228     ucrt:api-ms-win-crt-stdio-l1-1-0.dll
 0002:0000022c       __imp____stdio_common_vfprintf 0042422c     ucrt:api-ms-win-crt-stdio-l1-1-0.dll
 0002:00000230       __imp____p__commode        00424230     ucrt:api-ms-win-crt-stdio-l1-1-0.dll
 0002:00000234       __imp___set_fmode          00424234     ucrt:api-ms-win-crt-stdio-l1-1-0.dll
 0002:00000238       __imp__fgets               00424238     ucrt:api-ms-win-crt-stdio-l1-1-0.dll
 0002:0000023c       __imp__fseek               0042423c     ucrt:api-ms-win-crt-stdio-l1-1-0.dll
 0002:00000240       __imp__fputs               00424240     ucrt:api-ms-win-crt-stdio-l1-1-0.dll
 0002:00000244       __imp__fopen               00424244     ucrt:api-ms-win-crt-stdio-l1-1-0.dll
 0002:00000248       __imp__fclose              00424248     ucrt:api-ms-win-crt-stdio-l1-1-0.dll
 0002:0000024c       __imp__puts                0042424c     ucrt:api-ms-win-crt-stdio-l1-1-0.dll
 0002:00000250       __imp____stdio_common_vsprintf 00424250     ucrt:api-ms-win-crt-stdio-l1-1-0.dll
 0002:00000254       \177api-ms-win-crt-stdio-l1-1-0_NULL_THUNK_DATA 00424254     ucrt:api-ms-win-crt-stdio-l1-1-0.dll
 0002:00000258       __imp__isxdigit            00424258     ucrt:api-ms-win-crt-string-l1-1-0.dll
 0002:0000025c       __imp__strncmp             0042425c     ucrt:api-ms-win-crt-string-l1-1-0.dll
 0002:00000260       __imp__strtok              00424260     ucrt:api-ms-win-crt-string-l1-1-0.dll
 0002:00000264       __imp__isdigit             00424264     ucrt:api-ms-win-crt-string-l1-1-0.dll
 0002:00000268       __imp___stricmp            00424268     ucrt:api-ms-win-crt-string-l1-1-0.dll
 0002:0000026c       __imp__strncpy             0042426c     ucrt:api-ms-win-crt-string-l1-1-0.dll
 0002:00000270       __imp___strnicmp           00424270     ucrt:api-ms-win-crt-string-l1-1-0.dll
 0002:00000274       \177api-ms-win-crt-string-l1-1-0_NULL_THUNK_DATA 00424274     ucrt:api-ms-win-crt-string-l1-1-0.dll
 0002:00000278       __imp__CoCreateGuid@4      00424278     ole32:ole32.dll
 0002:0000027c       \177ole32_NULL_THUNK_DATA  0042427c     ole32:ole32.dll
 0002:00000280       ___guard_check_icall_fptr  00424280     MSVCRT:guard_support.obj
 0002:00000284       ___xc_a                    00424284     MSVCRT:initializers.obj
 0002:0000028c       ___xc_z                    0042428c     MSVCRT:initializers.obj
 0002:00000290       ___xi_a                    00424290     MSVCRT:initializers.obj
 0002:0000029c       ___xi_z                    0042429c     MSVCRT:initializers.obj
 0002:000002a0       ___xp_a                    004242a0     MSVCRT:initializers.obj
 0002:000002a4       ___xp_z                    004242a4     MSVCRT:initializers.obj
 0002:000002a8       ___xt_a                    004242a8     MSVCRT:initializers.obj
 0002:000002ac       ___xt_z                    004242ac     MSVCRT:initializers.obj
 0002:000002b0       __xmm@00000000000000620000000000000001 004242b0     confsample.obj
 0002:000002c0       ??_C@_0N@GJCGOFHI@Master?1sound?$AA@ 004242c0     pjmedia-i386-win32-vc8-release:conference.obj
 0002:000002d0       ??_C@_0CN@NGHGIGLE@Sound?5device?5successfully?5create@ 004242d0     pjmedia-i386-win32-vc8-release:conference.obj
 0002:00000300       ??_C@_0N@HKLHDDNB@conference?4c?$AA@ 00424300     pjmedia-i386-win32-vc8-release:conference.obj
 0002:00000310       ??_C@_04DECFOHCF@Conf?$AA@ 00424310     pjmedia-i386-win32-vc8-release:conference.obj
 0002:00000318       ??_C@_0CJ@CCNOOKCI@Creating?5conference?5bridge?5with?5@ 00424318     pjmedia-i386-win32-vc8-release:conference.obj
 0002:00000344       ??_C@_04PFOEMICB@conf?$AA@ 00424344     pjmedia-i386-win32-vc8-release:conference.obj
 0002:0000034c       ??_C@_0CO@BCCAEBCC@Port?5?$CFd?5?$CI?$CF?4?$CKs?$CJ?5transmitting?5to?5p@ 0042434c     pjmedia-i386-win32-vc8-release:conference.obj
 0002:0000037c       ??_C@_0DD@HEHPDBFJ@Port?5?$CFd?5?$CI?$CF?4?$CKs?$CJ?5stop?5transmitting@ 0042437c     pjmedia-i386-win32-vc8-release:conference.obj
 0002:000003b0       __real@3fe0000000000000    004243b0     pjmedia-i386-win32-vc8-release:conference.obj
 0002:000003c0       __xmm@41f00000000000000000000000000000 004243c0     pjmedia-i386-win32-vc8-release:conference.obj
 0002:00000400       ??_C@_07OEHJJJKF@RTP?1AVP?$AA@ 00424400     pjmedia-i386-win32-vc8-release:endpoint.obj
 0002:00000408       ??_C@_02BBAPPCCJ@IN?$AA@   00424408     pjmedia-i386-win32-vc8-release:endpoint.obj
 0002:0000040c       ??_C@_03OPDBOKBD@IP4?$AA@  0042440c     pjmedia-i386-win32-vc8-release:endpoint.obj
 0002:00000410       ??_C@_03NNAHIIJB@IP6?$AA@  00424410     pjmedia-i386-win32-vc8-release:endpoint.obj
 0002:00000414       ??_C@_07HDFHIMAJ@pjmedia?$AA@ 00424414     pjmedia-i386-win32-vc8-release:endpoint.obj
 0002:0000041c       ??_C@_08LMCBNPPN@sendrecv?$AA@ 0042441c     pjmedia-i386-win32-vc8-release:endpoint.obj
 0002:00000428       ??_C@_07LBNDIDNE@med?9ept?$AA@ 00424428     pjmedia-i386-win32-vc8-release:endpoint.obj
 0002:00000430       ??_C@_0EL@BIFHLACC@Warning?3?5no?5worker?5thread?5is?5cre@ 00424430     pjmedia-i386-win32-vc8-release:endpoint.obj
 0002:0000047c       ??_C@_0L@DLFDMOGF@endpoint?4c?$AA@ 0042447c     pjmedia-i386-win32-vc8-release:endpoint.obj
 0002:00000488       ??_C@_05CECBHAPI@media?$AA@ 00424488     pjmedia-i386-win32-vc8-release:endpoint.obj
 0002:0000048e       ??_C@_00CNPNBAHC@?$AA@     0042448e     pjmedia-i386-win32-vc8-release:endpoint.obj
 0002:00000490       ??_C@_01CLKCMJKC@?5?$AA@   00424490     pjmedia-i386-win32-vc8-release:endpoint.obj
 0002:00000494       ??_C@_04DAMGJPCA@file?$AA@ 00424494     pjmedia-i386-win32-vc8-release:wav_player.obj
 0002:0000049c       ??_C@_0DH@CJCCJAOK@actual?5value?$HMexpected?5riff?$DN?$CFx?$HM?$CFx@ 0042449c     pjmedia-i386-win32-vc8-release:wav_player.obj
 0002:000004d4       ??_C@_0N@EAJPAIGO@wav_player?4c?$AA@ 004244d4     pjmedia-i386-win32-vc8-release:wav_player.obj
 0002:000004e8       ??_C@_0EO@KJDBHFL@File?5player?5?8?$CF?4?$CKs?8?5created?3?5samp@ 004244e8     pjmedia-i386-win32-vc8-release:wav_player.obj
 0002:00000538       ??_C@_0BD@LPPPNKOC@File?5port?5?$CF?4?$CKs?5EOF?$AA@ 00424538     pjmedia-i386-win32-vc8-release:wav_player.obj
 0002:0000054c       ??_C@_0BL@OHCCHMIC@File?5port?5?$CF?4?$CKs?5rewinding?4?4?$AA@ 0042454c     pjmedia-i386-win32-vc8-release:wav_player.obj
 0002:00000568       ??_C@_0DH@EDIEAILI@File?5writer?5?8?$CF?4?$CKs?8?5created?3?5samp@ 00424568     pjmedia-i386-win32-vc8-release:wav_writer.obj
 0002:000005a0       ??_C@_0N@MCLOBLAH@wav_writer?4c?$AA@ 004245a0     pjmedia-i386-win32-vc8-release:wav_writer.obj
 0002:000005b0       ??_C@_08LLMLEOE@delaybuf?$AA@ 004245b0     pjmedia-i386-win32-vc8-release:delaybuf.obj
 0002:000005bc       ??_C@_0BP@CKANIKAH@Using?5delay?5buffer?5with?5WSOLA?4?$AA@ 004245bc     pjmedia-i386-win32-vc8-release:delaybuf.obj
 0002:000005dc       ??_C@_0CA@BKBNPCON@Using?5simple?5FIFO?5delay?5buffer?4?$AA@ 004245dc     pjmedia-i386-win32-vc8-release:delaybuf.obj
 0002:000005fc       ??_C@_0BP@JJBHJNOO@?$CFd?5samples?5reduced?0?5buf_cnt?$DN?$CFd?$AA@ 004245fc     pjmedia-i386-win32-vc8-release:delaybuf.obj
 0002:0000061c       ??_C@_0DA@FPCBOFHC@Buffer?5size?5adjusted?5from?5?$CFd?5to?5@ 0042461c     pjmedia-i386-win32-vc8-release:delaybuf.obj
 0002:0000064c       ??_C@_0CD@DJOCKALK@Shrinking?5failed?5or?5insufficient@ 0042464c     pjmedia-i386-win32-vc8-release:delaybuf.obj
 0002:00000670       ??_C@_0CJ@KJHKGIAO@?$CFsDropping?5?$CFd?5eldest?5samples?0?5bu@ 00424670     pjmedia-i386-win32-vc8-release:delaybuf.obj
 0002:0000069c       ??_C@_0CN@FEOJBHHF@Underflow?0?5buf_cnt?$DN?$CFd?0?5will?5gene@ 0042469c     pjmedia-i386-win32-vc8-release:delaybuf.obj
 0002:000006cc       ??_C@_0CC@NNEAKFHB@Error?5generating?5frame?0?5status?$DN?$CF@ 004246cc     pjmedia-i386-win32-vc8-release:delaybuf.obj
 0002:000006f0       ??_C@_0BG@OCJPAJA@Delay?5buffer?5is?5reset?$AA@ 004246f0     pjmedia-i386-win32-vc8-release:delaybuf.obj
 0002:00000708       ??_C@_05BHNOFNA@large?$AA@ 00424708     pjmedia-i386-win32-vc8-release:resample_resample.obj
 0002:00000710       ??_C@_05KJDGBEEG@small?$AA@ 00424710     pjmedia-i386-win32-vc8-release:resample_resample.obj
 0002:00000718       ??_C@_04DGANLAON@high?$AA@ 00424718     pjmedia-i386-win32-vc8-release:resample_resample.obj
 0002:00000720       ??_C@_03IMLOALHE@low?$AA@  00424720     pjmedia-i386-win32-vc8-release:resample_resample.obj
 0002:00000724       ??_C@_0DK@LBFHIBFM@resample?5created?3?5?$CFs?5qualiy?0?5?$CFs?5@ 00424724     pjmedia-i386-win32-vc8-release:resample_resample.obj
 0002:00000760       ??_C@_0L@BNONNLDH@resample?4c?$AA@ 00424760     pjmedia-i386-win32-vc8-release:resample_resample.obj
 0002:0000076c       ??_C@_0N@COEOBFOD@EC?5activated?$AA@ 0042476c     pjmedia-i386-win32-vc8-release:sound_port.obj
 0002:0000077c       ??_C@_0N@GOCHBLLA@sound_port?4c?$AA@ 0042477c     pjmedia-i386-win32-vc8-release:sound_port.obj
 0002:0000078c       ??_C@_0CD@IGHBIGGN@EC?5suspended?5because?5of?5inactivi@ 0042478c     pjmedia-i386-win32-vc8-release:sound_port.obj
 0002:000007b0       ??_C@_0CB@KICGINBD@AEC?5tail?5is?5set?5to?5default?5?$CFu?5ms@ 004247b0     pjmedia-i386-win32-vc8-release:sound_port.obj
 0002:000007d4       ??_C@_0DJ@PNINHBGM@pjmedia_snd_port_set_ec?$CI?$CJ?5ignore@ 004247d4     pjmedia-i386-win32-vc8-release:sound_port.obj
 0002:00000810       ??_C@_0DB@KDEIEFDK@Echo?5canceller?5is?5now?5disabled?5i@ 00424810     pjmedia-i386-win32-vc8-release:sound_port.obj
 0002:00000848       _pjmedia_linear2ulaw_tab   00424848     pjmedia-i386-win32-vc8-release:alaw_ulaw_table.obj
 0002:00004848       _pjmedia_linear2alaw_tab   00428848     pjmedia-i386-win32-vc8-release:alaw_ulaw_table.obj
 0002:00008848       _pjmedia_ulaw2linear_tab   0042c848     pjmedia-i386-win32-vc8-release:alaw_ulaw_table.obj
 0002:00008a48       _pjmedia_alaw2linear_tab   0042ca48     pjmedia-i386-win32-vc8-release:alaw_ulaw_table.obj
 0002:00008c48       ??_C@_09GLMNEMC@codec?9mgr?$AA@ 0042cc48     pjmedia-i386-win32-vc8-release:codec.obj
 0002:00008c64       ??_C@_08MPIAKENM@RTP?1SAVP?$AA@ 0042cc64     pjmedia-i386-win32-vc8-release:sdp.obj
 0002:00008c70       ??_C@_08INHMCBAE@inactive?$AA@ 0042cc70     pjmedia-i386-win32-vc8-release:sdp.obj
 0002:00008f90       ??_C@_0CK@HBHLALIF@Unspecified?5PJMEDIA?5error?5?$CIPJMED@ 0042cf90     pjmedia-i386-win32-vc8-release:errno.obj
 0002:00008fbc       ??_C@_0CM@KFAONKNJ@Invalid?5SDP?5descriptor?5?$CIPJMEDIA_@ 0042cfbc     pjmedia-i386-win32-vc8-release:errno.obj
 0002:00008fe8       ??_C@_0CO@ONPCFICA@Invalid?5SDP?5version?5line?5?$CIPJMEDI@ 0042cfe8     pjmedia-i386-win32-vc8-release:errno.obj
 0002:00009018       ??_C@_0DA@DIKNJOEJ@Invalid?5SDP?5origin?5line?5?$CIPJMEDIA@ 0042d018     pjmedia-i386-win32-vc8-release:errno.obj
 0002:00009048       ??_C@_0CM@DLEAGODI@Invalid?5SDP?5time?5line?5?$CIPJMEDIA_S@ 0042d048     pjmedia-i386-win32-vc8-release:errno.obj
 0002:00009074       ??_C@_0DF@HNDCDPJF@SDP?5name?1subject?5line?5is?5empty?5?$CI@ 0042d074     pjmedia-i386-win32-vc8-release:errno.obj
 0002:000090ac       ??_C@_0DC@KNNPDHKA@Invalid?5SDP?5connection?5line?5?$CIPJM@ 0042d0ac     pjmedia-i386-win32-vc8-release:errno.obj
 0002:000090e0       ??_C@_0DM@NEDHCJGL@Missing?5SDP?5connection?5info?5line@ 0042d0e0     pjmedia-i386-win32-vc8-release:errno.obj
 0002:0000911c       ??_C@_0CN@JHLMEODJ@Invalid?5SDP?5attributes?5?$CIPJMEDIA_@ 0042d11c     pjmedia-i386-win32-vc8-release:errno.obj
 0002:0000914c       ??_C@_0DF@BJAALDOM@Invalid?5SDP?5rtpmap?5attribute?5?$CIPJ@ 0042d14c     pjmedia-i386-win32-vc8-release:errno.obj
 0002:00009184       ??_C@_0DL@HCOGNPAF@SDP?5rtpmap?5attribute?5too?5long?5?$CIP@ 0042d184     pjmedia-i386-win32-vc8-release:errno.obj
 0002:000091c0       ??_C@_0EJ@IDNJACOO@Missing?5SDP?5rtpmap?5for?5dynamic?5p@ 0042d1c0     pjmedia-i386-win32-vc8-release:errno.obj
 0002:0000920c       ??_C@_0CO@DIKFNJOF@Invalid?5SDP?5media?5line?5?$CIPJMEDIA_@ 0042d20c     pjmedia-i386-win32-vc8-release:errno.obj
 0002:0000923c       ??_C@_0DN@GADAENKO@No?5SDP?5payload?5format?5in?5the?5med@ 0042d23c     pjmedia-i386-win32-vc8-release:errno.obj
 0002:0000927c       ??_C@_0DL@KAILPDC@Invalid?5SDP?5payload?5type?5in?5medi@ 0042d27c     pjmedia-i386-win32-vc8-release:errno.obj
 0002:000092b8       ??_C@_0DB@BJCACDID@Invalid?5SDP?5fmtp?5attribute?5?$CIPJME@ 0042d2b8     pjmedia-i386-win32-vc8-release:errno.obj
 0002:000092ec       ??_C@_0DB@BKKJGGKM@Invalid?5SDP?5rtcp?5attribyte?5?$CIPJME@ 0042d2ec     pjmedia-i386-win32-vc8-release:errno.obj
 0002:00009320       ??_C@_0DM@JFGCNJLM@Invalid?5SDP?5media?5transport?5prot@ 0042d320     pjmedia-i386-win32-vc8-release:errno.obj
 0002:0000935c       ??_C@_0DH@PCNCDMKM@Invalid?5SDP?5bandwidth?5info?5line?5@ 0042d35c     pjmedia-i386-win32-vc8-release:errno.obj
 0002:00009398       ??_C@_0EF@CJNFLCEL@Invalid?5SDP?5negotiator?5state?5for@ 0042d398     pjmedia-i386-win32-vc8-release:errno.obj
 0002:000093e0       ??_C@_0ED@IFOJJHNO@No?5initial?5local?5SDP?5in?5SDP?5nego@ 0042d3e0     pjmedia-i386-win32-vc8-release:errno.obj
 0002:00009424       ??_C@_0DL@MFMHOMBE@No?5active?5SDP?5in?5SDP?5negotiator?5@ 0042d424     pjmedia-i386-win32-vc8-release:errno.obj
 0002:00009460       ??_C@_0DN@JGPGLEOH@No?5current?5local?1remote?5offer?1an@ 0042d460     pjmedia-i386-win32-vc8-release:errno.obj
 0002:000094a0       ??_C@_0EE@BLNHOMNC@SDP?5media?5count?5mismatch?5in?5offe@ 0042d4a0     pjmedia-i386-win32-vc8-release:errno.obj
 0002:000094e8       ??_C@_0EG@MJOIPNIH@SDP?5media?5type?5mismatch?5in?5offer@ 0042d4e8     pjmedia-i386-win32-vc8-release:errno.obj
 0002:00009530       ??_C@_0EN@OPFCIOMP@SDP?5media?5transport?5type?5mismatc@ 0042d530     pjmedia-i386-win32-vc8-release:errno.obj
 0002:00009580       ??_C@_0ED@NGHPALDD@No?5common?5SDP?5media?5payload?5in?5a@ 0042d580     pjmedia-i386-win32-vc8-release:errno.obj
 0002:000095c8       ??_C@_0ED@HELGJJGO@No?5active?5media?5stream?5after?5neg@ 0042d5c8     pjmedia-i386-win32-vc8-release:errno.obj
 0002:0000960c       ??_C@_0DP@KIMEPBPF@No?5suitable?5codec?5for?5remote?5off@ 0042d60c     pjmedia-i386-win32-vc8-release:errno.obj
 0002:00009650       ??_C@_0EM@LLMPLGCO@No?5suitable?5telephone?9event?5for?5@ 0042d650     pjmedia-i386-win32-vc8-release:errno.obj
 0002:000096a0       ??_C@_0EK@LPNBCGHG@No?5suitable?5answer?5for?5unknown?5r@ 0042d6a0     pjmedia-i386-win32-vc8-release:errno.obj
 0002:000096ec       ??_C@_0DM@JMBBJEKO@SDP?5media?5descriptor?5not?5equal?5?$CI@ 0042d6ec     pjmedia-i386-win32-vc8-release:errno.obj
 0002:00009728       ??_C@_0ED@KAALGBMF@Port?5in?5SDP?5media?5descriptor?5not@ 0042d728     pjmedia-i386-win32-vc8-release:errno.obj
 0002:00009770       ??_C@_0EJ@FJOJLJDF@Transport?5in?5SDP?5media?5descripto@ 0042d770     pjmedia-i386-win32-vc8-release:errno.obj
 0002:000097c0       ??_C@_0EH@FMIFCFBA@Format?5in?5SDP?5media?5descriptor?5n@ 0042d7c0     pjmedia-i386-win32-vc8-release:errno.obj
 0002:00009808       ??_C@_0DK@MAHAOAHF@SDP?5connection?5line?5not?5equal?5?$CIP@ 0042d808     pjmedia-i386-win32-vc8-release:errno.obj
 0002:00009844       ??_C@_0DF@HHCJAGLJ@SDP?5attributes?5not?5equal?5?$CIPJMEDI@ 0042d844     pjmedia-i386-win32-vc8-release:errno.obj
 0002:0000987c       ??_C@_0DJ@GGABIHGL@SDP?5media?5direction?5not?5equal?5?$CIP@ 0042d87c     pjmedia-i386-win32-vc8-release:errno.obj
 0002:000098b8       ??_C@_0DJ@FFGHKCEG@SDP?5fmtp?5attribute?5not?5equal?5?$CIPJ@ 0042d8b8     pjmedia-i386-win32-vc8-release:errno.obj
 0002:000098f4       ??_C@_0DN@HLKACHFN@SDP?5rtpmap?5attribute?5not?5equal?5?$CI@ 0042d8f4     pjmedia-i386-win32-vc8-release:errno.obj
 0002:00009934       ??_C@_0DN@EALGPLFN@SDP?5session?5descriptor?5not?5equal@ 0042d934     pjmedia-i386-win32-vc8-release:errno.obj
 0002:00009974       ??_C@_0DI@BLKBMMGO@SDP?5origin?5line?5not?5equal?5?$CIPJMED@ 0042d974     pjmedia-i386-win32-vc8-release:errno.obj
 0002:000099ac       ??_C@_0DM@HCOBINN@SDP?5name?1subject?5line?5not?5equal?5@ 0042d9ac     pjmedia-i386-win32-vc8-release:errno.obj
 0002:000099e8       ??_C@_0DE@PFJJJNGL@SDP?5time?5line?5not?5equal?5?$CIPJMEDIA@ 0042d9e8     pjmedia-i386-win32-vc8-release:errno.obj
 0002:00009a1c       ??_C@_0CP@ODMIIAEN@Unsupported?5media?5codec?5?$CIPJMEDIA@ 0042da1c     pjmedia-i386-win32-vc8-release:errno.obj
 0002:00009a4c       ??_C@_0DG@KJBEJCIE@Codec?5internal?5creation?5error?5?$CIP@ 0042da4c     pjmedia-i386-win32-vc8-release:errno.obj
 0002:00009a84       ??_C@_0DG@FOGENKNL@Codec?5frame?5is?5too?5short?5?$CIPJMEDI@ 0042da84     pjmedia-i386-win32-vc8-release:errno.obj
 0002:00009abc       ??_C@_0DE@OLKJHMCL@PCM?5frame?5is?5too?5short?5?$CIPJMEDIA_@ 0042dabc     pjmedia-i386-win32-vc8-release:errno.obj
 0002:00009af0       ??_C@_0DF@JDAOLAOM@Invalid?5codec?5frame?5length?5?$CIPJME@ 0042daf0     pjmedia-i386-win32-vc8-release:errno.obj
 0002:00009b28       ??_C@_0DG@LLBBCNCG@Invalid?5PCM?5frame?5length?5?$CIPJMEDI@ 0042db28     pjmedia-i386-win32-vc8-release:errno.obj
 0002:00009b60       ??_C@_0DG@EKMGLMFL@Invalid?5codec?5mode?5?$CIno?5fmtp?$DP?$CJ?5?$CIP@ 0042db60     pjmedia-i386-win32-vc8-release:errno.obj
 0002:00009b98       ??_C@_0DJ@NJFBGAOC@Bad?5or?5corrupted?5bitstream?5?$CIPJME@ 0042db98     pjmedia-i386-win32-vc8-release:errno.obj
 0002:00009bd4       ??_C@_0DH@KOBKDDJI@Invalid?5remote?5media?5?$CIIP?$CJ?5addres@ 0042dbd4     pjmedia-i386-win32-vc8-release:errno.obj
 0002:00009c0c       ??_C@_0DM@GBJMMNCF@Asymetric?5media?5codec?5is?5not?5sup@ 0042dc0c     pjmedia-i386-win32-vc8-release:errno.obj
 0002:00009c48       ??_C@_0DA@DKJJFGPE@Invalid?5media?5payload?5type?5?$CIPJME@ 0042dc48     pjmedia-i386-win32-vc8-release:errno.obj
 0002:00009c78       ??_C@_0DN@IGGOEBDI@Missing?5rtpmap?5in?5media?5descript@ 0042dc78     pjmedia-i386-win32-vc8-release:errno.obj
 0002:00009cb8       ??_C@_0CO@MJBLNMMI@Invalid?5media?5type?5?$CIPJMEDIA_EINV@ 0042dcb8     pjmedia-i386-win32-vc8-release:errno.obj
 0002:00009ce8       ??_C@_0DF@NNKPPHHC@Remote?5does?5not?5support?5DTMF?5?$CIPJ@ 0042dce8     pjmedia-i386-win32-vc8-release:errno.obj
 0002:00009d20       ??_C@_0CJ@ECIKMCPH@Invalid?5DTMF?5digit?5?$CIPJMEDIA_RTP_@ 0042dd20     pjmedia-i386-win32-vc8-release:errno.obj
 0002:00009d4c       ??_C@_0DN@EHCPFJJN@Remote?5does?5not?5support?5RFC?52833@ 0042dd4c     pjmedia-i386-win32-vc8-release:errno.obj
 0002:00009d8c       ??_C@_0BN@LMCOIKH@Bad?5format?5?$CIPJMEDIA_EBADFMT?$CJ?$AA@ 0042dd8c     pjmedia-i386-win32-vc8-release:errno.obj
 0002:00009dac       ??_C@_0CI@KDAMKHEL@Invalid?5RTP?5packet?5?$CIPJMEDIA_RTP_@ 0042ddac     pjmedia-i386-win32-vc8-release:errno.obj
 0002:00009dd4       ??_C@_0DL@KLDJIJLI@Invalid?5RTP?5packing?5?$CIinternal?5er@ 0042ddd4     pjmedia-i386-win32-vc8-release:errno.obj
 0002:00009e10       ??_C@_0CJ@NGKNCMFA@Invalid?5RTP?5version?5?$CIPJMEDIA_RTP@ 0042de10     pjmedia-i386-win32-vc8-release:errno.obj
 0002:00009e3c       ??_C@_0DC@PFPAEINL@RTP?5packet?5SSRC?5id?5mismatch?5?$CIPJM@ 0042de3c     pjmedia-i386-win32-vc8-release:errno.obj
 0002:00009e70       ??_C@_0DF@KDOADJLK@RTP?5packet?5payload?5type?5mismatch@ 0042de70     pjmedia-i386-win32-vc8-release:errno.obj
 0002:00009ea8       ??_C@_0CP@OBFABIAL@Invalid?5RTP?5packet?5length?5?$CIPJMED@ 0042dea8     pjmedia-i386-win32-vc8-release:errno.obj
 0002:00009ed8       ??_C@_0DB@HLHLKEBJ@RTP?5session?5restarted?5?$CIPJMEDIA_R@ 0042ded8     pjmedia-i386-win32-vc8-release:errno.obj
 0002:00009f0c       ??_C@_0DG@OPPFJBGL@RTP?5session?5in?5probation?5?$CIPJMEDI@ 0042df0c     pjmedia-i386-win32-vc8-release:errno.obj
 0002:00009f44       ??_C@_0DI@LFLLIJCB@Bad?5sequence?5number?5in?5RTP?5packe@ 0042df44     pjmedia-i386-win32-vc8-release:errno.obj
 0002:00009f80       ??_C@_0EE@PHAAOPAG@RTP?5media?5port?5destination?5is?5no@ 0042df80     pjmedia-i386-win32-vc8-release:errno.obj
 0002:00009fc4       ??_C@_0CO@BFKJOFNE@RTP?5is?5not?5configured?5?$CIPJMEDIA_R@ 0042dfc4     pjmedia-i386-win32-vc8-release:errno.obj
 0002:00009ff4       ??_C@_0DI@MEKDIPIO@Media?5ports?5are?5not?5compatible?5?$CI@ 0042dff4     pjmedia-i386-win32-vc8-release:errno.obj
 0002:0000a030       ??_C@_0EA@EJPEOGMK@Media?5ports?5have?5incompatible?5cl@ 0042e030     pjmedia-i386-win32-vc8-release:errno.obj
 0002:0000a070       ??_C@_0EL@KOIIKBFP@Media?5ports?5have?5incompatible?5sa@ 0042e070     pjmedia-i386-win32-vc8-release:errno.obj
 0002:0000a0bc       ??_C@_0DL@FLCJCEPI@Media?5ports?5have?5incompatible?5me@ 0042e0bc     pjmedia-i386-win32-vc8-release:errno.obj
 0002:0000a0f8       ??_C@_0EA@CDICINEI@Media?5ports?5have?5incompatible?5bi@ 0042e0f8     pjmedia-i386-win32-vc8-release:errno.obj
 0002:0000a138       ??_C@_0EB@DHIDGGBD@Media?5ports?5have?5incompatible?5by@ 0042e138     pjmedia-i386-win32-vc8-release:errno.obj
 0002:0000a180       ??_C@_0EG@FBPNENMF@Media?5ports?5have?5incompatible?5nu@ 0042e180     pjmedia-i386-win32-vc8-release:errno.obj
 0002:0000a1c8       ??_C@_0CO@CKCFJDML@Not?5a?5valid?5WAVE?5file?5?$CIPJMEDIA_E@ 0042e1c8     pjmedia-i386-win32-vc8-release:errno.obj
 0002:0000a1f8       ??_C@_0DD@FKNCKLNB@Unsupported?5WAVE?5file?5format?5?$CIPJ@ 0042e1f8     pjmedia-i386-win32-vc8-release:errno.obj
 0002:0000a22c       ??_C@_0CM@HKHLDPDN@WAVE?5file?5too?5short?5?$CIPJMEDIA_EWA@ 0042e22c     pjmedia-i386-win32-vc8-release:errno.obj
 0002:0000a258       ??_C@_0DP@HHAKLPGE@Sound?5frame?5too?5large?5for?5file?5b@ 0042e258     pjmedia-i386-win32-vc8-release:errno.obj
 0002:0000a298       ??_C@_0CK@EMOCNCPF@Unsupported?5AVI?5file?5?$CIPJMEDIA_EA@ 0042e298     pjmedia-i386-win32-vc8-release:errno.obj
 0002:0000a2c4       ??_C@_0DF@PKIKHNPA@No?5suitable?5sound?5capture?5device@ 0042e2c4     pjmedia-i386-win32-vc8-release:errno.obj
 0002:0000a2fc       ??_C@_0DH@NACBPKOD@No?5suitable?5sound?5playback?5devic@ 0042e2fc     pjmedia-i386-win32-vc8-release:errno.obj
 0002:0000a334       ??_C@_0CO@FCJGKBG@Invalid?5sound?5device?5ID?5?$CIPJMEDIA@ 0042e334     pjmedia-i386-win32-vc8-release:errno.obj
 0002:0000a368       ??_C@_0EB@GAMOPGD@Invalid?5sample?5format?5for?5sound?5@ 0042e368     pjmedia-i386-win32-vc8-release:errno.obj
 0002:0000a3b0       ??_C@_0FA@HAKEALMK@SRTP?5crypto?9suite?5name?5not?5match@ 0042e3b0     pjmedia-i386-win32-vc8-release:errno.obj
 0002:0000a400       ??_C@_0EF@DCMAHBDI@Invalid?5SRTP?5key?5length?5for?5spec@ 0042e400     pjmedia-i386-win32-vc8-release:errno.obj
 0002:0000a448       ??_C@_0DL@BINEGGLM@Unsupported?5SRTP?5crypto?9suite?5?$CIP@ 0042e448     pjmedia-i386-win32-vc8-release:errno.obj
 0002:0000a484       ??_C@_0DP@DNDEFJI@SRTP?5SDP?5contains?5ambigue?5answer@ 0042e484     pjmedia-i386-win32-vc8-release:errno.obj
 0002:0000a4c4       ??_C@_0DL@PPDCJAFI@Duplicated?5SRTP?5crypto?5tag?5?$CIPJME@ 0042e4c4     pjmedia-i386-win32-vc8-release:errno.obj
 0002:0000a500       ??_C@_0DK@EIEPDNB@Invalid?5SRTP?5crypto?5attribute?5?$CIP@ 0042e500     pjmedia-i386-win32-vc8-release:errno.obj
 0002:0000a53c       ??_C@_0DH@JABOECDK@Invalid?5SRTP?5crypto?5tag?5?$CIPJMEDIA@ 0042e53c     pjmedia-i386-win32-vc8-release:errno.obj
 0002:0000a578       ??_C@_0EE@HKDIFKLN@Invalid?5SDP?5media?5transport?5for?5@ 0042e578     pjmedia-i386-win32-vc8-release:errno.obj
 0002:0000a5bc       ??_C@_0DM@OPHJDJCK@SRTP?5crypto?5attribute?5required?5?$CI@ 0042e5bc     pjmedia-i386-win32-vc8-release:errno.obj
 0002:0000a5f8       ??_C@_0EO@MOMMHEEA@Secure?5transport?5required?5in?5SDP@ 0042e5f8     pjmedia-i386-win32-vc8-release:errno.obj
 0002:0000a648       ??_C@_0BJ@JGEGOKIK@Unknown?5pjmedia?5error?5?$CFd?$AA@ 0042e648     pjmedia-i386-win32-vc8-release:errno.obj
 0002:0000a664       ??_C@_0BO@PBEKEGBF@Failed?5to?5create?5circular?5buf?$AA@ 0042e664     pjmedia-i386-win32-vc8-release:wsola.obj
 0002:0000a684       ??_C@_07LLDBJGIC@wsola?4c?$AA@ 0042e684     pjmedia-i386-win32-vc8-release:wsola.obj
 0002:0000a68c       __real@3f800000            0042e68c     pjmedia-i386-win32-vc8-release:wsola.obj
 0002:0000a690       __real@3ff0000000000000    0042e690     pjmedia-i386-win32-vc8-release:wsola.obj
 0002:0000a698       __real@3ff8000000000000    0042e698     pjmedia-i386-win32-vc8-release:wsola.obj
 0002:0000a6a0       __real@401921fb54442d18    0042e6a0     pjmedia-i386-win32-vc8-release:wsola.obj
 0002:0000a6b0       __xmm@00000001000000010000000100000001 0042e6b0     pjmedia-i386-win32-vc8-release:wsola.obj
 0002:0000a6c0       __xmm@00000003000000020000000100000000 0042e6c0     pjmedia-i386-win32-vc8-release:wsola.obj
 0002:0000a6d0       __xmm@3fe00000000000003fe0000000000000 0042e6d0     pjmedia-i386-win32-vc8-release:wsola.obj
 0002:0000a6e0       __xmm@401921fb54442d18401921fb54442d18 0042e6e0     pjmedia-i386-win32-vc8-release:wsola.obj
 0002:0000a6f0       __xmm@41f000000000000041f0000000000000 0042e6f0     pjmedia-i386-win32-vc8-release:wsola.obj
 0002:0000a700       ??_C@_0BA@LPBIANE@Echo?5suppressor?$AA@ 0042e700     pjmedia-i386-win32-vc8-release:echo_common.obj
 0002:0000a710       ??_C@_03FABGEMFG@AEC?$AA@  0042e710     pjmedia-i386-win32-vc8-release:echo_common.obj
 0002:0000a714       ??_C@_04FACFFFMP@ec?$CFp?$AA@ 0042e714     pjmedia-i386-win32-vc8-release:echo_common.obj
 0002:0000a71c       ??_C@_0M@KMDBLPFK@Creating?5?$CFs?$AA@ 0042e71c     pjmedia-i386-win32-vc8-release:echo_common.obj
 0002:0000a728       ??_C@_0FO@FCNNBEFH@?$CFs?5created?0?5clock_rate?$DN?$CFd?0?5chann@ 0042e728     pjmedia-i386-win32-vc8-release:echo_common.obj
 0002:0000a788       ??_C@_0BM@HOHFIKPJ@Latency?5bufferring?5complete?$AA@ 0042e788     pjmedia-i386-win32-vc8-release:echo_common.obj
 0002:0000a7a4       ??_C@_0O@DBBHABPM@Prefetching?4?4?$AA@ 0042e7a4     pjmedia-i386-win32-vc8-release:echo_common.obj
 0002:0000a7b4       ??_C@_0DF@ENONGENO@No?5frame?5from?5delay?5buffer?4?5This@ 0042e7b4     pjmedia-i386-win32-vc8-release:echo_common.obj
 0002:0000a7ec       ??_C@_0N@FJKIJMGM@Key?5too?5long?$AA@ 0042e7ec     pjmedia-i386-win32-vc8-release:transport_srtp.obj
 0002:0000a7fc       ??_C@_0CH@PPONEAL@Failed?5decoding?5crypto?5key?5from?5@ 0042e7fc     pjmedia-i386-win32-vc8-release:transport_srtp.obj
 0002:0000a844       ??_C@_06LAEHEPPF@crypto?$AA@ 0042e844     pjmedia-i386-win32-vc8-release:transport_srtp.obj
 0002:0000a84c       ??_C@_0CN@IMPBKLBH@SRTP?5failed?5stop?5underlying?5medi@ 0042e84c     pjmedia-i386-win32-vc8-release:transport_srtp.obj
 0002:0000a87c       ??_C@_04HIBGFPH@NULL?$AA@  0042e87c     pjmedia-i386-win32-vc8-release:transport_srtp.obj
 0002:0000a884       ??_C@_0BI@OADHPNHF@AES_CM_128_HMAC_SHA1_80?$AA@ 0042e884     pjmedia-i386-win32-vc8-release:transport_srtp.obj
 0002:0000a89c       ??_C@_0BI@NOFEHABG@AES_CM_128_HMAC_SHA1_32?$AA@ 0042e89c     pjmedia-i386-win32-vc8-release:transport_srtp.obj
 0002:0000a8b4       ??_C@_0BB@HGEADDBB@transport_srtp?4c?$AA@ 0042e8b4     pjmedia-i386-win32-vc8-release:transport_srtp.obj
 0002:0000a8c8       ??_C@_0BP@CAGNCNCA@Failed?5to?5restart?5SRTP?0?5err?$DN?$CFs?$AA@ 0042e8c8     pjmedia-i386-win32-vc8-release:transport_srtp.obj
 0002:0000a8e8       ??_C@_0CO@EDHKLEPP@Failed?5to?5unprotect?5SRTP?0?5pkt?5si@ 0042e8e8     pjmedia-i386-win32-vc8-release:transport_srtp.obj
 0002:0000a918       ??_C@_0CP@OAIPELPD@Failed?5to?5unprotect?5SRTCP?0?5pkt?5s@ 0042e918     pjmedia-i386-win32-vc8-release:transport_srtp.obj
 0002:0000a948       ??_C@_0CB@DDJJDFFB@Failed?5generating?5random?5key?3?5?$CFs@ 0042e948     pjmedia-i386-win32-vc8-release:transport_srtp.obj
 0002:0000a96c       ??_C@_0CE@BAIPFCEP@Failed?5encoding?5plain?5key?5to?5bas@ 0042e96c     pjmedia-i386-win32-vc8-release:transport_srtp.obj
 0002:0000a990       ??_C@_0BA@OGAKIHAO@?$CFd?5?$CFs?5inline?3?$CFs?$AA@ 0042e990     pjmedia-i386-win32-vc8-release:transport_srtp.obj
 0002:0000a9a0       ??_C@_0BP@IBJNGPHO@Attribute?5crypto?5expecting?5tag?$AA@ 0042e9a0     pjmedia-i386-win32-vc8-release:transport_srtp.obj
 0002:0000a9c0       ??_C@_0CI@IIDGBGP@Attribute?5crypto?5expecting?5crypt@ 0042e9c0     pjmedia-i386-win32-vc8-release:transport_srtp.obj
 0002:0000a9e8       ??_C@_01JLIPDDHJ@?3?$AA@   0042e9e8     pjmedia-i386-win32-vc8-release:transport_srtp.obj
 0002:0000a9ec       ??_C@_0CG@JCJFEHFF@Attribute?5crypto?5expecting?5key?5m@ 0042e9ec     pjmedia-i386-win32-vc8-release:transport_srtp.obj
 0002:0000aa14       ??_C@_06OGMBMJA@inline?$AA@ 0042ea14     pjmedia-i386-win32-vc8-release:transport_srtp.obj
 0002:0000aa1c       ??_C@_0DA@ONAGIJJE@Attribute?5crypto?5key?5method?5?8?$CFs?8@ 0042ea1c     pjmedia-i386-win32-vc8-release:transport_srtp.obj
 0002:0000aa4c       ??_C@_02MINBJDHL@?$HM?5?$AA@ 0042ea4c     pjmedia-i386-win32-vc8-release:transport_srtp.obj
 0002:0000aa50       ??_C@_0BP@FKKPLPLE@Attribute?5crypto?5expecting?5key?$AA@ 0042ea50     pjmedia-i386-win32-vc8-release:transport_srtp.obj
 0002:0000aa70       ??_C@_02MFDMBIJM@ok?$AA@   0042ea70     pjmedia-i386-win32-vc8-release:transport_srtp.obj
 0002:0000aa74       ??_C@_0BE@KFOIPNMM@unspecified?5failure?$AA@ 0042ea74     pjmedia-i386-win32-vc8-release:transport_srtp.obj
 0002:0000aa88       ??_C@_0BG@LENPEKHL@unsupported?5parameter?$AA@ 0042ea88     pjmedia-i386-win32-vc8-release:transport_srtp.obj
 0002:0000aaa0       ??_C@_0BJ@DGLNBGGB@couldn?8t?5allocate?5memory?$AA@ 0042eaa0     pjmedia-i386-win32-vc8-release:transport_srtp.obj
 0002:0000aabc       ??_C@_0BN@LJIJFBAJ@couldn?8t?5deallocate?5properly?$AA@ 0042eabc     pjmedia-i386-win32-vc8-release:transport_srtp.obj
 0002:0000aadc       ??_C@_0BE@KBPICNEA@couldn?8t?5initialize?$AA@ 0042eadc     pjmedia-i386-win32-vc8-release:transport_srtp.obj
 0002:0000aaf0       ??_C@_0CI@FEPPFOBO@can?8t?5process?5as?5much?5data?5as?5re@ 0042eaf0     pjmedia-i386-win32-vc8-release:transport_srtp.obj
 0002:0000ab18       ??_C@_0BH@DJJHFLDI@authentication?5failure?$AA@ 0042eb18     pjmedia-i386-win32-vc8-release:transport_srtp.obj
 0002:0000ab30       ??_C@_0P@MHOCHBCE@cipher?5failure?$AA@ 0042eb30     pjmedia-i386-win32-vc8-release:transport_srtp.obj
 0002:0000ab40       ??_C@_0CA@LIFPFHJ@replay?5check?5failed?5?$CIbad?5index?$CJ?$AA@ 0042eb40     pjmedia-i386-win32-vc8-release:transport_srtp.obj
 0002:0000ab60       ??_C@_0CE@GCMJOMFK@replay?5check?5failed?5?$CIindex?5too?5o@ 0042eb60     pjmedia-i386-win32-vc8-release:transport_srtp.obj
 0002:0000ab84       ??_C@_0BO@KLFALCF@algorithm?5failed?5test?5routine?$AA@ 0042eb84     pjmedia-i386-win32-vc8-release:transport_srtp.obj
 0002:0000aba4       ??_C@_0BG@JKFIFBMN@unsupported?5operation?$AA@ 0042eba4     pjmedia-i386-win32-vc8-release:transport_srtp.obj
 0002:0000abbc       ??_C@_0BN@PDJKDLOF@no?5appropriate?5context?5found?$AA@ 0042ebbc     pjmedia-i386-win32-vc8-release:transport_srtp.obj
 0002:0000abdc       ??_C@_0CF@DOHHPHGD@unable?5to?5perform?5desired?5valida@ 0042ebdc     pjmedia-i386-win32-vc8-release:transport_srtp.obj
 0002:0000ac04       ??_C@_0BH@NKHPNDDN@can?8t?5use?5key?5any?5more?$AA@ 0042ec04     pjmedia-i386-win32-vc8-release:transport_srtp.obj
 0002:0000ac1c       ??_C@_0BH@CDHGOGDE@error?5in?5use?5of?5socket?$AA@ 0042ec1c     pjmedia-i386-win32-vc8-release:transport_srtp.obj
 0002:0000ac34       ??_C@_0BL@DJFHEKEC@error?5in?5use?5POSIX?5signals?$AA@ 0042ec34     pjmedia-i386-win32-vc8-release:transport_srtp.obj
 0002:0000ac50       ??_C@_0BD@HFMCMINA@nonce?5check?5failed?$AA@ 0042ec50     pjmedia-i386-win32-vc8-release:transport_srtp.obj
 0002:0000ac64       ??_C@_0BD@FCFDDPHP@couldn?8t?5read?5data?$AA@ 0042ec64     pjmedia-i386-win32-vc8-release:transport_srtp.obj
 0002:0000ac78       ??_C@_0BE@PIHIJLHG@couldn?8t?5write?5data?$AA@ 0042ec78     pjmedia-i386-win32-vc8-release:transport_srtp.obj
 0002:0000ac8c       ??_C@_0BD@PIIFGNCP@error?5pasring?5data?$AA@ 0042ec8c     pjmedia-i386-win32-vc8-release:transport_srtp.obj
 0002:0000aca0       ??_C@_0BE@FFKLLGEP@error?5encoding?5data?$AA@ 0042eca0     pjmedia-i386-win32-vc8-release:transport_srtp.obj
 0002:0000acb4       ??_C@_0BN@OEPMNKMP@error?5while?5using?5semaphores?$AA@ 0042ecb4     pjmedia-i386-win32-vc8-release:transport_srtp.obj
 0002:0000acd4       ??_C@_0BI@JNCDFEKK@error?5while?5using?5pfkey?$AA@ 0042ecd4     pjmedia-i386-win32-vc8-release:transport_srtp.obj
 0002:0000acec       ??_C@_0BJ@BOBCJFAN@Unknown?5libsrtp?5error?5?$CFd?$AA@ 0042ecec     pjmedia-i386-win32-vc8-release:transport_srtp.obj
 0002:0000ad08       ??_C@_0BB@JENPEJDI@?9?9key?5too?5long?9?9?$AA@ 0042ed08     pjmedia-i386-win32-vc8-release:transport_srtp.obj
 0002:0000ad1c       ??_C@_0O@LPFLKIMI@TX?3?5?$CFs?5key?$DN?$CFs?$AA@ 0042ed1c     pjmedia-i386-win32-vc8-release:transport_srtp.obj
 0002:0000ad2c       ??_C@_05EPPOHEBK@?5auth?$AA@ 0042ed2c     pjmedia-i386-win32-vc8-release:transport_srtp.obj
 0002:0000ad34       ??_C@_04PIHNPOJJ@?5enc?$AA@ 0042ed34     pjmedia-i386-win32-vc8-release:transport_srtp.obj
 0002:0000ad3c       ??_C@_0BA@BONGIHBG@TX?3?5disable?$CFs?$CFs?$AA@ 0042ed3c     pjmedia-i386-win32-vc8-release:transport_srtp.obj
 0002:0000ad4c       ??_C@_0O@EHJJODHO@RX?3?5?$CFs?5key?$DN?$CFs?$AA@ 0042ed4c     pjmedia-i386-win32-vc8-release:transport_srtp.obj
 0002:0000ad5c       ??_C@_0BA@ENEHOOPC@RX?3?5disable?$CFs?$CFs?$AA@ 0042ed5c     pjmedia-i386-win32-vc8-release:transport_srtp.obj
 0002:0000ad6c       ??_C@_0CG@KDAPJFOB@Failed?5to?5dealloc?5RX?5SRTP?5contex@ 0042ed6c     pjmedia-i386-win32-vc8-release:transport_srtp.obj
 0002:0000ad94       ??_C@_0CG@CHCMAIDE@Failed?5to?5dealloc?5TX?5SRTP?5contex@ 0042ed94     pjmedia-i386-win32-vc8-release:transport_srtp.obj
 0002:0000adbc       ??_C@_0CK@GILFEPIK@Echo?5suppressor?5soft?5reset?4?5Re?9l@ 0042edbc     pjmedia-i386-win32-vc8-release:echo_suppress.obj
 0002:0000ade8       ??_C@_0BA@GIJBCBML@echo_suppress?4c?$AA@ 0042ede8     pjmedia-i386-win32-vc8-release:echo_suppress.obj
 0002:0000adf8       ??_C@_0FL@JMGHEEIK@Echo?5suppressor?5updated?5at?5t?$DN?$CF03@ 0042edf8     pjmedia-i386-win32-vc8-release:echo_suppress.obj
 0002:0000ae58       ??_C@_0FK@NODMKGEL@Echo?5suppressor?5learning?5done?5at@ 0042ee58     pjmedia-i386-win32-vc8-release:echo_suppress.obj
 0002:0000aeb4       ??_C@_0CC@OBLDMFND@Echo?5suppressor?5residue?5?$DN?5?$CFd?4?$CF03@ 0042eeb4     pjmedia-i386-win32-vc8-release:echo_suppress.obj
 0002:0000aed8       __real@3f000000            0042eed8     pjmedia-i386-win32-vc8-release:echo_suppress.obj
 0002:0000aedc       __real@40200000            0042eedc     pjmedia-i386-win32-vc8-release:echo_suppress.obj
 0002:0000aee0       __real@40400000            0042eee0     pjmedia-i386-win32-vc8-release:echo_suppress.obj
 0002:0000aee4       __real@41980000            0042eee4     pjmedia-i386-win32-vc8-release:echo_suppress.obj
 0002:0000aee8       __real@41a00000            0042eee8     pjmedia-i386-win32-vc8-release:echo_suppress.obj
 0002:0000aeec       __real@447a0000            0042eeec     pjmedia-i386-win32-vc8-release:echo_suppress.obj
 0002:0000aef0       __xmm@80000000800000008000000080000000 0042eef0     pjmedia-i386-win32-vc8-release:echo_suppress.obj
 0002:0000af00       ??_C@_0EK@HDJKCMHE@Multichannel?5EC?5is?5not?5supported@ 0042ef00     pjmedia-i386-win32-vc8-release:echo_speex.obj
 0002:0000af4c       ??_C@_0N@MOFPDDJO@echo_speex?4c?$AA@ 0042ef4c     pjmedia-i386-win32-vc8-release:echo_speex.obj
 0002:0000af5c       ??_C@_02BAABKJLB@?9?9?$AA@ 0042ef5c     pjlib-util-i386-win32-vc8-release:getopt.obj
 0002:0000afa0       ??_C@_04IFCNACLH@pj?$CFp?$AA@ 0042efa0     pjlib-i386-win32-vc8-release:os_core_win32.obj
 0002:0000afa8       ??_C@_0BA@NGJFHJA@PJLIB?1No?5memory?$AA@ 0042efa8     pjlib-i386-win32-vc8-release:os_core_win32.obj
 0002:0000afb8       ??_C@_0BP@NGEKBPIB@pjlib?5?$CFs?5for?5win32?5initialized?$AA@ 0042efb8     pjlib-i386-win32-vc8-release:os_core_win32.obj
 0002:0000afd8       ??_C@_0BA@FNCACAIG@os_core_win32?4c?$AA@ 0042efd8     pjlib-i386-win32-vc8-release:os_core_win32.obj
 0002:0000afe8       ??_C@_0CI@EAKIIBBA@Main?5thread?5stack?5max?5usage?$DN?$CFu?5b@ 0042efe8     pjlib-i386-win32-vc8-release:os_core_win32.obj
 0002:0000b010       ??_C@_0BK@BHGJHPMG@?4?4?2src?2pj?2os_core_win32?4c?$AA@ 0042f010     pjlib-i386-win32-vc8-release:os_core_win32.obj
 0002:0000b02c       ??_C@_05KHEDLION@thr?$CFp?$AA@ 0042f02c     pjlib-i386-win32-vc8-release:os_core_win32.obj
 0002:0000b034       ??_C@_0CD@GPHECFNA@Thread?5stack?5max?5usage?$DN?$CFu?5by?5?$CFs?3@ 0042f034     pjlib-i386-win32-vc8-release:os_core_win32.obj
 0002:0000b058       ??_C@_05EJDHHBFJ@mtx?$CFp?$AA@ 0042f058     pjlib-i386-win32-vc8-release:os_core_win32.obj
 0002:0000b120       ??_C@_0BM@FLPPOGAG@Unknown?5Error?5?$CIPJ_EUNKNOWN?$CJ?$AA@ 0042f120     pjlib-i386-win32-vc8-release:errno.obj
 0002:0000b13c       ??_C@_0CA@DCLOOJGD@Pending?5operation?5?$CIPJ_EPENDING?$CJ?$AA@ 0042f13c     pjlib-i386-win32-vc8-release:errno.obj
 0002:0000b15c       ??_C@_0CO@GABEOAFF@Too?5many?5connecting?5sockets?5?$CIPJ_@ 0042f15c     pjlib-i386-win32-vc8-release:errno.obj
 0002:0000b18c       ??_C@_0CG@CBCJBJGD@Invalid?5value?5or?5argument?5?$CIPJ_EI@ 0042f18c     pjlib-i386-win32-vc8-release:errno.obj
 0002:0000b1b4       ??_C@_0CA@GJABNEKD@Name?5too?5long?5?$CIPJ_ENAMETOOLONG?$CJ?$AA@ 0042f1b4     pjlib-i386-win32-vc8-release:errno.obj
 0002:0000b1d4       ??_C@_0BJ@JNKLPII@Not?5found?5?$CIPJ_ENOTFOUND?$CJ?$AA@ 0042f1d4     pjlib-i386-win32-vc8-release:errno.obj
 0002:0000b1f0       ??_C@_0BO@GOLCMJKK@Not?5enough?5memory?5?$CIPJ_ENOMEM?$CJ?$AA@ 0042f1f0     pjlib-i386-win32-vc8-release:errno.obj
 0002:0000b210       ??_C@_0BI@HHGDCAID@BUG?5DETECTED?$CB?5?$CIPJ_EBUG?$CJ?$AA@ 0042f210     pjlib-i386-win32-vc8-release:errno.obj
 0002:0000b228       ??_C@_0CD@JOGIDHPJ@Operation?5timed?5out?5?$CIPJ_ETIMEDOU@ 0042f228     pjlib-i386-win32-vc8-release:errno.obj
 0002:0000b24c       ??_C@_0DF@MIFNAIHL@Too?5many?5objects?5of?5the?5specifie@ 0042f24c     pjlib-i386-win32-vc8-release:errno.obj
 0002:0000b284       ??_C@_0BK@OMPILOH@Object?5is?5busy?5?$CIPJ_EBUSY?$CJ?$AA@ 0042f284     pjlib-i386-win32-vc8-release:errno.obj
 0002:0000b2a0       ??_C@_0CP@BAIBJOJE@Option?1operation?5is?5not?5supporte@ 0042f2a0     pjlib-i386-win32-vc8-release:errno.obj
 0002:0000b2d0       ??_C@_0CC@OEEEEEML@Invalid?5operation?5?$CIPJ_EINVALIDOP@ 0042f2d0     pjlib-i386-win32-vc8-release:errno.obj
 0002:0000b2f4       ??_C@_0CE@KDDMJLGF@Operation?5cancelled?5?$CIPJ_ECANCELL@ 0042f2f4     pjlib-i386-win32-vc8-release:errno.obj
 0002:0000b318       ??_C@_0CD@LODOFNLC@Object?5already?5exists?5?$CIPJ_EEXIST@ 0042f318     pjlib-i386-win32-vc8-release:errno.obj
 0002:0000b33c       ??_C@_0BG@GMBDFNLN@End?5of?5file?5?$CIPJ_EEOF?$CJ?$AA@ 0042f33c     pjlib-i386-win32-vc8-release:errno.obj
 0002:0000b354       ??_C@_0BN@PCCNBFLN@Size?5is?5too?5big?5?$CIPJ_ETOOBIG?$CJ?$AA@ 0042f354     pjlib-i386-win32-vc8-release:errno.obj
 0002:0000b374       ??_C@_0DB@FDCHLEID@gethostbyname?$CI?$CJ?5has?5returned?5err@ 0042f374     pjlib-i386-win32-vc8-release:errno.obj
 0002:0000b3a8       ??_C@_0CB@MGGLJMNO@Size?5is?5too?5short?5?$CIPJ_ETOOSMALL?$CJ@ 0042f3a8     pjlib-i386-win32-vc8-release:errno.obj
 0002:0000b3cc       ??_C@_0BG@NBDJGAFI@Ignored?5?$CIPJ_EIGNORED?$CJ?$AA@ 0042f3cc     pjlib-i386-win32-vc8-release:errno.obj
 0002:0000b3e4       ??_C@_0CH@OGOOBJBE@IPv6?5is?5not?5supported?5?$CIPJ_EIPV6N@ 0042f3e4     pjlib-i386-win32-vc8-release:errno.obj
 0002:0000b40c       ??_C@_0CK@DJAHHNOI@Unsupported?5address?5family?5?$CIPJ_E@ 0042f40c     pjlib-i386-win32-vc8-release:errno.obj
 0002:0000b438       ??_C@_0CD@PDGCJOJH@Object?5no?5longer?5exists?5?$CIPJ_EGON@ 0042f438     pjlib-i386-win32-vc8-release:errno.obj
 0002:0000b45c       ??_C@_0CI@LBHALONI@Socket?5is?5in?5bad?5state?5?$CIPJ_ESOCK@ 0042f45c     pjlib-i386-win32-vc8-release:errno.obj
 0002:0000b484       ??_C@_0BH@ONDLFCEA@Unknown?5pjlib?5error?5?$CFd?$AA@ 0042f484     pjlib-i386-win32-vc8-release:errno.obj
 0002:0000b49c       ??_C@_07PBILKAFL@Success?$AA@ 0042f49c     pjlib-i386-win32-vc8-release:errno.obj
 0002:0000b4a4       ??_C@_0BB@BIKLJNJD@Unknown?5error?5?$CFd?$AA@ 0042f4a4     pjlib-i386-win32-vc8-release:errno.obj
 0002:0000b4b8       ??_C@_0BB@PKFOFEEC@?4?4?2src?2pj?2pool?4c?$AA@ 0042f4b8     pjlib-i386-win32-vc8-release:pool.obj
 0002:0000b4cc       ??_C@_0BJ@MJKAJPML@?4?4?2src?2pj?2pool_caching?4c?$AA@ 0042f4cc     pjlib-i386-win32-vc8-release:pool_caching.obj
 0002:0000b4e8       ??_C@_0M@IGFPEOLJ@cachingpool?$AA@ 0042f4e8     pjlib-i386-win32-vc8-release:pool_caching.obj
 0002:0000b4f4       ??_C@_0DD@ECGDPCBA@Pool?5is?5not?5released?5by?5applicat@ 0042f4f4     pjlib-i386-win32-vc8-release:pool_caching.obj
 0002:0000b528       ??_C@_0BH@BBPHJKOA@?5Dumping?5caching?5pool?3?$AA@ 0042f528     pjlib-i386-win32-vc8-release:pool_caching.obj
 0002:0000b540       ??_C@_08COPEICHG@cachpool?$AA@ 0042f540     pjlib-i386-win32-vc8-release:pool_caching.obj
 0002:0000b54c       ??_C@_0CN@DOKPIIOH@?5?5?5Capacity?$DN?$CFu?0?5max_capacity?$DN?$CFu?0@ 0042f54c     pjlib-i386-win32-vc8-release:pool_caching.obj
 0002:0000b57c       ??_C@_0BM@IDLDGCC@?5?5Dumping?5all?5active?5pools?3?$AA@ 0042f57c     pjlib-i386-win32-vc8-release:pool_caching.obj
 0002:0000b598       ??_C@_0CA@MMLIKIEG@?5?5?5?$CF16s?3?5?$CF8d?5of?5?$CF8d?5?$CI?$CFd?$CF?$CF?$CJ?5used?$AA@ 0042f598     pjlib-i386-win32-vc8-release:pool_caching.obj
 0002:0000b5b8       ??_C@_0CB@GKBJPDKG@?5?5Total?5?$CF9d?5of?5?$CF9d?5?$CI?$CFd?5?$CF?$CF?$CJ?5used?$CB@ 0042f5b8     pjlib-i386-win32-vc8-release:pool_caching.obj
 0002:0000b5dc       ??_C@_0BA@CLLJDBF@?4?4?2src?2pj?2log?4c?$AA@ 0042f5dc     pjlib-i386-win32-vc8-release:log.obj
 0002:0000b5ec       ??_C@_06DDFOEFIF@FATAL?3?$AA@ 0042f5ec     pjlib-i386-win32-vc8-release:log.obj
 0002:0000b5f4       ??_C@_06PONDCDME@ERROR?3?$AA@ 0042f5f4     pjlib-i386-win32-vc8-release:log.obj
 0002:0000b5fc       ??_C@_06OHJPOJDB@?5WARN?3?$AA@ 0042f5fc     pjlib-i386-win32-vc8-release:log.obj
 0002:0000b604       ??_C@_06ICKKLHPE@?5INFO?3?$AA@ 0042f604     pjlib-i386-win32-vc8-release:log.obj
 0002:0000b60c       ??_C@_06DNOFLLB@DEBUG?3?$AA@ 0042f60c     pjlib-i386-win32-vc8-release:log.obj
 0002:0000b614       ??_C@_06ELIFFDKB@TRACE?3?$AA@ 0042f614     pjlib-i386-win32-vc8-release:log.obj
 0002:0000b61c       ??_C@_06HGKAKJPG@DETRC?3?$AA@ 0042f61c     pjlib-i386-win32-vc8-release:log.obj
 0002:0000b624       ??_C@_03KOEHGMDN@Sun?$AA@  0042f624     pjlib-i386-win32-vc8-release:log.obj
 0002:0000b628       ??_C@_03PDAGKDH@Mon?$AA@   0042f628     pjlib-i386-win32-vc8-release:log.obj
 0002:0000b62c       ??_C@_03NAGEINEP@Tue?$AA@  0042f62c     pjlib-i386-win32-vc8-release:log.obj
 0002:0000b630       ??_C@_03MHOMLAJA@Wed?$AA@  0042f630     pjlib-i386-win32-vc8-release:log.obj
 0002:0000b634       ??_C@_03IOFIKPDN@Thu?$AA@  0042f634     pjlib-i386-win32-vc8-release:log.obj
 0002:0000b638       ??_C@_03IDIOELNC@Fri?$AA@  0042f638     pjlib-i386-win32-vc8-release:log.obj
 0002:0000b63c       ??_C@_03FEFJNEK@Sat?$AA@   0042f63c     pjlib-i386-win32-vc8-release:log.obj
 0002:0000b640       ??_C@_0BO@BGMDCDKP@?$DMlogging?5error?3?5msg?5too?5long?$DO?$AA@ 0042f640     pjlib-i386-win32-vc8-release:log.obj
 0002:0000b660       ??_C@_0BP@JMMENEAD@?4?4?2src?2pj?2pool_policy_malloc?4c?$AA@ 0042f660     pjlib-i386-win32-vc8-release:pool_policy_malloc.obj
 0002:0000b680       ??_C@_0BD@ELEDKDKB@?4?4?2src?2pj?2string?4c?$AA@ 0042f680     pjlib-i386-win32-vc8-release:string.obj
 0002:0000b694       __real@00000000            0042f694     pjlib-i386-win32-vc8-release:string.obj
 0002:0000b698       __real@41200000            0042f698     pjlib-i386-win32-vc8-release:string.obj
 0002:0000b69c       _PJ_AF_UNSPEC              0042f69c     pjlib-i386-win32-vc8-release:sock_bsd.obj
 0002:0000b6a0       _PJ_AF_UNIX                0042f6a0     pjlib-i386-win32-vc8-release:sock_bsd.obj
 0002:0000b6a4       _PJ_AF_INET                0042f6a4     pjlib-i386-win32-vc8-release:sock_bsd.obj
 0002:0000b6a8       _PJ_AF_INET6               0042f6a8     pjlib-i386-win32-vc8-release:sock_bsd.obj
 0002:0000b6ac       _PJ_AF_PACKET              0042f6ac     pjlib-i386-win32-vc8-release:sock_bsd.obj
 0002:0000b6b0       _PJ_AF_IRDA                0042f6b0     pjlib-i386-win32-vc8-release:sock_bsd.obj
 0002:0000b6b4       _PJ_SOCK_STREAM            0042f6b4     pjlib-i386-win32-vc8-release:sock_bsd.obj
 0002:0000b6b8       _PJ_SOCK_DGRAM             0042f6b8     pjlib-i386-win32-vc8-release:sock_bsd.obj
 0002:0000b6bc       _PJ_SOCK_RAW               0042f6bc     pjlib-i386-win32-vc8-release:sock_bsd.obj
 0002:0000b6c0       _PJ_SOCK_RDM               0042f6c0     pjlib-i386-win32-vc8-release:sock_bsd.obj
 0002:0000b6c4       _PJ_SOL_SOCKET             0042f6c4     pjlib-i386-win32-vc8-release:sock_bsd.obj
 0002:0000b6c8       _PJ_SOL_IP                 0042f6c8     pjlib-i386-win32-vc8-release:sock_bsd.obj
 0002:0000b6cc       _PJ_SOL_TCP                0042f6cc     pjlib-i386-win32-vc8-release:sock_bsd.obj
 0002:0000b6d0       _PJ_SOL_UDP                0042f6d0     pjlib-i386-win32-vc8-release:sock_bsd.obj
 0002:0000b6d4       _PJ_SOL_IPV6               0042f6d4     pjlib-i386-win32-vc8-release:sock_bsd.obj
 0002:0000b6d8       _PJ_IP_TOS                 0042f6d8     pjlib-i386-win32-vc8-release:sock_bsd.obj
 0002:0000b6dc       _PJ_IPTOS_LOWDELAY         0042f6dc     pjlib-i386-win32-vc8-release:sock_bsd.obj
 0002:0000b6e0       _PJ_IPTOS_THROUGHPUT       0042f6e0     pjlib-i386-win32-vc8-release:sock_bsd.obj
 0002:0000b6e4       _PJ_IPTOS_RELIABILITY      0042f6e4     pjlib-i386-win32-vc8-release:sock_bsd.obj
 0002:0000b6e8       _PJ_IPTOS_MINCOST          0042f6e8     pjlib-i386-win32-vc8-release:sock_bsd.obj
 0002:0000b6ec       _PJ_SO_TYPE                0042f6ec     pjlib-i386-win32-vc8-release:sock_bsd.obj
 0002:0000b6f0       _PJ_SO_RCVBUF              0042f6f0     pjlib-i386-win32-vc8-release:sock_bsd.obj
 0002:0000b6f4       _PJ_SO_SNDBUF              0042f6f4     pjlib-i386-win32-vc8-release:sock_bsd.obj
 0002:0000b6f8       _PJ_TCP_NODELAY            0042f6f8     pjlib-i386-win32-vc8-release:sock_bsd.obj
 0002:0000b6fc       _PJ_SO_REUSEADDR           0042f6fc     pjlib-i386-win32-vc8-release:sock_bsd.obj
 0002:0000b700       _PJ_SO_NOSIGPIPE           0042f700     pjlib-i386-win32-vc8-release:sock_bsd.obj
 0002:0000b704       _PJ_SO_PRIORITY            0042f704     pjlib-i386-win32-vc8-release:sock_bsd.obj
 0002:0000b708       _PJ_IP_MULTICAST_IF        0042f708     pjlib-i386-win32-vc8-release:sock_bsd.obj
 0002:0000b70c       _PJ_IP_MULTICAST_TTL       0042f70c     pjlib-i386-win32-vc8-release:sock_bsd.obj
 0002:0000b710       _PJ_IP_MULTICAST_LOOP      0042f710     pjlib-i386-win32-vc8-release:sock_bsd.obj
 0002:0000b714       _PJ_IP_ADD_MEMBERSHIP      0042f714     pjlib-i386-win32-vc8-release:sock_bsd.obj
 0002:0000b718       _PJ_IP_DROP_MEMBERSHIP     0042f718     pjlib-i386-win32-vc8-release:sock_bsd.obj
 0002:0000b71c       _PJ_MSG_OOB                0042f71c     pjlib-i386-win32-vc8-release:sock_bsd.obj
 0002:0000b720       _PJ_MSG_PEEK               0042f720     pjlib-i386-win32-vc8-release:sock_bsd.obj
 0002:0000b724       _PJ_MSG_DONTROUTE          0042f724     pjlib-i386-win32-vc8-release:sock_bsd.obj
 0002:0000b728       ??_C@_0BF@KBJNEAPB@?4?4?2src?2pj?2sock_bsd?4c?$AA@ 0042f728     pjlib-i386-win32-vc8-release:sock_bsd.obj
 0002:0000b740       ??_C@_05LIJONKFG@ioq?$CFp?$AA@ 0042f740     pjlib-i386-win32-vc8-release:ioqueue_select.obj
 0002:0000b748       ??_C@_0CA@IMDCINDN@select?$CI?$CJ?5I?1O?5Queue?5created?5?$CI?$CFp?$CJ?$AA@ 0042f748     pjlib-i386-win32-vc8-release:ioqueue_select.obj
 0002:0000b768       ??_C@_05PHKAINEA@pjlib?$AA@ 0042f768     pjlib-i386-win32-vc8-release:ioqueue_select.obj
 0002:0000b770       ??_C@_0CD@KFHCCJFN@?$CB?$CB?$CBFATAL?3?5unhandled?5exception?5?$CFs@ 0042f770     pjlib-i386-win32-vc8-release:except.obj
 0002:0000b794       ??_C@_08PDFMOJIE@except?4c?$AA@ 0042f794     pjlib-i386-win32-vc8-release:except.obj
 0002:0000b7a0       ??_C@_0N@GJOLEKJC@?$DMInvalid?5ID?$DO?$AA@ 0042f7a0     pjlib-i386-win32-vc8-release:except.obj
 0002:0000b7b0       ??_C@_0N@LJPLLMIL@exception?5?$CFd?$AA@ 0042f7b0     pjlib-i386-win32-vc8-release:except.obj
 0002:0000b7c0       __real@408f400000000000    0042f7c0     pjlib-i386-win32-vc8-release:os_timestamp_common.obj
 0002:0000b7c8       __real@41cdcd6500000000    0042f7c8     pjlib-i386-win32-vc8-release:os_timestamp_common.obj
 0002:0000b7d0       _PJ_GUID_STRING_LENGTH     0042f7d0     pjlib-i386-win32-vc8-release:guid_win32.obj
 0002:0000b7d4       ??_C@_0BH@DLOCENPK@?4?4?2src?2pj?2guid_win32?4c?$AA@ 0042f7d4     pjlib-i386-win32-vc8-release:guid_win32.obj
 0002:0000b7ec       ??_C@_03NGAIINE@2?44?$AA@  0042f7ec     pjlib-i386-win32-vc8-release:config.obj
 0002:0000b7f0       ??_C@_08DOCHLGNA@config?4c?$AA@ 0042f7f0     pjlib-i386-win32-vc8-release:config.obj
 0002:0000b990       ??_C@_0CD@FNMHLHMI@Interrupted?5system?5call?5?$CIWSAEINT@ 0042f990     pjlib-i386-win32-vc8-release:os_error_win32.obj
 0002:0000b9b4       ??_C@_0BL@OKPDNKLH@Bad?5file?5number?5?$CIWSAEBADF?$CJ?$AA@ 0042f9b4     pjlib-i386-win32-vc8-release:os_error_win32.obj
 0002:0000b9d0       ??_C@_0BO@BMBEEPBP@Permission?5denied?5?$CIWSAEACCES?$CJ?$AA@ 0042f9d0     pjlib-i386-win32-vc8-release:os_error_win32.obj
 0002:0000b9f0       ??_C@_0BI@LAKHPJJ@Bad?5address?5?$CIWSAEFAULT?$CJ?$AA@ 0042f9f0     pjlib-i386-win32-vc8-release:os_error_win32.obj
 0002:0000ba08       ??_C@_0BN@FEIDINKH@Invalid?5argument?5?$CIWSAEINVAL?$CJ?$AA@ 0042fa08     pjlib-i386-win32-vc8-release:os_error_win32.obj
 0002:0000ba28       ??_C@_0CC@HMKKNDGL@Too?5many?5open?5sockets?5?$CIWSAEMFILE@ 0042fa28     pjlib-i386-win32-vc8-release:os_error_win32.obj
 0002:0000ba4c       ??_C@_0CH@GCPPFMGM@Operation?5would?5block?5?$CIWSAEWOULD@ 0042fa4c     pjlib-i386-win32-vc8-release:os_error_win32.obj
 0002:0000ba74       ??_C@_0CL@DKGHEPCD@Operation?5now?5in?5progress?5?$CIWSAEI@ 0042fa74     pjlib-i386-win32-vc8-release:os_error_win32.obj
 0002:0000baa0       ??_C@_0CM@BEMCBKDH@Operation?5already?5in?5progress?5?$CIW@ 0042faa0     pjlib-i386-win32-vc8-release:os_error_win32.obj
 0002:0000bacc       ??_C@_0CN@PAFKDEBN@Socket?5operation?5on?5non?9socket?5?$CI@ 0042facc     pjlib-i386-win32-vc8-release:os_error_win32.obj
 0002:0000bafc       ??_C@_0CP@HCDICECK@Destination?5address?5required?5?$CIWS@ 0042fafc     pjlib-i386-win32-vc8-release:os_error_win32.obj
 0002:0000bb2c       ??_C@_0BP@LNFPBFEK@Message?5too?5long?5?$CIWSAEMSGSIZE?$CJ?$AA@ 0042fb2c     pjlib-i386-win32-vc8-release:os_error_win32.obj
 0002:0000bb4c       ??_C@_0CP@MMIMIEMF@Protocol?5wrong?5type?5for?5socket?5?$CI@ 0042fb4c     pjlib-i386-win32-vc8-release:os_error_win32.obj
 0002:0000bb7c       ??_C@_0CF@HNFLHOHA@Bad?5protocol?5option?5?$CIWSAENOPROTO@ 0042fb7c     pjlib-i386-win32-vc8-release:os_error_win32.obj
 0002:0000bba4       ??_C@_0CM@HPGHEHCE@Protocol?5not?5supported?5?$CIWSAEPROT@ 0042fba4     pjlib-i386-win32-vc8-release:os_error_win32.obj
 0002:0000bbd0       ??_C@_0CP@JLBNHCOL@Socket?5type?5not?5supported?5?$CIWSAES@ 0042fbd0     pjlib-i386-win32-vc8-release:os_error_win32.obj
 0002:0000bc00       ??_C@_0DC@GJMFANID@Operation?5not?5supported?5on?5socke@ 0042fc00     pjlib-i386-win32-vc8-release:os_error_win32.obj
 0002:0000bc34       ??_C@_0DA@GFNBENIG@Protocol?5family?5not?5supported?5?$CIW@ 0042fc34     pjlib-i386-win32-vc8-release:os_error_win32.obj
 0002:0000bc64       ??_C@_0CP@MMKHGIFC@Address?5family?5not?5supported?5?$CIWS@ 0042fc64     pjlib-i386-win32-vc8-release:os_error_win32.obj
 0002:0000bc94       ??_C@_0CH@OCKNFBKE@Address?5already?5in?5use?5?$CIWSAEADDR@ 0042fc94     pjlib-i386-win32-vc8-release:os_error_win32.obj
 0002:0000bcbc       ??_C@_0DC@FJJPJPOD@Can?8t?5assign?5requested?5address?5?$CI@ 0042fcbc     pjlib-i386-win32-vc8-release:os_error_win32.obj
 0002:0000bcf0       ??_C@_0BO@IICKDHLJ@Network?5is?5down?5?$CIWSAENETDOWN?$CJ?$AA@ 0042fcf0     pjlib-i386-win32-vc8-release:os_error_win32.obj
 0002:0000bd10       ??_C@_0CI@NKJAACME@Network?5is?5unreachable?5?$CIWSAENETU@ 0042fd10     pjlib-i386-win32-vc8-release:os_error_win32.obj
 0002:0000bd38       ??_C@_0CE@LJEEEFEC@Net?5connection?5reset?5?$CIWSAENETRES@ 0042fd38     pjlib-i386-win32-vc8-release:os_error_win32.obj
 0002:0000bd5c       ??_C@_0DD@PGDIHOBG@Software?5caused?5connection?5abort@ 0042fd5c     pjlib-i386-win32-vc8-release:os_error_win32.obj
 0002:0000bd90       ??_C@_0CJ@PJHCFAAN@Connection?5reset?5by?5peer?5?$CIWSAECO@ 0042fd90     pjlib-i386-win32-vc8-release:os_error_win32.obj
 0002:0000bdbc       ??_C@_0CH@EKNGIMKN@No?5buffer?5space?5available?5?$CIWSAEN@ 0042fdbc     pjlib-i386-win32-vc8-release:os_error_win32.obj
 0002:0000bde4       ??_C@_0CJ@JOPBNNOD@Socket?5is?5already?5connected?5?$CIWSA@ 0042fde4     pjlib-i386-win32-vc8-release:os_error_win32.obj
 0002:0000be10       ??_C@_0CG@CECDMHLL@Socket?5is?5not?5connected?5?$CIWSAENOT@ 0042fe10     pjlib-i386-win32-vc8-release:os_error_win32.obj
 0002:0000be38       ??_C@_0DA@JGJMJPNM@Can?8t?5send?5after?5socket?5shutdown@ 0042fe38     pjlib-i386-win32-vc8-release:os_error_win32.obj
 0002:0000be68       ??_C@_0DE@CAILNFFE@Too?5many?5references?0?5can?8t?5splic@ 0042fe68     pjlib-i386-win32-vc8-release:os_error_win32.obj
 0002:0000be9c       ??_C@_0CE@IIKHBGF@Connection?5timed?5out?5?$CIWSAETIMEDO@ 0042fe9c     pjlib-i386-win32-vc8-release:os_error_win32.obj
 0002:0000bec0       ??_C@_0CF@JMKFBJH@Connection?5refused?5?$CIWSAECONNREFU@ 0042fec0     pjlib-i386-win32-vc8-release:os_error_win32.obj
 0002:0000bee8       ??_C@_0CN@FCKBNFMB@Too?5many?5levels?5of?5symbolic?5link@ 0042fee8     pjlib-i386-win32-vc8-release:os_error_win32.obj
 0002:0000bf18       ??_C@_0CF@MOFKOMBB@File?5name?5too?5long?5?$CIWSAENAMETOOL@ 0042ff18     pjlib-i386-win32-vc8-release:os_error_win32.obj
 0002:0000bf40       ??_C@_0BM@NCJCEEDP@Host?5is?5down?5?$CIWSAEHOSTDOWN?$CJ?$AA@ 0042ff40     pjlib-i386-win32-vc8-release:os_error_win32.obj
 0002:0000bf5c       ??_C@_0CD@ECJOJHBH@No?5route?5to?5host?5?$CIWSAEHOSTUNREAC@ 0042ff5c     pjlib-i386-win32-vc8-release:os_error_win32.obj
 0002:0000bf80       ??_C@_0CD@NEFLEHEG@Directory?5not?5empty?5?$CIWSAENOTEMPT@ 0042ff80     pjlib-i386-win32-vc8-release:os_error_win32.obj
 0002:0000bfa4       ??_C@_0CB@GPCGLHOJ@Too?5many?5processes?5?$CIWSAEPROCLIM?$CJ@ 0042ffa4     pjlib-i386-win32-vc8-release:os_error_win32.obj
 0002:0000bfc8       ??_C@_0BL@IGHJMJKO@Too?5many?5users?5?$CIWSAEUSERS?$CJ?$AA@ 0042ffc8     pjlib-i386-win32-vc8-release:os_error_win32.obj
 0002:0000bfe4       ??_C@_0CA@MIOFDKMA@Disc?5quota?5exceeded?5?$CIWSAEDQUOT?$CJ?$AA@ 0042ffe4     pjlib-i386-win32-vc8-release:os_error_win32.obj
 0002:0000c004       ??_C@_0CC@IMLIDHNH@Stale?5NFS?5file?5handle?5?$CIWSAESTALE@ 00430004     pjlib-i386-win32-vc8-release:os_error_win32.obj
 0002:0000c028       ??_C@_0CP@MLAFGPOA@Too?5many?5levels?5of?5remote?5in?5pat@ 00430028     pjlib-i386-win32-vc8-release:os_error_win32.obj
 0002:0000c058       ??_C@_0CP@IBAEMKGH@Network?5system?5is?5unavailable?5?$CIW@ 00430058     pjlib-i386-win32-vc8-release:os_error_win32.obj
 0002:0000c088       ??_C@_0DC@BLAKHMMJ@Winsock?5version?5out?5of?5range?5?$CIWS@ 00430088     pjlib-i386-win32-vc8-release:os_error_win32.obj
 0002:0000c0bc       ??_C@_0CO@HPDHHDHA@WSAStartup?5not?5yet?5called?5?$CIWSANO@ 004300bc     pjlib-i386-win32-vc8-release:os_error_win32.obj
 0002:0000c0ec       ??_C@_0CL@GFDHEKLB@Graceful?5shutdown?5in?5progress?5?$CIW@ 004300ec     pjlib-i386-win32-vc8-release:os_error_win32.obj
 0002:0000c118       ??_C@_0CD@OEALOMDH@Host?5not?5found?5?$CIWSAHOST_NOT_FOUN@ 00430118     pjlib-i386-win32-vc8-release:os_error_win32.obj
 0002:0000c13c       ??_C@_0DB@KFPHELLI@No?5host?5data?5of?5that?5type?5was?5fo@ 0043013c     pjlib-i386-win32-vc8-release:os_error_win32.obj
 0002:0000c170       ??_C@_0BE@JPHLLAEM@Win32?5error?5code?5?$CFu?$AA@ 00430170     pjlib-i386-win32-vc8-release:os_error_win32.obj
 0002:0000c184       ??_C@_0BO@KBBNBAFA@?4?4?2src?2pj?2log_writer_stdout?4c?$AA@ 00430184     pjlib-i386-win32-vc8-release:log_writer_stdout.obj
 0002:0000c1a4       ??_C@_02DKCKIIND@?$CFs?$AA@ 004301a4     pjlib-i386-win32-vc8-release:log_writer_stdout.obj
 0002:0000c1a8       ??_C@_0BC@OIAJPKFB@?4?4?2src?2pj?2types?4c?$AA@ 004301a8     pjlib-i386-win32-vc8-release:types.obj
 0002:0000c1bc       ??_C@_0BI@FIAAHKJ@?4?4?2src?2pj?2sock_select?4c?$AA@ 004301bc     pjlib-i386-win32-vc8-release:sock_select.obj
 0002:000165d8       __real@401c000000000000    0043a5d8     libresample-i386-win32-vc8-release:resamplesubs.obj
 0002:000165e0       __real@4040800000000000    0043a5e0     libresample-i386-win32-vc8-release:resamplesubs.obj
 0002:000165e8       __real@4060000000000000    0043a5e8     libresample-i386-win32-vc8-release:resamplesubs.obj
 0002:000165f0       __real@4070000000000000    0043a5f0     libresample-i386-win32-vc8-release:resamplesubs.obj
 0002:000165f8       __real@40c9a40000000000    0043a5f8     libresample-i386-win32-vc8-release:resamplesubs.obj
 0002:00016600       __real@40cccd0000000000    0043a600     libresample-i386-win32-vc8-release:resamplesubs.obj
 0002:00016608       __real@40e0000000000000    0043a608     libresample-i386-win32-vc8-release:resamplesubs.obj
 0002:00016610       ??_C@_0EJ@GHABDNKB@No?5playback?5frame?5available?5?$CIyou@ 0043a610     libspeex-i386-win32-vc8-release:mdf.obj
 0002:0001665c       ??_C@_0M@FDFEAFGN@warning?3?5?$CFs?$AA@ 0043a65c     libspeex-i386-win32-vc8-release:mdf.obj
 0002:00016668       ??_C@_05JPFLDMPI@speex?$AA@ 0043a668     libspeex-i386-win32-vc8-release:mdf.obj
 0002:00016670       ??_C@_0CF@JGKBANKE@internal?5playback?5buffer?5corrupt@ 0043a670     libspeex-i386-win32-vc8-release:mdf.obj
 0002:00016698       ??_C@_0BP@HJHBOHLA@discarded?5first?5playback?5frame?$AA@ 0043a698     libspeex-i386-win32-vc8-release:mdf.obj
 0002:000166b8       ??_C@_0EF@JCPCCFEP@Auto?9filling?5the?5buffer?5?$CIyour?5ap@ 0043a6b8     libspeex-i386-win32-vc8-release:mdf.obj
 0002:00016700       ??_C@_0EN@KMLFENGK@Had?5to?5discard?5a?5playback?5frame?5@ 0043a700     libspeex-i386-win32-vc8-release:mdf.obj
 0002:00016750       ??_C@_0FP@LGAMLFHE@The?5echo?5canceller?5started?5actin@ 0043a750     libspeex-i386-win32-vc8-release:mdf.obj
 0002:000167b0       ??_C@_0CB@DEGFPNC@Unknown?5speex_echo_ctl?5request?3?5@ 0043a7b0     libspeex-i386-win32-vc8-release:mdf.obj
 0002:000167d4       ??_C@_0BA@JHIGFAJK@warning?3?5?$CFs?3?5?$CFd?$AA@ 0043a7d4     libspeex-i386-win32-vc8-release:mdf.obj
 0002:000167e4       __real@3ba3d70a            0043a7e4     libspeex-i386-win32-vc8-release:mdf.obj
 0002:000167e8       __real@3cf5c28f            0043a7e8     libspeex-i386-win32-vc8-release:mdf.obj
 0002:000167ec       __real@3dcccccd            0043a7ec     libspeex-i386-win32-vc8-release:mdf.obj
 0002:000167f0       __real@3e19999a            0043a7f0     libspeex-i386-win32-vc8-release:mdf.obj
 0002:000167f4       __real@3e800000            0043a7f4     libspeex-i386-win32-vc8-release:mdf.obj
 0002:000167f8       __real@3eb851ec            0043a7f8     libspeex-i386-win32-vc8-release:mdf.obj
 0002:000167fc       __real@3ecccccd            0043a7fc     libspeex-i386-win32-vc8-release:mdf.obj
 0002:00016800       __real@3f19999a            0043a800     libspeex-i386-win32-vc8-release:mdf.obj
 0002:00016808       __real@3f1a36e2eb1c432d    0043a808     libspeex-i386-win32-vc8-release:mdf.obj
 0002:00016810       __real@3f333333            0043a810     libspeex-i386-win32-vc8-release:mdf.obj
 0002:00016814       __real@3f38f5c3            0043a814     libspeex-i386-win32-vc8-release:mdf.obj
 0002:00016818       __real@3f59999a            0043a818     libspeex-i386-win32-vc8-release:mdf.obj
 0002:00016820       __real@3fd0000000000000    0043a820     libspeex-i386-win32-vc8-release:mdf.obj
 0002:00016828       __real@3fd3333333333333    0043a828     libspeex-i386-win32-vc8-release:mdf.obj
 0002:00016830       __real@3fd6666666666666    0043a830     libspeex-i386-win32-vc8-release:mdf.obj
 0002:00016838       __real@3fe6666666666666    0043a838     libspeex-i386-win32-vc8-release:mdf.obj
 0002:00016840       __real@4008000000000000    0043a840     libspeex-i386-win32-vc8-release:mdf.obj
 0002:00016848       __real@4019999a            0043a848     libspeex-i386-win32-vc8-release:mdf.obj
 0002:0001684c       __real@40800000            0043a84c     libspeex-i386-win32-vc8-release:mdf.obj
 0002:00016850       __real@42c80000            0043a850     libspeex-i386-win32-vc8-release:mdf.obj
 0002:00016854       __real@45fa0000            0043a854     libspeex-i386-win32-vc8-release:mdf.obj
 0002:00016858       __real@461c4000            0043a858     libspeex-i386-win32-vc8-release:mdf.obj
 0002:0001685c       __real@467ffc00            0043a85c     libspeex-i386-win32-vc8-release:mdf.obj
 0002:00016860       __real@46fffe00            0043a860     libspeex-i386-win32-vc8-release:mdf.obj
 0002:00016864       __real@c7000000            0043a864     libspeex-i386-win32-vc8-release:mdf.obj
 0002:00016870       __xmm@3f4ccccd3f4ccccd3f4ccccd3f4ccccd 0043a870     libspeex-i386-win32-vc8-release:mdf.obj
 0002:00016880       __xmm@3f7d70a43f7d70a43f7d70a43f7d70a4 0043a880     libspeex-i386-win32-vc8-release:mdf.obj
 0002:000168e4       ??_C@_0DP@GLHJBLIP@The?5VAD?5has?5been?5replaced?5by?5a?5h@ 0043a8e4     libspeex-i386-win32-vc8-release:preprocess.obj
 0002:00016924       ??_C@_0CH@BPNBAON@Unknown?5speex_preprocess_ctl?5req@ 0043a924     libspeex-i386-win32-vc8-release:preprocess.obj
 0002:0001694c       __real@38d1b717            0043a94c     libspeex-i386-win32-vc8-release:preprocess.obj
 0002:00016950       __real@3a83126f            0043a950     libspeex-i386-win32-vc8-release:preprocess.obj
 0002:00016954       __real@3c23d70a            0043a954     libspeex-i386-win32-vc8-release:preprocess.obj
 0002:00016958       __real@3d4ccccd            0043a958     libspeex-i386-win32-vc8-release:preprocess.obj
 0002:0001695c       __real@3d99999a            0043a95c     libspeex-i386-win32-vc8-release:preprocess.obj
 0002:00016960       __real@3debc947            0043a960     libspeex-i386-win32-vc8-release:preprocess.obj
 0002:00016964       __real@3e4bc6a8            0043a964     libspeex-i386-win32-vc8-release:preprocess.obj
 0002:00016968       __real@3e4ccccd            0043a968     libspeex-i386-win32-vc8-release:preprocess.obj
 0002:0001696c       __real@3e6bc8e2            0043a96c     libspeex-i386-win32-vc8-release:preprocess.obj
 0002:00016970       __real@3e99999a            0043a970     libspeex-i386-win32-vc8-release:preprocess.obj
 0002:00016974       __real@3eaa7efa            0043a974     libspeex-i386-win32-vc8-release:preprocess.obj
 0002:00016978       __real@3eb33333            0043a978     libspeex-i386-win32-vc8-release:preprocess.obj
 0002:0001697c       __real@3f4ccccd            0043a97c     libspeex-i386-win32-vc8-release:preprocess.obj
 0002:00016980       __real@3f63d70a            0043a980     libspeex-i386-win32-vc8-release:preprocess.obj
 0002:00016984       __real@3f6624dd            0043a984     libspeex-i386-win32-vc8-release:preprocess.obj
 0002:00016988       __real@3f9eb851eb851eb8    0043a988     libspeex-i386-win32-vc8-release:preprocess.obj
 0002:00016990       __real@3fa2cdb8            0043a990     libspeex-i386-win32-vc8-release:preprocess.obj
 0002:00016998       __real@3fc096bb98c7e282    0043a998     libspeex-i386-win32-vc8-release:preprocess.obj
 0002:000169a0       __real@3fc999999999999a    0043a9a0     libspeex-i386-win32-vc8-release:preprocess.obj
 0002:000169a8       __real@3fe75c2900000000    0043a9a8     libspeex-i386-win32-vc8-release:preprocess.obj
 0002:000169b0       __real@3ff61adea8000000    0043a9b0     libspeex-i386-win32-vc8-release:preprocess.obj
 0002:000169b8       __real@3ff921fb54442d18    0043a9b8     libspeex-i386-win32-vc8-release:preprocess.obj
 0002:000169c0       __real@40000000            0043a9c0     libspeex-i386-win32-vc8-release:preprocess.obj
 0002:000169c8       __real@4014000000000000    0043a9c8     libspeex-i386-win32-vc8-release:preprocess.obj
 0002:000169d0       __real@40215f212d773190    0043a9d0     libspeex-i386-win32-vc8-release:preprocess.obj
 0002:000169d8       __real@456d8000            0043a9d8     libspeex-i386-win32-vc8-release:preprocess.obj
 0002:000169dc       __real@467a0000            0043a9dc     libspeex-i386-win32-vc8-release:preprocess.obj
 0002:000169e0       __real@46dac000            0043a9e0     libspeex-i386-win32-vc8-release:preprocess.obj
 0002:000169e4       __real@47000000            0043a9e4     libspeex-i386-win32-vc8-release:preprocess.obj
 0002:000169e8       __real@495bba00            0043a9e8     libspeex-i386-win32-vc8-release:preprocess.obj
 0002:000169ec       __real@4e6e6b28            0043a9ec     libspeex-i386-win32-vc8-release:preprocess.obj
 0002:000169f0       __real@bf000000            0043a9f0     libspeex-i386-win32-vc8-release:preprocess.obj
 0002:000169f8       __real@bfc99999a0000000    0043a9f8     libspeex-i386-win32-vc8-release:preprocess.obj
 0002:00016a00       __real@c0126bb98c000000    0043aa00     libspeex-i386-win32-vc8-release:preprocess.obj
 0002:00016a10       __xmm@3d4ccccd3d4ccccd3d4ccccd3d4ccccd 0043aa10     libspeex-i386-win32-vc8-release:preprocess.obj
 0002:00016a20       __xmm@3d99999a3d99999a3d99999a3d99999a 0043aa20     libspeex-i386-win32-vc8-release:preprocess.obj
 0002:00016a30       __xmm@3dcccccd3dcccccd3dcccccd3dcccccd 0043aa30     libspeex-i386-win32-vc8-release:preprocess.obj
 0002:00016a40       __xmm@3e19999a3e19999a3e19999a3e19999a 0043aa40     libspeex-i386-win32-vc8-release:preprocess.obj
 0002:00016a50       __xmm@3e99999a3e99999a3e99999a3e99999a 0043aa50     libspeex-i386-win32-vc8-release:preprocess.obj
 0002:00016a60       __xmm@3f19999a3f19999a3f19999a3f19999a 0043aa60     libspeex-i386-win32-vc8-release:preprocess.obj
 0002:00016a70       __xmm@3f3333333f3333333f3333333f333333 0043aa70     libspeex-i386-win32-vc8-release:preprocess.obj
 0002:00016a80       __xmm@3f63d70a3f63d70a3f63d70a3f63d70a 0043aa80     libspeex-i386-win32-vc8-release:preprocess.obj
 0002:00016a90       __xmm@3f8000003f8000003f8000003f800000 0043aa90     libspeex-i386-win32-vc8-release:preprocess.obj
 0002:00016aa0       __xmm@42c8000042c8000042c8000042c80000 0043aaa0     libspeex-i386-win32-vc8-release:preprocess.obj
 0002:00016ab0       __xmm@7fffffffffffffff7fffffffffffffff 0043aab0     libspeex-i386-win32-vc8-release:preprocess.obj
 0002:00016ac0       ??_C@_0CA@EIAGMGLH@FFT?5should?5not?5be?5done?5in?9place?$AA@ 0043aac0     libspeex-i386-win32-vc8-release:fftwrap.obj
 0002:00016ae0       __real@329ee9ee            0043aae0     libspeex-i386-win32-vc8-release:filterbank.obj
 0002:00016ae4       __real@3a41fc8f            0043aae4     libspeex-i386-win32-vc8-release:filterbank.obj
 0002:00016ae8       __real@4001eb8520000000    0043aae8     libspeex-i386-win32-vc8-release:filterbank.obj
 0002:00016af0       __real@402a333340000000    0043aaf0     libspeex-i386-win32-vc8-release:filterbank.obj
 0002:00016af8       ??_C@_0O@MIKIJNFL@crypto?5kernel?$AA@ 0043aaf8     libsrtp-i386-win32-vc8-release:crypto_kernel.obj
 0002:00016b08       ??_C@_04DKFOEDJA@srtp?$AA@ 0043ab08     libsrtp-i386-win32-vc8-release:srtp.obj
 0002:00016b10       ??_C@_0CD@KFGKPJOG@?$CFs?3?5cloning?5stream?5?$CISSRC?3?50x?$CF08x@ 0043ab10     libsrtp-i386-win32-vc8-release:srtp.obj
 0002:00016b34       ??_C@_0CE@KANLHMK@?$CFs?3?5found?5aes_icm?0?5generating?5sa@ 0043ab34     libsrtp-i386-win32-vc8-release:srtp.obj
 0002:00016b58       ??_C@_0BE@PGOGLMMP@?$CFs?3?5cipher?5key?3?5?$CFs?6?$AA@ 0043ab58     libsrtp-i386-win32-vc8-release:srtp.obj
 0002:00016b6c       ??_C@_0BE@HGKFNAFC@?$CFs?3?5auth?5key?3?5?5?5?$CFs?6?$AA@ 0043ab6c     libsrtp-i386-win32-vc8-release:srtp.obj
 0002:00016b80       ??_C@_0CJ@BAADIODK@?$CFs?3?5found?5aes_icm?0?5generating?5rt@ 0043ab80     libsrtp-i386-win32-vc8-release:srtp.obj
 0002:00016bac       ??_C@_0BJ@KAKGCCMO@?$CFs?3?5rtcp?5cipher?5key?3?5?$CFs?6?$AA@ 0043abac     libsrtp-i386-win32-vc8-release:srtp.obj
 0002:00016bc8       ??_C@_0BJ@CAOFEOFD@?$CFs?3?5rtcp?5auth?5key?3?5?5?5?$CFs?6?$AA@ 0043abc8     libsrtp-i386-win32-vc8-release:srtp.obj
 0002:00016be4       ??_C@_0CI@PDNDGOMA@?$CFs?3?5initializing?5stream?5?$CISSRC?3?50@ 0043abe4     libsrtp-i386-win32-vc8-release:srtp.obj
 0002:00016c0c       ??_C@_0BH@GAKJJGLB@srtp?3?5in?5stream?50x?$CFx?3?5?$AA@ 0043ac0c     libsrtp-i386-win32-vc8-release:srtp.obj
 0002:00016c24       ??_C@_0BB@PPFALDPP@?7SSRC?5collision?6?$AA@ 0043ac24     libsrtp-i386-win32-vc8-release:srtp.obj
 0002:00016c38       ??_C@_0BP@HOEKLBIN@?7key?5usage?5soft?5limit?5reached?6?$AA@ 0043ac38     libsrtp-i386-win32-vc8-release:srtp.obj
 0002:00016c58       ??_C@_0BP@KNJIFCF@?7key?5usage?5hard?5limit?5reached?6?$AA@ 0043ac58     libsrtp-i386-win32-vc8-release:srtp.obj
 0002:00016c78       ??_C@_0BN@MKCGGAOP@?7packet?5index?5limit?5reached?6?$AA@ 0043ac78     libsrtp-i386-win32-vc8-release:srtp.obj
 0002:00016c98       ??_C@_0CE@FFJEPPID@?7unknown?5event?5reported?5to?5handl@ 0043ac98     libsrtp-i386-win32-vc8-release:srtp.obj
 0002:00016cbc       ??_C@_0BL@MADNODBC@?$CFs?3?5function?5srtp_protect?6?$AA@ 0043acbc     libsrtp-i386-win32-vc8-release:srtp.obj
 0002:00016cd8       ??_C@_0CF@PEPHCKJP@?$CFs?3?5estimated?5packet?5index?3?5?$CF016@ 0043acd8     libsrtp-i386-win32-vc8-release:srtp.obj
 0002:00016d00       ??_C@_0BK@KLBGMJPP@?$CFs?3?5keystream?5prefix?3?5?$CFs?6?$AA@ 0043ad00     libsrtp-i386-win32-vc8-release:srtp.obj
 0002:00016d1c       ??_C@_0BK@GCKOFNLP@?$CFs?3?5srtp?5auth?5tag?3?5?5?5?5?$CFs?6?$AA@ 0043ad1c     libsrtp-i386-win32-vc8-release:srtp.obj
 0002:00016d38       ??_C@_0BN@LADOAJPP@?$CFs?3?5function?5srtp_unprotect?6?$AA@ 0043ad38     libsrtp-i386-win32-vc8-release:srtp.obj
 0002:00016d58       ??_C@_0CN@PJAKIEAG@?$CFs?3?5using?5provisional?5stream?5?$CISS@ 0043ad58     libsrtp-i386-win32-vc8-release:srtp.obj
 0002:00016d88       ??_C@_0DC@MCOMJNFD@estimated?5u_packet?5index?3?5?$CF016ll@ 0043ad88     libsrtp-i386-win32-vc8-release:srtp.obj
 0002:00016dbc       ??_C@_02DPNLHKJD@a?$CL?$AA@ 0043adbc     libsrtp-i386-win32-vc8-release:srtp.obj
 0002:00016dc0       ??_C@_0BA@CKOOPFDP@d?3?2datafile?4txt?$AA@ 0043adc0     libsrtp-i386-win32-vc8-release:srtp.obj
 0002:00016dd0       ??_C@_0BC@MBEPHPDP@File?5open?5error?$CB?6?$AA@ 0043add0     libsrtp-i386-win32-vc8-release:srtp.obj
 0002:00016de4       ??_C@_0CH@MOHBLIMO@?$CFs?3?5estimated?5u_packet?5index?3?5?$CF0@ 0043ade4     libsrtp-i386-win32-vc8-release:srtp.obj
 0002:00016e0c       ??_C@_0BO@BONEKIBH@?$CFs?3?5computed?5auth?5tag?3?5?5?5?5?$CFs?6?$AA@ 0043ae0c     libsrtp-i386-win32-vc8-release:srtp.obj
 0002:00016e2c       ??_C@_0BO@KMHOFFAA@?$CFs?3?5packet?5auth?5tag?3?5?5?5?5?5?5?$CFs?6?$AA@ 0043ae2c     libsrtp-i386-win32-vc8-release:srtp.obj
 0002:00016e4c       ??_C@_0BF@JBCKCIAJ@?$CFs?3?5srtcp?5index?3?5?$CFx?6?$AA@ 0043ae4c     libsrtp-i386-win32-vc8-release:srtp.obj
 0002:00016e64       ??_C@_0BL@OBHAKLEH@?$CFs?3?5srtcp?5auth?5tag?3?5?5?5?5?$CFs?6?$AA@ 0043ae64     libsrtp-i386-win32-vc8-release:srtp.obj
 0002:00016e80       ??_C@_0DD@HHOLLDKC@?$CFs?3?5srtcp?5using?5provisional?5stre@ 0043ae80     libsrtp-i386-win32-vc8-release:srtp.obj
 0002:00016eb4       ??_C@_0CC@IMKDPKDI@?$CFs?3?5srtcp?5computed?5tag?3?5?5?5?5?5?5?5?$CFs@ 0043aeb4     libsrtp-i386-win32-vc8-release:srtp.obj
 0002:00016ed8       ??_C@_0CC@GFCANNPL@?$CFs?3?5srtcp?5tag?5from?5packet?3?5?5?5?5?$CFs@ 0043aed8     libsrtp-i386-win32-vc8-release:srtp.obj
 0002:00016efc       ??_C@_05KNPMOECN@alloc?$AA@ 0043aefc     libsrtp-i386-win32-vc8-release:alloc.obj
 0002:00016f04       ??_C@_0BO@KJOGHNGM@?$CFs?3?5?$CIlocation?3?5?$CFp?$CJ?5allocated?6?$AA@ 0043af04     libsrtp-i386-win32-vc8-release:alloc.obj
 0002:00016f24       ??_C@_0CN@JJLNACEJ@?$CFs?3?5allocation?5failed?5?$CIasked?5for@ 0043af24     libsrtp-i386-win32-vc8-release:alloc.obj
 0002:00016f54       ??_C@_0BK@BNKOPMHD@?$CFs?3?5?$CIlocation?3?5?$CFp?$CJ?5freed?6?$AA@ 0043af54     libsrtp-i386-win32-vc8-release:alloc.obj
 0002:00016f70       ??_C@_07EFAIHJHH@libsrtp?$AA@ 0043af70     libsrtp-i386-win32-vc8-release:srtp_err.obj
 0002:00016f78       ??_C@_06KDGDAFPH@cipher?$AA@ 0043af78     libsrtp-i386-win32-vc8-release:cipher.obj
 0002:00016f80       ??_C@_09EJIBOKIO@auth?5func?$AA@ 0043af80     libsrtp-i386-win32-vc8-release:auth.obj
 0002:00016f8c       ??_C@_09LCMAEBCF@stat?5test?$AA@ 0043af8c     libsrtp-i386-win32-vc8-release:stat.obj
 0002:00016f98       ??_C@_0CK@DAFEFAPH@?$CFs?3?5allocating?5cipher?5with?5key?5l@ 0043af98     libsrtp-i386-win32-vc8-release:null_cipher.obj
 0002:00016fc4       ??_C@_0BO@HCJFKKEE@?$CFs?3?5initializing?5null?5cipher?6?$AA@ 0043afc4     libsrtp-i386-win32-vc8-release:null_cipher.obj
 0002:00016fe4       ??_C@_07MPIJGLIA@aes?5icm?$AA@ 0043afe4     libsrtp-i386-win32-vc8-release:aes_icm.obj
 0002:00016fec       ??_C@_0O@GFBJNBAD@?$CFs?3?5key?3?5?5?$CFs?6?$AA@ 0043afec     libsrtp-i386-win32-vc8-release:aes_icm.obj
 0002:00016ffc       ??_C@_0BA@ILFEGDEM@?$CFs?3?5offset?3?5?$CFs?6?$AA@ 0043affc     libsrtp-i386-win32-vc8-release:aes_icm.obj
 0002:0001700c       ??_C@_0BE@ENJPOLAG@?$CFs?3?5counter?3?5?5?5?5?$CFs?6?$AA@ 0043b00c     libsrtp-i386-win32-vc8-release:aes_icm.obj
 0002:00017020       ??_C@_0BE@ILCAEFF@?$CFs?3?5ciphertext?3?5?$CFs?6?$AA@ 0043b020     libsrtp-i386-win32-vc8-release:aes_icm.obj
 0002:00017034       ??_C@_0BE@ECIFEEKH@?$CFs?3?5setting?5iv?3?5?$CFs?6?$AA@ 0043b034     libsrtp-i386-win32-vc8-release:aes_icm.obj
 0002:00017048       ??_C@_0BF@OAOEHNDM@?$CFs?3?5set_counter?3?5?$CFs?6?$AA@ 0043b048     libsrtp-i386-win32-vc8-release:aes_icm.obj
 0002:00017060       ??_C@_0BF@BLBMMINO@?$CFs?3?5block?5index?3?5?$CFd?6?$AA@ 0043b060     libsrtp-i386-win32-vc8-release:aes_icm.obj
 0002:00017078       ??_C@_07DPHFMMFN@aes?5cbc?$AA@ 0043b078     libsrtp-i386-win32-vc8-release:aes_cbc.obj
 0002:00017080       ??_C@_0M@IBNAAFBJ@?$CFs?3?5iv?3?5?$CFs?6?$AA@ 0043b080     libsrtp-i386-win32-vc8-release:aes_cbc.obj
 0002:0001708c       ??_C@_0BC@OKGIACPM@?$CFs?3?5inblock?3?5?5?$CFs?6?$AA@ 0043b08c     libsrtp-i386-win32-vc8-release:aes_cbc.obj
 0002:000170a0       ??_C@_0BC@JDOKDHF@?$CFs?3?5outblock?3?5?$CFs?6?$AA@ 0043b0a0     libsrtp-i386-win32-vc8-release:aes_cbc.obj
 0002:000170b4       ??_C@_0CN@KBEHBKDH@?$CFs?3?5allocating?5auth?5func?5with?5ke@ 0043b0b4     libsrtp-i386-win32-vc8-release:null_auth.obj
 0002:000170e4       ??_C@_0CN@FDNDBNFI@?$CFs?3?5?5?5?5?5?5?5?5?5?5?5?5?5?5?5?5?5?5?5?5?5?5?5?5?5?5?5ta@ 0043b0e4     libsrtp-i386-win32-vc8-release:null_auth.obj
 0002:00017114       ??_C@_0L@NBBBLMAJ@hmac?5sha?91?$AA@ 0043b114     libsrtp-i386-win32-vc8-release:hmac.obj
 0002:00017120       ??_C@_0O@PJECJPIJ@?$CFs?3?5ipad?3?5?$CFs?6?$AA@ 0043b120     libsrtp-i386-win32-vc8-release:hmac.obj
 0002:00017130       ??_C@_0P@JHGAOEEF@?$CFs?3?5input?3?5?$CFs?6?$AA@ 0043b130     libsrtp-i386-win32-vc8-release:hmac.obj
 0002:00017140       ??_C@_0BM@JABNBLDM@?$CFs?3?5intermediate?5state?3?5?$CFs?6?$AA@ 0043b140     libsrtp-i386-win32-vc8-release:hmac.obj
 0002:0001715c       ??_C@_0BA@NKCNJNLN@?$CFs?3?5output?3?5?$CFs?6?$AA@ 0043b15c     libsrtp-i386-win32-vc8-release:hmac.obj
 0002:00017170       __xmm@36363636363636363636363636363636 0043b170     libsrtp-i386-win32-vc8-release:hmac.obj
 0002:00017180       __xmm@5c5c5c5c5c5c5c5c5c5c5c5c5c5c5c5c 0043b180     libsrtp-i386-win32-vc8-release:hmac.obj
 0002:00017190       __xmm@66656463626139383736353433323130 0043b190     libsrtp-i386-win32-vc8-release:datatypes.obj
 0002:000171a0       ??_C@_05BPJLFPNI@sha?91?$AA@ 0043b1a0     libsrtp-i386-win32-vc8-release:sha1.obj
 0002:000171a8       ??_C@_0CC@GKOIIHOG@?$CFs?3?5?$CIupdate?$CJ?5running?5sha1_core?$CI?$CJ@ 0043b1a8     libsrtp-i386-win32-vc8-release:sha1.obj
 0002:000171cc       ??_C@_0CG@KGMPNKKF@?$CFs?3?5?$CIupdate?$CJ?5not?5running?5sha1_co@ 0043b1cc     libsrtp-i386-win32-vc8-release:sha1.obj
 0002:000171f4       ??_C@_0CB@KIPIFMFH@?$CFs?3?5?$CIfinal?$CJ?5running?5sha1_core?$CI?$CJ?6@ 0043b1f4     libsrtp-i386-win32-vc8-release:sha1.obj
 0002:00017218       ??_C@_0CH@HCINMGOM@?$CFs?3?5?$CIfinal?$CJ?5running?5sha1_core?$CI?$CJ?5@ 0043b218     libsrtp-i386-win32-vc8-release:sha1.obj
 0002:000172cc       ??_C@_07GBKCPIDJ@ext?9fmt?$AA@ 0043b2cc     pjmedia-audiodev-i386-win32-vc8-release:audiodev.obj
 0002:000172d4       ??_C@_0BI@GGHCECPI@Extended?1non?9PCM?5format?$AA@ 0043b2d4     pjmedia-audiodev-i386-win32-vc8-release:audiodev.obj
 0002:000172ec       ??_C@_0L@IKNMBADD@latency?9in?$AA@ 0043b2ec     pjmedia-audiodev-i386-win32-vc8-release:audiodev.obj
 0002:000172f8       ??_C@_0CC@LIGOHOJN@Input?5latency?1buffer?5size?5settin@ 0043b2f8     pjmedia-audiodev-i386-win32-vc8-release:audiodev.obj
 0002:0001731c       ??_C@_0M@MBBBBCLJ@latency?9out?$AA@ 0043b31c     pjmedia-audiodev-i386-win32-vc8-release:audiodev.obj
 0002:00017328       ??_C@_0CD@GAINMBC@Output?5latency?1buffer?5size?5setti@ 0043b328     pjmedia-audiodev-i386-win32-vc8-release:audiodev.obj
 0002:0001734c       ??_C@_06KGGLCDDG@vol?9in?$AA@ 0043b34c     pjmedia-audiodev-i386-win32-vc8-release:audiodev.obj
 0002:00017354       ??_C@_0BF@CCEKOJAN@Input?5volume?5setting?$AA@ 0043b354     pjmedia-audiodev-i386-win32-vc8-release:audiodev.obj
 0002:0001736c       ??_C@_07LBFHFBAF@vol?9out?$AA@ 0043b36c     pjmedia-audiodev-i386-win32-vc8-release:audiodev.obj
 0002:00017374       ??_C@_0BG@IBEHJHAD@Output?5volume?5setting?$AA@ 0043b374     pjmedia-audiodev-i386-win32-vc8-release:audiodev.obj
 0002:0001738c       ??_C@_08BPNDLGG@meter?9in?$AA@ 0043b38c     pjmedia-audiodev-i386-win32-vc8-release:audiodev.obj
 0002:00017398       ??_C@_0M@NCGIGNPG@Input?5meter?$AA@ 0043b398     pjmedia-audiodev-i386-win32-vc8-release:audiodev.obj
 0002:000173a4       ??_C@_09NKJLJGOJ@meter?9out?$AA@ 0043b3a4     pjmedia-audiodev-i386-win32-vc8-release:audiodev.obj
 0002:000173b0       ??_C@_0N@GBEOEOEP@Output?5meter?$AA@ 0043b3b0     pjmedia-audiodev-i386-win32-vc8-release:audiodev.obj
 0002:000173c0       ??_C@_08FPHJDLBG@route?9in?$AA@ 0043b3c0     pjmedia-audiodev-i386-win32-vc8-release:audiodev.obj
 0002:000173cc       ??_C@_0O@JDPFDDM@Input?5routing?$AA@ 0043b3cc     pjmedia-audiodev-i386-win32-vc8-release:audiodev.obj
 0002:000173dc       ??_C@_09IKMAGDNF@route?9out?$AA@ 0043b3dc     pjmedia-audiodev-i386-win32-vc8-release:audiodev.obj
 0002:000173e8       ??_C@_0P@JOFPIEJJ@Output?5routing?$AA@ 0043b3e8     pjmedia-audiodev-i386-win32-vc8-release:audiodev.obj
 0002:000173f8       ??_C@_03FNONIBCK@aec?$AA@  0043b3f8     pjmedia-audiodev-i386-win32-vc8-release:audiodev.obj
 0002:000173fc       ??_C@_0BM@HPDLGLFJ@Accoustic?5echo?5cancellation?$AA@ 0043b3fc     pjmedia-audiodev-i386-win32-vc8-release:audiodev.obj
 0002:00017418       ??_C@_08MKAPJCJE@aec?9tail?$AA@ 0043b418     pjmedia-audiodev-i386-win32-vc8-release:audiodev.obj
 0002:00017424       ??_C@_0BM@PBLLADJD@Tail?5length?5setting?5for?5AEC?$AA@ 0043b424     pjmedia-audiodev-i386-win32-vc8-release:audiodev.obj
 0002:00017440       ??_C@_03NIGLNABH@vad?$AA@  0043b440     pjmedia-audiodev-i386-win32-vc8-release:audiodev.obj
 0002:00017444       ??_C@_0BJ@PEELNNPF@Voice?5activity?5detection?$AA@ 0043b444     pjmedia-audiodev-i386-win32-vc8-release:audiodev.obj
 0002:00017460       ??_C@_03JPNNGDEE@cng?$AA@  0043b460     pjmedia-audiodev-i386-win32-vc8-release:audiodev.obj
 0002:00017464       ??_C@_0BJ@MNDOFJGN@Comfort?5noise?5generation?$AA@ 0043b464     pjmedia-audiodev-i386-win32-vc8-release:audiodev.obj
 0002:00017480       ??_C@_03NOPFEPFL@plg?$AA@  0043b480     pjmedia-audiodev-i386-win32-vc8-release:audiodev.obj
 0002:00017484       ??_C@_0BI@OMEMKBHH@Packet?5loss?5concealment?$AA@ 0043b484     pjmedia-audiodev-i386-win32-vc8-release:audiodev.obj
 0002:000174a0       ??_C@_0EF@NLCNMHAD@?$CFd?5device?$CIs?$CJ?5cannot?5be?5registere@ 0043b4a0     pjmedia-audiodev-i386-win32-vc8-release:audiodev.obj
 0002:000174e8       ??_C@_0L@FGHHAHLM@audiodev?4c?$AA@ 0043b4e8     pjmedia-audiodev-i386-win32-vc8-release:audiodev.obj
 0002:00017558       ??_C@_0DC@MHBBCDGM@Unspecified?5audio?5device?5error?5?$CI@ 0043b558     pjmedia-audiodev-i386-win32-vc8-release:errno.obj
 0002:0001758c       ??_C@_0DG@FEDKLOFB@Unknown?5error?5from?5audio?5driver?5@ 0043b58c     pjmedia-audiodev-i386-win32-vc8-release:errno.obj
 0002:000175c4       ??_C@_0DE@DOHCBKFK@Audio?5subsystem?5not?5initialized?5@ 0043b5c4     pjmedia-audiodev-i386-win32-vc8-release:errno.obj
 0002:000175f8       ??_C@_0CL@NCBJPCNF@Invalid?5audio?5device?5?$CIPJMEDIA_EA@ 0043b5f8     pjmedia-audiodev-i386-win32-vc8-release:errno.obj
 0002:00017624       ??_C@_0CM@LOPLLMHO@Found?5no?5audio?5devices?5?$CIPJMEDIA_@ 0043b624     pjmedia-audiodev-i386-win32-vc8-release:errno.obj
 0002:00017650       ??_C@_0DM@DPDKGMIE@Unable?5to?5find?5default?5audio?5dev@ 0043b650     pjmedia-audiodev-i386-win32-vc8-release:errno.obj
 0002:0001768c       ??_C@_0CP@JIPJOIMB@Audio?5device?5not?5ready?5?$CIPJMEDIA_@ 0043b68c     pjmedia-audiodev-i386-win32-vc8-release:errno.obj
 0002:000176bc       ??_C@_0DO@NMIGLFFA@Invalid?5or?5unsupported?5audio?5cap@ 0043b6bc     pjmedia-audiodev-i386-win32-vc8-release:errno.obj
 0002:00017700       ??_C@_0ED@PLJALPOA@Invalid?5or?5unsupported?5audio?5dev@ 0043b700     pjmedia-audiodev-i386-win32-vc8-release:errno.obj
 0002:00017744       ??_C@_0DM@JKDJGBNG@Bad?5or?5invalid?5audio?5device?5form@ 0043b744     pjmedia-audiodev-i386-win32-vc8-release:errno.obj
 0002:00017780       ??_C@_0DN@BLAJILEA@Invalid?5audio?5device?5sample?5form@ 0043b780     pjmedia-audiodev-i386-win32-vc8-release:errno.obj
 0002:000177c0       ??_C@_0DE@LJJGJIEF@Bad?5audio?5latency?5setting?5?$CIPJMED@ 0043b7c0     pjmedia-audiodev-i386-win32-vc8-release:errno.obj
 0002:000177f4       ??_C@_0BJ@GMHLEOAL@MMSYSTEM?5native?5error?5?$CFd?$AA@ 0043b7f4     pjmedia-audiodev-i386-win32-vc8-release:errno.obj
 0002:00017810       ??_C@_0CC@MFOJNIAN@Unknown?5pjmedia?9audiodev?5error?5?$CF@ 0043b810     pjmedia-audiodev-i386-win32-vc8-release:errno.obj
 0002:00017834       ??_C@_0M@KBHHDDLP@Wave?5mapper?$AA@ 0043b834     pjmedia-audiodev-i386-win32-vc8-release:wmme_dev.obj
 0002:00017840       ??_C@_04CPNMDOAK@WMME?$AA@ 0043b840     pjmedia-audiodev-i386-win32-vc8-release:wmme_dev.obj
 0002:00017848       ??_C@_0BB@EOKKHGLD@WMME?5initialized?$AA@ 0043b848     pjmedia-audiodev-i386-win32-vc8-release:wmme_dev.obj
 0002:0001785c       ??_C@_0L@HHCCMOGO@wmme_dev?4c?$AA@ 0043b85c     pjmedia-audiodev-i386-win32-vc8-release:wmme_dev.obj
 0002:00017868       ??_C@_0BM@OMJMEAMB@WMME?5found?5no?5sound?5devices?$AA@ 0043b868     pjmedia-audiodev-i386-win32-vc8-release:wmme_dev.obj
 0002:00017884       ??_C@_11LOCGONAA@?$AA?$AA@ 0043b884     pjmedia-audiodev-i386-win32-vc8-release:wmme_dev.obj
 0002:00017888       ??_C@_0BH@GEMAAOCL@WMME?5found?5?$CFd?5devices?3?$AA@ 0043b888     pjmedia-audiodev-i386-win32-vc8-release:wmme_dev.obj
 0002:000178a0       ??_C@_0CA@NLJGEGOG@?5dev_id?5?$CFd?3?5?$CFs?5?5?$CIin?$DN?$CFd?0?5out?$DN?$CFd?$CJ?$AA@ 0043b8a0     pjmedia-audiodev-i386-win32-vc8-release:wmme_dev.obj
 0002:000178c0       ??_C@_03CCLNCNJA@PCM?$AA@  0043b8c0     pjmedia-audiodev-i386-win32-vc8-release:wmme_dev.obj
 0002:000178c8       ??_C@_0HB@MKIBCFPJ@?5WaveAPI?5Sound?5player?5?$CC?$CFs?$CC?5initi@ 0043b8c8     pjmedia-audiodev-i386-win32-vc8-release:wmme_dev.obj
 0002:00017940       ??_C@_0HD@PIICIPL@?5WaveAPI?5Sound?5recorder?5?$CC?$CFs?$CC?5ini@ 0043b940     pjmedia-audiodev-i386-win32-vc8-release:wmme_dev.obj
 0002:000179b4       ??_C@_0BI@BEJPJEBJ@WMME?3?5thread?5stopping?4?4?$AA@ 0043b9b4     pjmedia-audiodev-i386-win32-vc8-release:wmme_dev.obj
 0002:000179cc       ??_C@_08MOOOBPLB@wmme?9dev?$AA@ 0043b9cc     pjmedia-audiodev-i386-win32-vc8-release:wmme_dev.obj
 0002:000179d8       ??_C@_04ODOGNMHC@wmme?$AA@ 0043b9d8     pjmedia-audiodev-i386-win32-vc8-release:wmme_dev.obj
 0002:000179e0       ??_C@_0BN@MNACKNIN@WMME?5playback?5stream?5started?$AA@ 0043b9e0     pjmedia-audiodev-i386-win32-vc8-release:wmme_dev.obj
 0002:00017a00       ??_C@_0BM@NKDLICNM@WMME?5capture?5stream?5started?$AA@ 0043ba00     pjmedia-audiodev-i386-win32-vc8-release:wmme_dev.obj
 0002:00017a1c       ??_C@_0BN@FMJNHCPG@Stopped?5WMME?5playback?5stream?$AA@ 0043ba1c     pjmedia-audiodev-i386-win32-vc8-release:wmme_dev.obj
 0002:00017a3c       ??_C@_0BM@KCHDOGNE@Stopped?5WMME?5capture?5stream?$AA@ 0043ba3c     pjmedia-audiodev-i386-win32-vc8-release:wmme_dev.obj
 0002:00017a58       ??_C@_09OFDCJLJM@WMME?5base?$AA@ 0043ba58     pjmedia-audiodev-i386-win32-vc8-release:wmme_dev.obj
 0002:00017a90       __load_config_used         0043ba90     MSVCRT:loadcfg.obj
 0002:00017af0       ___safe_se_handler_table   0043baf0     <linker-defined>
 0002:00017d44       ___rtc_iaa                 0043bd44     MSVCRT:_initsect_.obj
 0002:00017d48       ___rtc_izz                 0043bd48     MSVCRT:_initsect_.obj
 0002:00017d4c       ___rtc_taa                 0043bd4c     MSVCRT:_initsect_.obj
 0002:00017d50       ___rtc_tzz                 0043bd50     MSVCRT:_initsect_.obj
 0002:00017d94       __IMPORT_DESCRIPTOR_ole32  0043bd94     ole32:ole32.dll
 0002:00017da8       __IMPORT_DESCRIPTOR_WS2_32 0043bda8     ws2_32:WS2_32.dll
 0002:00017dbc       __IMPORT_DESCRIPTOR_KERNEL32 0043bdbc     kernel32:KERNEL32.dll
 0002:00017dd0       __IMPORT_DESCRIPTOR_VCRUNTIME140 0043bdd0     vcruntime:VCRUNTIME140.dll
 0002:00017de4       __IMPORT_DESCRIPTOR_api-ms-win-crt-stdio-l1-1-0 0043bde4     ucrt:api-ms-win-crt-stdio-l1-1-0.dll
 0002:00017df8       __IMPORT_DESCRIPTOR_api-ms-win-crt-convert-l1-1-0 0043bdf8     ucrt:api-ms-win-crt-convert-l1-1-0.dll
 0002:00017e0c       __IMPORT_DESCRIPTOR_api-ms-win-crt-string-l1-1-0 0043be0c     ucrt:api-ms-win-crt-string-l1-1-0.dll
 0002:00017e20       __IMPORT_DESCRIPTOR_api-ms-win-crt-math-l1-1-0 0043be20     ucrt:api-ms-win-crt-math-l1-1-0.dll
 0002:00017e34       __IMPORT_DESCRIPTOR_api-ms-win-crt-heap-l1-1-0 0043be34     ucrt:api-ms-win-crt-heap-l1-1-0.dll
 0002:00017e48       __IMPORT_DESCRIPTOR_api-ms-win-crt-runtime-l1-1-0 0043be48     ucrt:api-ms-win-crt-runtime-l1-1-0.dll
 0002:00017e5c       __IMPORT_DESCRIPTOR_api-ms-win-crt-locale-l1-1-0 0043be5c     ucrt:api-ms-win-crt-locale-l1-1-0.dll
 0002:00017e70       __IMPORT_DESCRIPTOR_WINMM  0043be70     winmm:WINMM.dll
 0002:00017e84       __NULL_IMPORT_DESCRIPTOR   0043be84     ole32:ole32.dll
 0003:00000e7c       _pjmedia_add_rtpmap_for_static_pt 0043de7c     pjmedia-i386-win32-vc8-release:endpoint.obj
 0003:00000e80       _pjmedia_add_bandwidth_tias_in_sdp 0043de80     pjmedia-i386-win32-vc8-release:endpoint.obj
 0003:00000fb4       _pj_optind                 0043dfb4     pjlib-util-i386-win32-vc8-release:getopt.obj
 0003:00000fb8       _pj_optopt                 0043dfb8     pjlib-util-i386-win32-vc8-release:getopt.obj
 0003:0000106c       _pj_pool_factory_default_policy 0043e06c     pjlib-i386-win32-vc8-release:pool_policy_malloc.obj
 0003:000010cc       _PJ_VERSION                0043e0cc     pjlib-i386-win32-vc8-release:config.obj
 0003:00001104       _mod_crypto_kernel         0043e104     libsrtp-i386-win32-vc8-release:crypto_kernel.obj
 0003:0000110c       _mod_srtp                  0043e10c     libsrtp-i386-win32-vc8-release:srtp.obj
 0003:00001118       _mod_alloc                 0043e118     libsrtp-i386-win32-vc8-release:alloc.obj
 0003:00001120       _err_level                 0043e120     libsrtp-i386-win32-vc8-release:srtp_err.obj
 0003:00001128       _mod_cipher                0043e128     libsrtp-i386-win32-vc8-release:cipher.obj
 0003:00001130       _mod_auth                  0043e130     libsrtp-i386-win32-vc8-release:auth.obj
 0003:00001138       _mod_stat                  0043e138     libsrtp-i386-win32-vc8-release:stat.obj
 0003:00001140       _null_cipher_description   0043e140     libsrtp-i386-win32-vc8-release:null_cipher.obj
 0003:0000114c       _null_cipher               0043e14c     libsrtp-i386-win32-vc8-release:null_cipher.obj
 0003:00001174       _mod_aes_icm               0043e174     libsrtp-i386-win32-vc8-release:aes_icm.obj
 0003:0000117c       _aes_icm_description       0043e17c     libsrtp-i386-win32-vc8-release:aes_icm.obj
 0003:00001198       _aes_icm_test_case_0_key   0043e198     libsrtp-i386-win32-vc8-release:aes_icm.obj
 0003:000011b8       _aes_icm_test_case_0_ciphertext 0043e1b8     libsrtp-i386-win32-vc8-release:aes_icm.obj
 0003:000011d8       _aes_icm_test_case_0       0043e1d8     libsrtp-i386-win32-vc8-release:aes_icm.obj
 0003:000011f8       _aes_icm                   0043e1f8     libsrtp-i386-win32-vc8-release:aes_icm.obj
 0003:00001220       _mod_aes_cbc               0043e220     libsrtp-i386-win32-vc8-release:aes_cbc.obj
 0003:00001228       _aes_cbc_description       0043e228     libsrtp-i386-win32-vc8-release:aes_cbc.obj
 0003:00001250       _aes_cbc_test_case_0_key   0043e250     libsrtp-i386-win32-vc8-release:aes_cbc.obj
 0003:00001260       _aes_cbc_test_case_0_plaintext 0043e260     libsrtp-i386-win32-vc8-release:aes_cbc.obj
 0003:000012a0       _aes_cbc_test_case_0_ciphertext 0043e2a0     libsrtp-i386-win32-vc8-release:aes_cbc.obj
 0003:000012f0       _aes_cbc_test_case_0       0043e2f0     libsrtp-i386-win32-vc8-release:aes_cbc.obj
 0003:00001310       _aes_cbc_test_case_1_key   0043e310     libsrtp-i386-win32-vc8-release:aes_cbc.obj
 0003:00001320       _aes_cbc_test_case_1_plaintext 0043e320     libsrtp-i386-win32-vc8-release:aes_cbc.obj
 0003:00001360       _aes_cbc_test_case_1_ciphertext 0043e360     libsrtp-i386-win32-vc8-release:aes_cbc.obj
 0003:000013b0       _aes_cbc_test_case_1_iv    0043e3b0     libsrtp-i386-win32-vc8-release:aes_cbc.obj
 0003:000013c0       _aes_cbc_test_case_1       0043e3c0     libsrtp-i386-win32-vc8-release:aes_cbc.obj
 0003:000013e0       _aes_cbc                   0043e3e0     libsrtp-i386-win32-vc8-release:aes_cbc.obj
 0003:00001408       _lpc_description           0043e408     libsrtp-i386-win32-vc8-release:lpc_algo.obj
 0003:00001424       _lpc_algo                  0043e424     libsrtp-i386-win32-vc8-release:lpc_algo.obj
 0003:0000144c       _null_auth_description     0043e44c     libsrtp-i386-win32-vc8-release:null_auth.obj
 0003:0000146c       _null_auth                 0043e46c     libsrtp-i386-win32-vc8-release:null_auth.obj
 0003:00001494       _mod_hmac                  0043e494     libsrtp-i386-win32-vc8-release:hmac.obj
 0003:0000149c       _hmac_test_case_0_key      0043e49c     libsrtp-i386-win32-vc8-release:hmac.obj
 0003:000014b0       _hmac_test_case_0_data     0043e4b0     libsrtp-i386-win32-vc8-release:hmac.obj
 0003:000014b8       _hmac_test_case_0_tag      0043e4b8     libsrtp-i386-win32-vc8-release:hmac.obj
 0003:000014cc       _hmac_test_case_0          0043e4cc     libsrtp-i386-win32-vc8-release:hmac.obj
 0003:000014e8       _hmac_description          0043e4e8     libsrtp-i386-win32-vc8-release:hmac.obj
 0003:0000150c       _hmac                      0043e50c     libsrtp-i386-win32-vc8-release:hmac.obj
 0003:00001538       _octet_weight              0043e538     libsrtp-i386-win32-vc8-release:datatypes.obj
 0003:00003b38       _mod_sha1                  00440b38     libsrtp-i386-win32-vc8-release:sha1.obj
 0003:00003b40       _SHA_K0                    00440b40     libsrtp-i386-win32-vc8-release:sha1.obj
 0003:00003b44       _SHA_K1                    00440b44     libsrtp-i386-win32-vc8-release:sha1.obj
 0003:00003b48       _SHA_K2                    00440b48     libsrtp-i386-win32-vc8-release:sha1.obj
 0003:00003b4c       _SHA_K3                    00440b4c     libsrtp-i386-win32-vc8-release:sha1.obj
 0003:00003b50       ___security_cookie_complement 00440b50     MSVCRT:gs_cookie.obj
 0003:00003b54       ___security_cookie         00440b54     MSVCRT:gs_cookie.obj
 0003:00003b60       __fltused                  00440b60     MSVCRT:fltused.obj
 0003:00003b70       ___scrt_native_dllmain_reason 00440b70     MSVCRT:utility.obj
 0003:00003b74       ___scrt_default_matherr    00440b74     MSVCRT:matherr.obj
 0003:00003b80       ___isa_enabled             00440b80     MSVCRT:_cpu_disp_.obj
 0003:00003c34       ___scrt_ucrt_dll_is_in_use 00440c34     MSVCRT:ucrt_stubs.obj
 0003:00004090       _pj_optarg                 00441090     pjlib-util-i386-win32-vc8-release:getopt.obj
 0003:00004424       _crypto_kernel             00441424     libsrtp-i386-win32-vc8-release:crypto_kernel.obj
 0003:00004438       _slides_window             00441438     libsrtp-i386-win32-vc8-release:srtp.obj
 0003:00004488       _null_cipher_test_0        00441488     libsrtp-i386-win32-vc8-release:null_cipher.obj
 0003:000044a8       _aes_icm_test_case_0_nonce 004414a8     libsrtp-i386-win32-vc8-release:aes_icm.obj
 0003:000044b8       _aes_icm_test_case_0_plaintext 004414b8     libsrtp-i386-win32-vc8-release:aes_icm.obj
 0003:000044d8       _aes_cbc_test_case_0_iv    004414d8     libsrtp-i386-win32-vc8-release:aes_cbc.obj
 0003:000044e8       _lpc_algo_test_case_0      004414e8     libsrtp-i386-win32-vc8-release:lpc_algo.obj
 0003:00004508       _null_auth_test_case_0     00441508     libsrtp-i386-win32-vc8-release:null_auth.obj
 0003:00004844       ___scrt_current_native_startup_state 00441844     MSVCRT:utility.obj
 0003:00004848       ___scrt_native_startup_lock 00441848     MSVCRT:utility.obj
 0003:00004868       ?__type_info_root_node@@3U__type_info_node@@A 00441868     MSVCRT:tncleanup.obj
 0003:00004870       ?_OptionsStorage@?1??__local_stdio_scanf_options@@9@4_KA 00441870     MSVCRT:default_local_stdio_options.obj
 0003:00004878       ___scrt_debugger_hook_flag 00441878     MSVCRT:utility_desktop.obj
 0003:0000487c       ___isa_available           0044187c     MSVCRT:_cpu_disp_.obj
 0003:00004880       ___favor                   00441880     MSVCRT:_cpu_disp_.obj
 0003:00004d68       ?_OptionsStorage@?1??__local_stdio_printf_options@@9@9 00441d68     <common>
 0003:00004d70       _PJ_NO_MEMORY_EXCEPTION    00441d70     <common>
 0003:00004d80       _bit_string                00441d80     <common>
 0003:00005180       _ctr_prng                  00442180     <common>
 0003:00005278       ___dyn_tls_dtor_callback   00442278     <common>
 0003:0000527c       ___dyn_tls_init_callback   0044227c     <common>

 entry point at        0001:0001e454

 Static symbols

 0002:fffdc000       .idata$6                   00400000     ucrt:api-ms-win-crt-utility-l1-1-0.dll
 0002:fffdc000       .idata$6                   00400000     ucrt:api-ms-win-crt-time-l1-1-0.dll
 0001:00000000       _app_perror                00401000 f   confsample.obj
 0001:0000042c       $LN67                      0040142c     confsample.obj
 0001:00000444       $LN64                      00401444     confsample.obj
 0001:000004d0       _conf_list                 004014d0 f   confsample.obj
 0001:00000660       _monitor_level             00401660 f   confsample.obj
 0001:00000810       _usage                     00401810 f   confsample.obj
 0001:00000830       _input                     00401830 f   confsample.obj
 0001:00001220       $LN119                     00402220     confsample.obj
 0001:00001240       $LN100                     00402240     confsample.obj
 0001:00001450       _create_conf_port          00402450 f   pjmedia-i386-win32-vc8-release:conference.obj
 0001:000016b0       _create_pasv_port          004026b0 f   pjmedia-i386-win32-vc8-release:conference.obj
 0001:00001720       _create_sound_port         00402720 f   pjmedia-i386-win32-vc8-release:conference.obj
 0001:00001840       _destroy_port              00402840 f   pjmedia-i386-win32-vc8-release:conference.obj
 0001:00001860       _get_frame                 00402860 f   pjmedia-i386-win32-vc8-release:conference.obj
 0001:000022a0       _pjmedia_convert_channel_1ton 004032a0 f   pjmedia-i386-win32-vc8-release:conference.obj
 0001:00002320       _pjmedia_convert_channel_nto1 00403320 f   pjmedia-i386-win32-vc8-release:conference.obj
 0001:00002400       _put_frame                 00403400 f   pjmedia-i386-win32-vc8-release:conference.obj
 0001:00002460       _read_port                 00403460 f   pjmedia-i386-win32-vc8-release:conference.obj
 0001:00002690       _write_port                00403690 f   pjmedia-i386-win32-vc8-release:conference.obj
 0001:00002d00       _worker_proc               00403d00 f   pjmedia-i386-win32-vc8-release:endpoint.obj
 0001:00002d50       _create_file_port          00403d50 f   pjmedia-i386-win32-vc8-release:wav_player.obj
 0001:00002dc0       _file_get_frame            00403dc0 f   pjmedia-i386-win32-vc8-release:wav_player.obj
 0001:00003010       _file_on_destroy           00404010 f   pjmedia-i386-win32-vc8-release:wav_player.obj
 0001:00003030       _fill_buffer               00404030 f   pjmedia-i386-win32-vc8-release:wav_player.obj
 0001:00003630       _file_get_frame            00404630 f   pjmedia-i386-win32-vc8-release:wav_writer.obj
 0001:00003640       _file_on_destroy           00404640 f   pjmedia-i386-win32-vc8-release:wav_writer.obj
 0001:00003790       _file_put_frame            00404790 f   pjmedia-i386-win32-vc8-release:wav_writer.obj
 0001:00003bc0       _pjmedia_circ_buf_get_write_regions 00404bc0 f   pjmedia-i386-win32-vc8-release:delaybuf.obj
 0001:00003bc0       _pjmedia_circ_buf_get_write_regions 00404bc0 f   pjmedia-i386-win32-vc8-release:wsola.obj
 0001:00003c40       _pjmedia_circ_buf_read     00404c40 f   pjmedia-i386-win32-vc8-release:delaybuf.obj
 0001:00003d20       _pjmedia_circ_buf_write    00404d20 f   pjmedia-i386-win32-vc8-release:delaybuf.obj
 0001:00003d20       _pjmedia_circ_buf_write    00404d20 f   pjmedia-i386-win32-vc8-release:wsola.obj
 0001:00004200       _shrink_buffer             00405200 f   pjmedia-i386-win32-vc8-release:delaybuf.obj
 0001:000042a0       _update                    004052a0 f   pjmedia-i386-win32-vc8-release:delaybuf.obj
 0001:00004da0       _play_cb                   00405da0 f   pjmedia-i386-win32-vc8-release:sound_port.obj
 0001:00004ec0       _play_cb_ext               00405ec0 f   pjmedia-i386-win32-vc8-release:sound_port.obj
 0001:00004f10       _rec_cb                    00405f10 f   pjmedia-i386-win32-vc8-release:sound_port.obj
 0001:00004f90       _rec_cb_ext                00405f90 f   pjmedia-i386-win32-vc8-release:sound_port.obj
 0001:00004fd0       _start_sound_device        00405fd0 f   pjmedia-i386-win32-vc8-release:sound_port.obj
 0001:00005520       _compress                  00406520 f   pjmedia-i386-win32-vc8-release:wsola.obj
 0001:00005610       _create_win                00406610 f   pjmedia-i386-win32-vc8-release:wsola.obj
 0001:000057a0       _expand                    004067a0 f   pjmedia-i386-win32-vc8-release:wsola.obj
 0001:00005920       _fade_in                   00406920 f   pjmedia-i386-win32-vc8-release:wsola.obj
 0001:000059e0       _find_pitch                004069e0 f   pjmedia-i386-win32-vc8-release:wsola.obj
 0001:00005c90       _overlapp_add              00406c90 f   pjmedia-i386-win32-vc8-release:wsola.obj
 0001:00005d00       _overlapp_add_simple       00406d00 f   pjmedia-i386-win32-vc8-release:wsola.obj
 0001:00005d90       _pjmedia_circ_buf_adv_read_ptr 00406d90 f   pjmedia-i386-win32-vc8-release:wsola.obj
 0001:00005d90       _pjmedia_circ_buf_adv_read_ptr 00406d90 f   pjmedia-i386-win32-vc8-release:delaybuf.obj
 0001:00005de0       _pjmedia_circ_buf_copy     00406de0 f   pjmedia-i386-win32-vc8-release:wsola.obj
 0001:00005e90       _pjmedia_circ_buf_create   00406e90 f   pjmedia-i386-win32-vc8-release:wsola.obj
 0001:00005e90       _pjmedia_circ_buf_create   00406e90 f   pjmedia-i386-win32-vc8-release:delaybuf.obj
 0001:00005ed0       _pjmedia_circ_buf_get_read_regions 00406ed0 f   pjmedia-i386-win32-vc8-release:wsola.obj
 0001:00005f40       _pjmedia_circ_buf_pack_buffer 00406f40 f   pjmedia-i386-win32-vc8-release:wsola.obj
 0001:00006800       _wsola_fade_out            00407800 f   pjmedia-i386-win32-vc8-release:wsola.obj
 0001:00006d30       _transport_get_info        00407d30 f   pjmedia-i386-win32-vc8-release:transport_srtp.obj
 0001:00006e20       _transport_attach          00407e20 f   pjmedia-i386-win32-vc8-release:transport_srtp.obj
 0001:00006ee0       _transport_detach          00407ee0 f   pjmedia-i386-win32-vc8-release:transport_srtp.obj
 0001:00006f40       _transport_send_rtp        00407f40 f   pjmedia-i386-win32-vc8-release:transport_srtp.obj
 0001:00007000       _transport_send_rtcp       00408000 f   pjmedia-i386-win32-vc8-release:transport_srtp.obj
 0001:00007020       _transport_send_rtcp2      00408020 f   pjmedia-i386-win32-vc8-release:transport_srtp.obj
 0001:000070f0       _transport_media_create    004080f0 f   pjmedia-i386-win32-vc8-release:transport_srtp.obj
 0001:000071e0       _transport_encode_sdp      004081e0 f   pjmedia-i386-win32-vc8-release:transport_srtp.obj
 0001:00007800       _transport_media_start     00408800 f   pjmedia-i386-win32-vc8-release:transport_srtp.obj
 0001:00007b70       _transport_media_stop      00408b70 f   pjmedia-i386-win32-vc8-release:transport_srtp.obj
 0001:00007bd0       _transport_simulate_lost   00408bd0 f   pjmedia-i386-win32-vc8-release:transport_srtp.obj
 0001:00007c00       _transport_destroy         00408c00 f   pjmedia-i386-win32-vc8-release:transport_srtp.obj
 0001:00007c70       _generate_crypto_attr_value 00408c70 f   pjmedia-i386-win32-vc8-release:transport_srtp.obj
 0001:00007f10       _get_crypto_idx            00408f10 f   pjmedia-i386-win32-vc8-release:transport_srtp.obj
 0001:00007f90       _parse_attr_crypto         00408f90 f   pjmedia-i386-win32-vc8-release:transport_srtp.obj
 0001:000089a0       _srtp_crypto_cmp           004099a0 f   pjmedia-i386-win32-vc8-release:transport_srtp.obj
 0001:000089e0       _srtp_rtcp_cb              004099e0 f   pjmedia-i386-win32-vc8-release:transport_srtp.obj
 0001:00008ae0       _srtp_rtp_cb               00409ae0 f   pjmedia-i386-win32-vc8-release:transport_srtp.obj
 0001:00009210       _echo_supp_update          0040a210 f   pjmedia-i386-win32-vc8-release:echo_suppress.obj
 0001:00009b20       __getopt_initialize        0040ab20 f   pjlib-util-i386-win32-vc8-release:getopt.obj
 0001:00009b80       __getopt_internal          0040ab80 f   pjlib-util-i386-win32-vc8-release:getopt.obj
 0001:0000a2d0       _exchange                  0040b2d0 f   pjlib-util-i386-win32-vc8-release:getopt.obj
 0001:0000a3c0       _my_index                  0040b3c0 f   pjlib-util-i386-win32-vc8-release:getopt.obj
 0001:0000a7b0       _init_mutex                0040b7b0 f   pjlib-i386-win32-vc8-release:os_core_win32.obj
 0001:0000af10       _pj_sem_wait_for           0040bf10 f   pjlib-i386-win32-vc8-release:os_core_win32.obj
 0001:0000b760       _thread_main@4             0040c760 f   pjlib-i386-win32-vc8-release:os_core_win32.obj
 0001:0000b9b0       _pjlib_error               0040c9b0 f   pjlib-i386-win32-vc8-release:errno.obj
 0001:0000bbd0       _pj_pool_create_block      0040cbd0 f   pjlib-i386-win32-vc8-release:pool.obj
 0001:0000be30       _reset_pool                0040ce30 f   pjlib-i386-win32-vc8-release:pool.obj
 0001:0000beb0       _cpool_create_pool         0040ceb0 f   pjlib-i386-win32-vc8-release:pool_caching.obj
 0001:0000bfe0       _cpool_dump_status         0040cfe0 f   pjlib-i386-win32-vc8-release:pool_caching.obj
 0001:0000c130       _cpool_on_block_alloc      0040d130 f   pjlib-i386-win32-vc8-release:pool_caching.obj
 0001:0000c150       _cpool_on_block_free       0040d150 f   pjlib-i386-win32-vc8-release:pool_caching.obj
 0001:0000c160       _cpool_release_pool        0040d160 f   pjlib-i386-win32-vc8-release:pool_caching.obj
 0001:0000c3d0       _logging_shutdown          0040d3d0 f   pjlib-i386-win32-vc8-release:log.obj
 0001:0000c9fc       $LN14                      0040d9fc     pjlib-i386-win32-vc8-release:log.obj
 0001:0000cab0       _default_block_alloc       0040dab0 f   pjlib-i386-win32-vc8-release:pool_policy_malloc.obj
 0001:0000cb10       _default_block_free        0040db10 f   pjlib-i386-win32-vc8-release:pool_policy_malloc.obj
 0001:0000cb50       _default_pool_callback     0040db50 f   pjlib-i386-win32-vc8-release:pool_policy_malloc.obj
 0001:0000cb70       _pj_memcmp                 0040db70 f   pjlib-i386-win32-vc8-release:string.obj
 0001:0000d570       ?decrement_counter@@YAXPAUpj_ioqueue_key_t@@@Z 0040e570 f   pjlib-i386-win32-vc8-release:ioqueue_select.obj
 0001:0000d600       ?increment_counter@@YAXPAUpj_ioqueue_key_t@@@Z 0040e600 f   pjlib-i386-win32-vc8-release:ioqueue_select.obj
 0001:0000dc40       ?scan_closing_keys@@YAXPAUpj_ioqueue_t@@@Z 0040ec40 f   pjlib-i386-win32-vc8-release:ioqueue_select.obj
 0001:0000e690       _create_mutex_lock         0040f690 f   pjlib-i386-win32-vc8-release:lock.obj
 0001:0000e700       _grp_lock_acquire          0040f700 f   pjlib-i386-win32-vc8-release:lock.obj
 0001:0000e770       _grp_lock_destroy          0040f770 f   pjlib-i386-win32-vc8-release:lock.obj
 0001:0000e820       _grp_lock_release          0040f820 f   pjlib-i386-win32-vc8-release:lock.obj
 0001:0000eca0       _guid_to_str               0040fca0 f   pjlib-i386-win32-vc8-release:guid_win32.obj
 0001:0000ef30       _pool_buf_cleanup          0040ff30 f   pjlib-i386-win32-vc8-release:pool_buf.obj
 0001:0000ef60       _stack_alloc               0040ff60 f   pjlib-i386-win32-vc8-release:pool_buf.obj
 0001:0000f1f0       _FilterUD                  004101f0 f   libresample-i386-win32-vc8-release:resamplesubs.obj
 0001:0000f300       _FilterUp                  00410300 f   libresample-i386-win32-vc8-release:resamplesubs.obj
 0001:0000f410       _SrcLinear                 00410410 f   libresample-i386-win32-vc8-release:resamplesubs.obj
 0001:0000f500       _SrcUD                     00410500 f   libresample-i386-win32-vc8-release:resamplesubs.obj
 0001:0000f660       _SrcUp                     00410660 f   libresample-i386-win32-vc8-release:resamplesubs.obj
 0001:0000f8e0       _mdf_adjust_prop           004108e0 f   libspeex-i386-win32-vc8-release:mdf.obj
 0001:0000fb50       _spectral_mul_accum        00410b50 f   libspeex-i386-win32-vc8-release:mdf.obj
 0001:00012060       _weighted_spectral_mul_conj 00413060 f   libspeex-i386-win32-vc8-release:mdf.obj
 0001:00012190       _compute_gain_floor        00413190 f   libspeex-i386-win32-vc8-release:preprocess.obj
 0001:000123a0       _conj_window               004133a0 f   libspeex-i386-win32-vc8-release:preprocess.obj
 0001:000124a0       _preprocess_analysis       004134a0 f   libspeex-i386-win32-vc8-release:preprocess.obj
 0001:000127c0       _speex_compute_agc         004137c0 f   libspeex-i386-win32-vc8-release:preprocess.obj
 0001:00013188       $LN100                     00414188     libspeex-i386-win32-vc8-release:preprocess.obj
 0001:00015400       _update_noise_prob         00416400 f   libspeex-i386-win32-vc8-release:preprocess.obj
 0001:00016060       _dradb2                    00417060 f   libspeex-i386-win32-vc8-release:smallft.obj
 0001:00016270       _dradb3                    00417270 f   libspeex-i386-win32-vc8-release:smallft.obj
 0001:00016560       _dradb4                    00417560 f   libspeex-i386-win32-vc8-release:smallft.obj
 0001:00016a30       _dradbg                    00417a30 f   libspeex-i386-win32-vc8-release:smallft.obj
 0001:00017820       _dradf2                    00418820 f   libspeex-i386-win32-vc8-release:smallft.obj
 0001:00017a50       _dradf4                    00418a50 f   libspeex-i386-win32-vc8-release:smallft.obj
 0001:00017eb0       _dradfg                    00418eb0 f   libspeex-i386-win32-vc8-release:smallft.obj
 0001:00018de0       _drftb1                    00419de0 f   libspeex-i386-win32-vc8-release:smallft.obj
 0001:00018fe0       _drftf1                    00419fe0 f   libspeex-i386-win32-vc8-release:smallft.obj
 0001:000191d0       _drfti1                    0041a1d0 f   libspeex-i386-win32-vc8-release:smallft.obj
 0001:00019580       _be64_to_cpu               0041a580 f   libsrtp-i386-win32-vc8-release:srtp.obj
 0001:000198e0       $LN12                      0041a8e0     libsrtp-i386-win32-vc8-release:srtp.obj
 0001:0001b660       _aes_icm_advance_ismacryp  0041c660 f   libsrtp-i386-win32-vc8-release:aes_icm.obj
 0001:0001d200       _aes_final_round           0041e200 f   libsrtp-i386-win32-vc8-release:aes.obj
 0001:0001d300       _aes_inv_final_round       0041e300 f   libsrtp-i386-win32-vc8-release:aes.obj
 0001:0001d400       _aes_inv_round             0041e400 f   libsrtp-i386-win32-vc8-release:aes.obj
 0001:0001d4f0       _aes_round                 0041e4f0 f   libsrtp-i386-win32-vc8-release:aes.obj
 0001:0001e0ec       $LN111                     0041f0ec     libsrtp-i386-win32-vc8-release:sha1.obj
 0001:0001e227       ?pre_c_initialization@@YAHXZ 0041f227 f   MSVCRT:exe_main.obj
 0001:0001e2cb       ?post_pgo_initialization@@YAHXZ 0041f2cb f   MSVCRT:exe_main.obj
 0001:0001e2d3       ?pre_cpp_initialization@@YAXXZ 0041f2d3 f   MSVCRT:exe_main.obj
 0001:0001e2e5       ?__scrt_common_main_seh@@YAHXZ 0041f2e5 f   MSVCRT:exe_main.obj
 0001:0001e460       $$000000                   0041f460     MSVCRT:ulldiv.obj
 0001:0001e4d0       $$000000                   0041f4d0     MSVCRT:llmul.obj
 0001:0001e510       $$000000                   0041f510     MSVCRT:_ftol3_.obj
 0001:0001e890       $$000000                   0041f890     MSVCRT:lldiv.obj
 0001:0001e940       $$000000                   0041f940     MSVCRT:_svml_dcos2_dispatch_.obj
 0001:0001eb50       $$000000                   0041fb50     MSVCRT:llshl.obj
 0001:0001eb70       $$000000                   0041fb70     MSVCRT:_ftol2_.obj
 0001:0001ec25       ?find_pe_section@@YAPAU_IMAGE_SECTION_HEADER@@QAEI@Z 0041fc25 f   MSVCRT:utility.obj
 0001:0001ef30       _null_op                   0041ff30 f   pjlib-i386-win32-vc8-release:lock.obj
 0001:0001f1b0       $$000000                   004201b0     MSVCRT:_sehprolg4_.obj
 0001:0001f230       $$000000                   00420230     MSVCRT:_svml_dcos2_sse2_.obj
 0001:0001f590       $$000000                   00420590     MSVCRT:_svml_dtrig_.obj
 0001:0001f880       ___common_srl              00420880 f   MSVCRT:_svml_dtrig_.obj
 0001:0001f8b0       ___common_sll              004208b0 f   MSVCRT:_svml_dtrig_.obj
 0001:00020040       _init_driver               00421040 f   pjmedia-audiodev-i386-win32-vc8-release:audiodev.obj
 0001:000202c0       _lookup_dev                004212c0 f   pjmedia-audiodev-i386-win32-vc8-release:audiodev.obj
 0001:000203b0       _make_global_index         004213b0 f   pjmedia-audiodev-i386-win32-vc8-release:audiodev.obj
 0001:00020a40       _factory_init              00421a40 f   pjmedia-audiodev-i386-win32-vc8-release:wmme_dev.obj
 0001:00020a80       _factory_destroy           00421a80 f   pjmedia-audiodev-i386-win32-vc8-release:wmme_dev.obj
 0001:00020ab0       _factory_refresh           00421ab0 f   pjmedia-audiodev-i386-win32-vc8-release:wmme_dev.obj
 0001:00020d60       _factory_get_dev_count     00421d60 f   pjmedia-audiodev-i386-win32-vc8-release:wmme_dev.obj
 0001:00020d70       _factory_get_dev_info      00421d70 f   pjmedia-audiodev-i386-win32-vc8-release:wmme_dev.obj
 0001:00020db0       _factory_default_param     00421db0 f   pjmedia-audiodev-i386-win32-vc8-release:wmme_dev.obj
 0001:00020e80       _factory_create_stream     00421e80 f   pjmedia-audiodev-i386-win32-vc8-release:wmme_dev.obj
 0001:000210e0       _stream_get_param          004220e0 f   pjmedia-audiodev-i386-win32-vc8-release:wmme_dev.obj
 0001:00021160       _stream_get_cap            00422160 f   pjmedia-audiodev-i386-win32-vc8-release:wmme_dev.obj
 0001:000211f0       _stream_set_cap            004221f0 f   pjmedia-audiodev-i386-win32-vc8-release:wmme_dev.obj
 0001:00021280       _stream_start              00422280 f   pjmedia-audiodev-i386-win32-vc8-release:wmme_dev.obj
 0001:00021300       _stream_stop               00422300 f   pjmedia-audiodev-i386-win32-vc8-release:wmme_dev.obj
 0001:00021390       _stream_destroy            00422390 f   pjmedia-audiodev-i386-win32-vc8-release:wmme_dev.obj
 0001:00021500       _build_dev_info            00422500 f   pjmedia-audiodev-i386-win32-vc8-release:wmme_dev.obj
 0001:00021680       _init_capture_stream       00422680 f   pjmedia-audiodev-i386-win32-vc8-release:wmme_dev.obj
 0001:000218a0       _init_player_stream        004228a0 f   pjmedia-audiodev-i386-win32-vc8-release:wmme_dev.obj
 0001:00021ae0       _init_waveformatex         00422ae0 f   pjmedia-audiodev-i386-win32-vc8-release:wmme_dev.obj
 0001:00021bc0       _pjmedia_frame_ext_append_subframe 00422bc0 f   pjmedia-audiodev-i386-win32-vc8-release:wmme_dev.obj
 0001:00021c20       _pjmedia_frame_ext_copy_payload 00422c20 f   pjmedia-audiodev-i386-win32-vc8-release:wmme_dev.obj
 0001:00021cf0       _wmme_dev_thread           00422cf0 f   pjmedia-audiodev-i386-win32-vc8-release:wmme_dev.obj
 0002:00000288       ?pre_cpp_initializer@@3P6AXXZA 00424288     MSVCRT:exe_main.obj
 0002:00000294       ?pre_c_initializer@@3P6AHXZA 00424294     MSVCRT:exe_main.obj
 0002:00000298       ?post_pgo_initializer@@3P6AHXZA 00424298     MSVCRT:exe_main.obj
 0002:000003d0       _STR_RTP_AVP               004243d0     pjmedia-i386-win32-vc8-release:endpoint.obj
 0002:000003d8       _STR_IN                    004243d8     pjmedia-i386-win32-vc8-release:endpoint.obj
 0002:000003e0       _STR_IP4                   004243e0     pjmedia-i386-win32-vc8-release:endpoint.obj
 0002:000003e8       _STR_IP6                   004243e8     pjmedia-i386-win32-vc8-release:endpoint.obj
 0002:000003f0       _STR_SDP_NAME              004243f0     pjmedia-i386-win32-vc8-release:endpoint.obj
 0002:000003f8       _STR_SENDRECV              004243f8     pjmedia-i386-win32-vc8-release:endpoint.obj
 0002:00008c54       ?ID_RTP_AVP@?1??pjmedia_sdp_transport_cmp@@9@9 0042cc54     pjmedia-i386-win32-vc8-release:sdp.obj
 0002:00008c5c       ?ID_RTP_SAVP@?1??pjmedia_sdp_transport_cmp@@9@9 0042cc5c     pjmedia-i386-win32-vc8-release:sdp.obj
 0002:00008c80       _err_str                   0042cc80     pjmedia-i386-win32-vc8-release:errno.obj
 0002:0000a824       _ID_RTP_AVP                0042e824     pjmedia-i386-win32-vc8-release:transport_srtp.obj
 0002:0000a82c       _ID_RTP_SAVP               0042e82c     pjmedia-i386-win32-vc8-release:transport_srtp.obj
 0002:0000a834       _ID_INACTIVE               0042e834     pjmedia-i386-win32-vc8-release:transport_srtp.obj
 0002:0000a83c       _ID_CRYPTO                 0042e83c     pjmedia-i386-win32-vc8-release:transport_srtp.obj
 0002:0000af60       _base64_char               0042ef60     pjlib-util-i386-win32-vc8-release:base64.obj
 0002:0000b060       _err_str                   0042f060     pjlib-i386-win32-vc8-release:errno.obj
 0002:0000b800       _gaErrorList               0042f800     pjlib-i386-win32-vc8-release:os_error_win32.obj
 0002:0000c1d8       _SMALL_FILTER_IMP          004301d8     libresample-i386-win32-vc8-release:resamplesubs.obj
 0002:0000cdd8       _SMALL_FILTER_IMPD         00430dd8     libresample-i386-win32-vc8-release:resamplesubs.obj
 0002:0000e5d8       _LARGE_FILTER_IMP          004325d8     libresample-i386-win32-vc8-release:resamplesubs.obj
 0002:000125d8       _LARGE_FILTER_IMPD         004365d8     libresample-i386-win32-vc8-release:resamplesubs.obj
 0002:00016890       ?table@?1??hypergeom_gain@@9@9 0043a890     libspeex-i386-win32-vc8-release:preprocess.obj
 0002:00017240       _Int32ToUInt32             0043b240     MSVCRT:_ftol3_.obj
 0002:00017248       _DP2to32                   0043b248     MSVCRT:_ftol3_.obj
 0002:00017250       _MantissaMask              0043b250     MSVCRT:_ftol3_.obj
 0002:00017258       _IntegerBit                0043b258     MSVCRT:_ftol3_.obj
 0002:00017260       _SignBit64                 0043b260     MSVCRT:_ftol3_.obj
 0002:00017268       _MinFP64                   0043b268     MSVCRT:_ftol3_.obj
 0002:00017270       _MinInt64                  0043b270     MSVCRT:_ftol3_.obj
 0002:00017278       _MaxInt64                  0043b278     MSVCRT:_ftol3_.obj
 0002:00017280       _MaxUInt64                 0043b280     MSVCRT:_ftol3_.obj
 0002:00017288       _MaxFP32                   0043b288     MSVCRT:_ftol3_.obj
 0002:00017290       _MinFP32                   0043b290     MSVCRT:_ftol3_.obj
 0002:00017298       _MinSubInexact             0043b298     MSVCRT:_ftol3_.obj
 0002:000172a0       _FpExcptTable              0043b2a0     MSVCRT:_ftol3_.obj
 0002:000172b0       _i1075                     0043b2b0     MSVCRT:_ftol3_.obj
 0002:000172b4       _i1087                     0043b2b4     MSVCRT:_ftol3_.obj
 0002:000172b8       _x0800                     0043b2b8     MSVCRT:_ftol3_.obj
 0002:000172bc       _x17FF                     0043b2bc     MSVCRT:_ftol3_.obj
 0002:000172c0       _CWMask                    0043b2c0     MSVCRT:_ftol3_.obj
 0002:000172c4       _GS_ExceptionPointers      0043b2c4     MSVCRT:gs_report.obj
 0002:000174f8       _err_str                   0043b4f8     pjmedia-audiodev-i386-win32-vc8-release:errno.obj
 0002:00017d58       __sehtable$?__scrt_common_main_seh@@YAHXZ 0043bd58     MSVCRT:exe_main.obj
 0002:00017d78       __sehtable$___scrt_is_nonwritable_in_current_image 0043bd78     MSVCRT:utility.obj
 0002:00018128       .idata$6                   0043c128     ole32:ole32.dll
 0002:00018132       .idata$6                   0043c132     ws2_32:WS2_32.dll
 0002:0001848c       .idata$6                   0043c48c     kernel32:KERNEL32.dll
 0002:000184e6       .idata$6                   0043c4e6     vcruntime:VCRUNTIME140.dll
 0002:00018894       .idata$6                   0043c894     ucrt:api-ms-win-crt-stdio-l1-1-0.dll
 0002:000188b4       .idata$6                   0043c8b4     ucrt:api-ms-win-crt-convert-l1-1-0.dll
 0002:000188d6       .idata$6                   0043c8d6     ucrt:api-ms-win-crt-string-l1-1-0.dll
 0002:000188f8       .idata$6                   0043c8f8     ucrt:api-ms-win-crt-math-l1-1-0.dll
 0002:00018918       .idata$6                   0043c918     ucrt:api-ms-win-crt-heap-l1-1-0.dll
 0002:00018938       .idata$6                   0043c938     ucrt:api-ms-win-crt-runtime-l1-1-0.dll
 0002:0001895a       .idata$6                   0043c95a     ucrt:api-ms-win-crt-locale-l1-1-0.dll
 0002:00018b56       .idata$6                   0043cb56     winmm:WINMM.dll
 0003:00000000       $SG20906                   0043d000     confsample.obj
 0003:00000014       $SG20953                   0043d014     confsample.obj
 0003:00000018       $SG20954                   0043d018     confsample.obj
 0003:0000001c       $SG20955                   0043d01c     confsample.obj
 0003:00000024       $SG20956                   0043d024     confsample.obj
 0003:0000002c       $SG20957                   0043d02c     confsample.obj
 0003:00000034       $SG20958                   0043d034     confsample.obj
 0003:0000003c       $SG20959                   0043d03c     confsample.obj
 0003:00000044       $SG20960                   0043d044     confsample.obj
 0003:0000004c       $SG20961                   0043d04c     confsample.obj
 0003:00000050       $SG20962                   0043d050     confsample.obj
 0003:00000054       $SG20963                   0043d054     confsample.obj
 0003:00000060       $SG19942                   0043d060     confsample.obj
 0003:00000074       $SG20967                   0043d074     confsample.obj
 0003:00000098       $SG19943                   0043d098     confsample.obj
 0003:000000ac       $SG20971                   0043d0ac     confsample.obj
 0003:000000d0       $SG20975                   0043d0d0     confsample.obj
 0003:000000f0       $SG20979                   0043d0f0     confsample.obj
 0003:00000114       $SG20983                   0043d114     confsample.obj
 0003:0000013c       $SG20986                   0043d13c     confsample.obj
 0003:00000158       $SG21004                   0043d158     confsample.obj
 0003:00000188       _desc                      0043d188     confsample.obj
 0003:0000018c       $SG21117                   0043d18c     confsample.obj
 0003:00000190       $SG21006                   0043d190     confsample.obj
 0003:000006e4       $SG21039                   0043d6e4     confsample.obj
 0003:000006fc       $SG21115                   0043d6fc     confsample.obj
 0003:0000070c       $SG21119                   0043d70c     confsample.obj
 0003:00000730       $SG21120                   0043d730     confsample.obj
 0003:00000740       $SG21121                   0043d740     confsample.obj
 0003:00000750       $SG21123                   0043d750     confsample.obj
 0003:0000076c       $SG21124                   0043d76c     confsample.obj
 0003:0000077c       $SG21126                   0043d77c     confsample.obj
 0003:00000790       $SG21127                   0043d790     confsample.obj
 0003:000007a0       $SG21129                   0043d7a0     confsample.obj
 0003:000007c0       $SG21130                   0043d7c0     confsample.obj
 0003:000007d0       $SG21131                   0043d7d0     confsample.obj
 0003:000007e0       $SG21134                   0043d7e0     confsample.obj
 0003:000007e8       $SG21135                   0043d7e8     confsample.obj
 0003:00000804       $SG21136                   0043d804     confsample.obj
 0003:00000828       $SG21137                   0043d828     confsample.obj
 0003:0000084c       $SG21138                   0043d84c     confsample.obj
 0003:00000884       $SG21139                   0043d884     confsample.obj
 0003:000008bc       $SG21140                   0043d8bc     confsample.obj
 0003:000008ec       $SG14996                   0043d8ec     confsample.obj
 0003:000008fc       $SG21141                   0043d8fc     confsample.obj
 0003:00000908       $SG21143                   0043d908     confsample.obj
 0003:0000091c       $SG21149                   0043d91c     confsample.obj
 0003:00000944       $SG21151                   0043d944     confsample.obj
 0003:00000960       $SG21154                   0043d960     confsample.obj
 0003:00000974       $SG21156                   0043d974     confsample.obj
 0003:00000994       $SG21159                   0043d994     confsample.obj
 0003:000009a8       $SG21161                   0043d9a8     confsample.obj
 0003:000009c0       $SG21162                   0043d9c0     confsample.obj
 0003:000009d0       $SG21165                   0043d9d0     confsample.obj
 0003:000009ec       $SG21167                   0043d9ec     confsample.obj
 0003:00000a08       $SG21170                   0043da08     confsample.obj
 0003:00000a1c       $SG21172                   0043da1c     confsample.obj
 0003:00000a3c       $SG21175                   0043da3c     confsample.obj
 0003:00000a50       $SG21177                   0043da50     confsample.obj
 0003:00000a68       $SG21178                   0043da68     confsample.obj
 0003:00000a78       $SG21181                   0043da78     confsample.obj
 0003:00000a98       $SG21183                   0043da98     confsample.obj
 0003:00000aac       $SG21186                   0043daac     confsample.obj
 0003:00000ac0       $SG21188                   0043dac0     confsample.obj
 0003:00000aec       $SG21191                   0043daec     confsample.obj
 0003:00000afc       $SG21193                   0043dafc     confsample.obj
 0003:00000b14       $SG21194                   0043db14     confsample.obj
 0003:00000b24       $SG21197                   0043db24     confsample.obj
 0003:00000b44       $SG21199                   0043db44     confsample.obj
 0003:00000b58       $SG21202                   0043db58     confsample.obj
 0003:00000b6c       $SG21204                   0043db6c     confsample.obj
 0003:00000b98       $SG21207                   0043db98     confsample.obj
 0003:00000ba8       $SG21209                   0043dba8     confsample.obj
 0003:00000bc0       $SG21210                   0043dbc0     confsample.obj
 0003:00000bd0       $SG21213                   0043dbd0     confsample.obj
 0003:00000be4       $SG21215                   0043dbe4     confsample.obj
 0003:00000c04       $SG21218                   0043dc04     confsample.obj
 0003:00000c18       $SG21220                   0043dc18     confsample.obj
 0003:00000c40       $SG21222                   0043dc40     confsample.obj
 0003:00000c50       $SG21224                   0043dc50     confsample.obj
 0003:00000c74       $SG21226                   0043dc74     confsample.obj
 0003:00000c8c       $SG21229                   0043dc8c     confsample.obj
 0003:00000cac       $SG21259                   0043dcac     confsample.obj
 0003:00000cc0       $SG21260                   0043dcc0     confsample.obj
 0003:00000cc8       $SG21264                   0043dcc8     confsample.obj
 0003:00000cf4       $SG21300                   0043dcf4     confsample.obj
 0003:00000d2c       $SG21305                   0043dd2c     confsample.obj
 0003:00000d50       $SG21265                   0043dd50     confsample.obj
 0003:00000e54       $SG21302                   0043de54     confsample.obj
 0003:00000e6c       $SG21303                   0043de6c     confsample.obj
 0003:00000e84       _echo_supp_op              0043de84     pjmedia-i386-win32-vc8-release:echo_common.obj
 0003:00000ea0       _speex_aec_op              0043dea0     pjmedia-i386-win32-vc8-release:echo_common.obj
 0003:00000ec0       _crypto_suites             0043dec0     pjmedia-i386-win32-vc8-release:transport_srtp.obj
 0003:00000f20       _transport_srtp_op         0043df20     pjmedia-i386-win32-vc8-release:transport_srtp.obj
 0003:00000f50       ?liberr@?1??get_libsrtp_errstr@@9@9 0043df50     pjmedia-i386-win32-vc8-release:transport_srtp.obj
 0003:00000fbc       _thread_tls_id             0043dfbc     pjlib-i386-win32-vc8-release:os_core_win32.obj
 0003:00000fc0       _pool_sizes                0043dfc0     pjlib-i386-win32-vc8-release:pool_caching.obj
 0003:00001000       _thread_suspended_tls_id   0043e000     pjlib-i386-win32-vc8-release:log.obj
 0003:00001004       _thread_indent_tls_id      0043e004     pjlib-i386-win32-vc8-release:log.obj
 0003:00001008       _pj_log_max_level          0043e008     pjlib-i386-win32-vc8-release:log.obj
 0003:0000100c       _log_writer                0043e00c     pjlib-i386-win32-vc8-release:log.obj
 0003:00001010       _log_decor                 0043e010     pjlib-i386-win32-vc8-release:log.obj
 0003:00001014       _PJ_LOG_COLOR_0            0043e014     pjlib-i386-win32-vc8-release:log.obj
 0003:00001018       _PJ_LOG_COLOR_1            0043e018     pjlib-i386-win32-vc8-release:log.obj
 0003:0000101c       _PJ_LOG_COLOR_2            0043e01c     pjlib-i386-win32-vc8-release:log.obj
 0003:00001020       _PJ_LOG_COLOR_3            0043e020     pjlib-i386-win32-vc8-release:log.obj
 0003:00001024       _PJ_LOG_COLOR_4            0043e024     pjlib-i386-win32-vc8-release:log.obj
 0003:00001028       _PJ_LOG_COLOR_5            0043e028     pjlib-i386-win32-vc8-release:log.obj
 0003:0000102c       _PJ_LOG_COLOR_6            0043e02c     pjlib-i386-win32-vc8-release:log.obj
 0003:00001030       _PJ_LOG_COLOR_77           0043e030     pjlib-i386-win32-vc8-release:log.obj
 0003:00001034       ?ltexts@?2??pj_log@@9@9    0043e034     pjlib-i386-win32-vc8-release:log.obj
 0003:00001050       ?wdays@?3??pj_log@@9@9     0043e050     pjlib-i386-win32-vc8-release:log.obj
 0003:0000107c       _null_lock_template        0043e07c     pjlib-i386-win32-vc8-release:lock.obj
 0003:00001090       _sem_lock_template         0043e090     pjlib-i386-win32-vc8-release:lock.obj
 0003:000010a4       _mutex_lock_template       0043e0a4     pjlib-i386-win32-vc8-release:lock.obj
 0003:000010b8       _thread_local_id           0043e0b8     pjlib-i386-win32-vc8-release:except.obj
 0003:000010bc       ?hex@?1??hex2digit@@9@9    0043e0bc     pjlib-i386-win32-vc8-release:guid_win32.obj
 0003:000010d0       _id                        0043e0d0     pjlib-i386-win32-vc8-release:config.obj
 0003:000010d4       _tls                       0043e0d4     pjlib-i386-win32-vc8-release:pool_buf.obj
 0003:000010d8       ?ntryh@?1??drfti1@@9@9     0043e0d8     libspeex-i386-win32-vc8-release:smallft.obj
 0003:000010e8       ?tpi@?1??drfti1@@9@9       0043e0e8     libspeex-i386-win32-vc8-release:smallft.obj
 0003:000010ec       ?hsqt2@?1??dradf4@@9@9     0043e0ec     libspeex-i386-win32-vc8-release:smallft.obj
 0003:000010f0       ?tpi@?1??dradfg@@9@9       0043e0f0     libspeex-i386-win32-vc8-release:smallft.obj
 0003:000010f4       ?taur@?1??dradb3@@9@9      0043e0f4     libspeex-i386-win32-vc8-release:smallft.obj
 0003:000010f8       ?taui@?1??dradb3@@9@9      0043e0f8     libspeex-i386-win32-vc8-release:smallft.obj
 0003:000010fc       ?sqrt2@?1??dradb4@@9@9     0043e0fc     libspeex-i386-win32-vc8-release:smallft.obj
 0003:00001100       ?tpi@?1??dradbg@@9@9       0043e100     libspeex-i386-win32-vc8-release:smallft.obj
 0003:00001114       _srtp_event_handler        0043e114     libsrtp-i386-win32-vc8-release:srtp.obj
 0003:00001124       _dev_random_fdes           0043e124     libsrtp-i386-win32-vc8-release:rand_source.obj
 0003:00001938       _T0                        0043e938     libsrtp-i386-win32-vc8-release:aes.obj
 0003:00001d38       _T1                        0043ed38     libsrtp-i386-win32-vc8-release:aes.obj
 0003:00002138       _T2                        0043f138     libsrtp-i386-win32-vc8-release:aes.obj
 0003:00002538       _T3                        0043f538     libsrtp-i386-win32-vc8-release:aes.obj
 0003:00002938       _U0                        0043f938     libsrtp-i386-win32-vc8-release:aes.obj
 0003:00002d38       _U1                        0043fd38     libsrtp-i386-win32-vc8-release:aes.obj
 0003:00003138       _U2                        00440138     libsrtp-i386-win32-vc8-release:aes.obj
 0003:00003538       _U3                        00440538     libsrtp-i386-win32-vc8-release:aes.obj
 0003:00003938       _aes_sbox                  00440938     libsrtp-i386-win32-vc8-release:aes.obj
 0003:00003a38       _aes_inv_sbox              00440a38     libsrtp-i386-win32-vc8-release:aes.obj
 0003:00003b90       _cap_infos                 00440b90     pjmedia-audiodev-i386-win32-vc8-release:audiodev.obj
 0003:00003c00       _factory_op                00440c00     pjmedia-audiodev-i386-win32-vc8-release:wmme_dev.obj
 0003:00003c1c       _stream_op                 00440c1c     pjmedia-audiodev-i386-win32-vc8-release:wmme_dev.obj
 0003:00003c40       $SG21024                   00440c40     confsample.obj
 0003:00003c41       $SG21132                   00440c41     confsample.obj
 0003:00003c42       $SG21133                   00440c42     confsample.obj
 0003:00003c43       $SG21142                   00440c43     confsample.obj
 0003:00003c44       $SG21146                   00440c44     confsample.obj
 0003:00003c45       $SG21148                   00440c45     confsample.obj
 0003:00003c46       $SG21164                   00440c46     confsample.obj
 0003:00003c47       $SG21180                   00440c47     confsample.obj
 0003:00003c48       $SG21196                   00440c48     confsample.obj
 0003:00003c49       $SG21212                   00440c49     confsample.obj
 0003:00003c4a       $SG21266                   00440c4a     confsample.obj
 0003:00003c4b       $SG21299                   00440c4b     confsample.obj
 0003:00003c4c       $SG21306                   00440c4c     confsample.obj
 0003:00003c50       _is_initialized            00440c50     pjmedia-i386-win32-vc8-release:sdp.obj
 0003:00003c58       _cis_buf                   00440c58     pjmedia-i386-win32-vc8-release:sdp.obj
 0003:0000405c       _cs_digit                  0044105c     pjmedia-i386-win32-vc8-release:sdp.obj
 0003:00004064       _cs_token                  00441064     pjmedia-i386-win32-vc8-release:sdp.obj
 0003:0000406c       ?msg@?3??get_libsrtp_errstr@@9@9 0044106c     pjmedia-i386-win32-vc8-release:transport_srtp.obj
 0003:0000408c       _libsrtp_initialized       0044108c     pjmedia-i386-win32-vc8-release:transport_srtp.obj
 0003:00004094       ___getopt_initialized      00441094     pjlib-util-i386-win32-vc8-release:getopt.obj
 0003:00004098       _nextchar                  00441098     pjlib-util-i386-win32-vc8-release:getopt.obj
 0003:0000409c       _ordering                  0044109c     pjlib-util-i386-win32-vc8-release:getopt.obj
 0003:000040a0       _posixly_correct           004410a0     pjlib-util-i386-win32-vc8-release:getopt.obj
 0003:000040a4       _first_nonopt              004410a4     pjlib-util-i386-win32-vc8-release:getopt.obj
 0003:000040a8       _last_nonopt               004410a8     pjlib-util-i386-win32-vc8-release:getopt.obj
 0003:000040b0       _initialized               004410b0     pjlib-i386-win32-vc8-release:os_core_win32.obj
 0003:000040b4       _atexit_count              004410b4     pjlib-i386-win32-vc8-release:os_core_win32.obj
 0003:000040b8       _main_thread               004410b8     pjlib-i386-win32-vc8-release:os_core_win32.obj
 0003:000041b8       _critical_section_mutex    004411b8     pjlib-i386-win32-vc8-release:os_core_win32.obj
 0003:000041f0       _atexit_func               004411f0     pjlib-i386-win32-vc8-release:os_core_win32.obj
 0003:00004270       _err_msg_hnd_cnt           00441270     pjlib-i386-win32-vc8-release:errno.obj
 0003:00004278       _err_msg_hnd               00441278     pjlib-i386-win32-vc8-release:errno.obj
 0003:000042f0       _g_last_thread             004412f0     pjlib-i386-win32-vc8-release:log.obj
 0003:000042f8       ?buf@?1??pj_gethostname@@9@9 004412f8     pjlib-i386-win32-vc8-release:sock_bsd.obj
 0003:00004378       ?hostname@?1??pj_gethostname@@9@9 00441378     pjlib-i386-win32-vc8-release:sock_bsd.obj
 0003:00004380       _base_time                 00441380     pjlib-i386-win32-vc8-release:os_time_win32.obj
 0003:00004388       _exception_id_names        00441388     pjlib-i386-win32-vc8-release:except.obj
 0003:000043c8       ?unknown_name@?1??pj_exception_id_name@@9@9 004413c8     pjlib-i386-win32-vc8-release:except.obj
 0003:000043e8       _stack_based_factory       004413e8     pjlib-i386-win32-vc8-release:pool_buf.obj
 0003:0000440c       _is_initialized            0044140c     pjlib-i386-win32-vc8-release:pool_buf.obj
 0003:00004410       _s_hDLL                    00441410     pjlib-i386-win32-vc8-release:ip_helper_win32.obj
 0003:00004414       _s_pfnGetIpAddrTable       00441414     pjlib-i386-win32-vc8-release:ip_helper_win32.obj
 0003:00004418       _s_pfnGetAdapterAddresses  00441418     pjlib-i386-win32-vc8-release:ip_helper_win32.obj
 0003:0000441c       _s_pfnGetIpForwardTable    0044141c     pjlib-i386-win32-vc8-release:ip_helper_win32.obj
 0003:00004420       _s_pfnGetIfEntry           00441420     pjlib-i386-win32-vc8-release:ip_helper_win32.obj
 0003:00004528       _GS_ExceptionRecord        00441528     MSVCRT:gs_report.obj
 0003:00004578       _GS_ContextRecord          00441578     MSVCRT:gs_report.obj
 0003:0000484c       ?module_local_atexit_table@@3U_onexit_table_t@@A 0044184c     MSVCRT:utility.obj
 0003:00004858       ?module_local_at_quick_exit_table@@3U_onexit_table_t@@A 00441858     MSVCRT:utility.obj
 0003:00004864       ?is_initialized_as_dll@@3_NA 00441864     MSVCRT:utility.obj
 0003:00004888       _aud_subsys                00441888     pjmedia-audiodev-i386-win32-vc8-release:audiodev.obj
 0003:00004d58       ?name@?1??get_fmt_name@@9@9 00441d58     pjmedia-audiodev-i386-win32-vc8-release:wmme_dev.obj
 0003:00004d60       ?rec_cnt@?1??wmme_dev_thread@@9@9 00441d60     pjmedia-audiodev-i386-win32-vc8-release:wmme_dev.obj
 0003:00004d64       ?play_cnt@?1??wmme_dev_thread@@9@9 00441d64     pjmedia-audiodev-i386-win32-vc8-release:wmme_dev.obj
 0004:00000000       __guard_fids__             00443000     MSVCRT:exe_main.obj
 0004:00000004       __guard_fids__             00443004     MSVCRT:exe_main.obj
 0004:00000008       __guard_fids__             00443008     MSVCRT:exe_main.obj
 0004:0000000c       __guard_fids_?pre_c_initialization@@YAHXZ 0044300c     MSVCRT:exe_main.obj
 0004:00000014       __guard_fids____scrt_set_unhandled_exception_filter 00443014     MSVCRT:utility_desktop.obj
 0004:00000018       __guard_fids___except_handler4 00443018     MSVCRT:_chandler4gs_.obj
 0004:0000001c       __guard_fids__             0044301c     MSVCRT:guard_support.obj
 0005:00000000       _static_const_table        00444000     MSVCRT:_svml_dcos2_sse2_.obj
 0005:00000200       __e02PI                    00444200     MSVCRT:_svml_dtrig_.obj
 0005:000003a0       __e04PI                    004443a0     MSVCRT:_svml_dtrig_.obj
 0005:00000530       _2il0floatpacket_2         00444530     MSVCRT:_svml_dtrig_.obj
 0005:00000540       _2il0floatpacket_9         00444540     MSVCRT:_svml_dtrig_.obj
 0005:00000550       _2il0floatpacket_12        00444550     MSVCRT:_svml_dtrig_.obj
 0005:00000560       __dPI02                    00444560     MSVCRT:_svml_dtrig_.obj
 0005:00000570       __d02PI                    00444570     MSVCRT:_svml_dtrig_.obj
 0005:00000580       __DP4                      00444580     MSVCRT:_svml_dtrig_.obj
 0005:000005a0       __dPI04                    004445a0     MSVCRT:_svml_dtrig_.obj
 0005:000005b0       __d04PI                    004445b0     MSVCRT:_svml_dtrig_.obj
 0005:000005c0       __QP4                      004445c0     MSVCRT:_svml_dtrig_.obj
