 encdec

 Timestamp is 597aac6b (Fri Jul 28 11:15:55 2017)

 Preferred load address is 00400000

 Start         Length     Name                   Class
 0001:00000000 000363a4H .text$mn                CODE
 0002:00000000 0000027cH .idata$5                DATA
 0002:0000027c 00000004H .00cfg                  DATA
 0002:00000280 00000004H .CRT$XCA                DATA
 0002:00000284 00000004H .CRT$XCAA               DATA
 0002:00000288 00000004H .CRT$XCZ                DATA
 0002:0000028c 00000004H .CRT$XIA                DATA
 0002:00000290 00000004H .CRT$XIAA               DATA
 0002:00000294 00000004H .CRT$XIAC               DATA
 0002:00000298 00000004H .CRT$XIZ                DATA
 0002:0000029c 00000004H .CRT$XPA                DATA
 0002:000002a0 00000004H .CRT$XPZ                DATA
 0002:000002a4 00000004H .CRT$XTA                DATA
 0002:000002a8 00000008H .CRT$XTZ                DATA
 0002:000002b0 00011380H .rdata                  DATA
 0002:00011630 00000004H .rdata$sxdata           DATA
 0002:00011634 00000250H .rdata$zzzdbg           DATA
 0002:00011884 00000004H .rtc$IAA                DATA
 0002:00011888 00000004H .rtc$IZZ                DATA
 0002:0001188c 00000004H .rtc$TAA                DATA
 0002:00011890 00000008H .rtc$TZZ                DATA
 0002:00011898 0000003cH .xdata$x                DATA
 0002:000118d4 00000000H .edata                  DATA
 0002:000118d4 00000104H .idata$2                DATA
 0002:000119d8 00000014H .idata$3                DATA
 0002:000119ec 0000027cH .idata$4                DATA
 0002:00011c68 00000a58H .idata$6                DATA
 0003:00000000 000051e0H .data                   DATA
 0003:000051e0 000017a0H .bss                    DATA
 0004:00000000 00000020H .gfids$y                DATA
 0005:00000000 000005e0H _RDATA                  DATA

  Address         Publics by Value              Rva+Base       Lib:Object

 0000:00000000       ___guard_longjmp_count     00000000     <absolute>
 0000:00000000       ___guard_longjmp_table     00000000     <absolute>
 0000:00000000       ___guard_iat_table         00000000     <absolute>
 0000:00000000       ___guard_iat_count         00000000     <absolute>
 0000:00000000       ___guard_fids_table        00000000     <absolute>
 0000:00000000       ___guard_fids_count        00000000     <absolute>
 0000:00000000       ___dynamic_value_reloc_table 00000000     <absolute>
 0000:00000001       ___safe_se_handler_count   00000001     <absolute>
 0000:00000100       ___guard_flags             00000100     <absolute>
 0000:00000000       ___ImageBase               00400000     <linker-defined>
 0001:00000630       _main                      00401630 f   encdec.obj
 0001:00000840       ___local_stdio_printf_options 00401840 f i encdec.obj
 0001:00000850       _printf                    00401850 f i encdec.obj
 0001:00000880       _pjmedia_codec_register_audio_codecs 00401880 f   pjmedia-codec-i386-win32-vc8-release:audio_codecs.obj
 0001:00000fc0       _pjmedia_codec_l16_deinit  00401fc0 f   pjmedia-codec-i386-win32-vc8-release:l16.obj
 0001:00001060       _pjmedia_codec_l16_init    00402060 f   pjmedia-codec-i386-win32-vc8-release:l16.obj
 0001:00001790       _pjmedia_codec_gsm_deinit  00402790 f   pjmedia-codec-i386-win32-vc8-release:gsm.obj
 0001:00001810       _pjmedia_codec_gsm_init    00402810 f   pjmedia-codec-i386-win32-vc8-release:gsm.obj
 0001:000018e0       _pjmedia_codec_speex_deinit 004028e0 f   pjmedia-codec-i386-win32-vc8-release:speex_codec.obj
 0001:000023b0       _pjmedia_codec_speex_init  004033b0 f   pjmedia-codec-i386-win32-vc8-release:speex_codec.obj
 0001:000025c0       _pjmedia_codec_ilbc_deinit 004035c0 f   pjmedia-codec-i386-win32-vc8-release:ilbc.obj
 0001:00002e00       __snprintf                 00403e00 f i pjmedia-codec-i386-win32-vc8-release:ilbc.obj
 0001:00002e40       _pjmedia_codec_ilbc_init   00403e40 f   pjmedia-codec-i386-win32-vc8-release:ilbc.obj
 0001:00002ed0       _pjmedia_codec_g722_deinit 00403ed0 f   pjmedia-codec-i386-win32-vc8-release:g722.obj
 0001:00003690       _pjmedia_codec_g722_init   00404690 f   pjmedia-codec-i386-win32-vc8-release:g722.obj
 0001:00004120       _g722_enc_encode           00405120 f   pjmedia-codec-i386-win32-vc8-release:g722_enc.obj
 0001:00004980       _g722_dec_decode           00405980 f   pjmedia-codec-i386-win32-vc8-release:g722_dec.obj
 0001:00004b10       _g722_enc_init             00405b10 f   pjmedia-codec-i386-win32-vc8-release:g722_enc.obj
 0001:00004b10       _g722_dec_init             00405b10 f   pjmedia-codec-i386-win32-vc8-release:g722_dec.obj
 0001:00004ce0       _pjmedia_port_destroy      00405ce0 f   pjmedia-i386-win32-vc8-release:port.obj
 0001:00004d10       _pjmedia_port_get_frame    00405d10 f   pjmedia-i386-win32-vc8-release:port.obj
 0001:00004d50       _pjmedia_port_info_init    00405d50 f   pjmedia-i386-win32-vc8-release:port.obj
 0001:00004de0       _pjmedia_port_put_frame    00405de0 f   pjmedia-i386-win32-vc8-release:port.obj
 0001:00004e10       _pjmedia_codec_mgr_alloc_codec 00405e10 f   pjmedia-i386-win32-vc8-release:codec.obj
 0001:00004eb0       _pjmedia_codec_mgr_dealloc_codec 00405eb0 f   pjmedia-i386-win32-vc8-release:codec.obj
 0001:00004ee0       _pjmedia_codec_mgr_destroy 00405ee0 f   pjmedia-i386-win32-vc8-release:codec.obj
 0001:00004f70       _pjmedia_codec_mgr_find_codecs_by_id 00405f70 f   pjmedia-i386-win32-vc8-release:codec.obj
 0001:00005050       _pjmedia_codec_mgr_get_default_param 00406050 f   pjmedia-i386-win32-vc8-release:codec.obj
 0001:000051c0       _pjmedia_codec_mgr_init    004061c0 f   pjmedia-i386-win32-vc8-release:codec.obj
 0001:00005230       _pjmedia_codec_mgr_register_factory 00406230 f   pjmedia-i386-win32-vc8-release:codec.obj
 0001:000053f0       _pjmedia_codec_mgr_unregister_factory 004063f0 f   pjmedia-i386-win32-vc8-release:codec.obj
 0001:000055a0       _pjmedia_endpt_create      004065a0 f   pjmedia-i386-win32-vc8-release:endpoint.obj
 0001:00005780       _pjmedia_endpt_create_pool 00406780 f   pjmedia-i386-win32-vc8-release:endpoint.obj
 0001:000057a0       _pjmedia_endpt_destroy     004067a0 f   pjmedia-i386-win32-vc8-release:endpoint.obj
 0001:00005830       _pjmedia_endpt_stop_threads 00406830 f   pjmedia-i386-win32-vc8-release:endpoint.obj
 0001:00005890       _sprintf                   00406890 f i pjmedia-i386-win32-vc8-release:endpoint.obj
 0001:00005d20       _pjmedia_wav_player_port_create 00406d20 f   pjmedia-i386-win32-vc8-release:wav_player.obj
 0001:00006470       _pjmedia_wav_writer_port_create 00407470 f   pjmedia-i386-win32-vc8-release:wav_writer.obj
 0001:00006db0       _pjmedia_codec_g711_deinit 00407db0 f   pjmedia-i386-win32-vc8-release:g711.obj
 0001:00006e50       _pjmedia_codec_g711_init   00407e50 f   pjmedia-i386-win32-vc8-release:g711.obj
 0001:00006fd0       _pjmedia_plc_create        00407fd0 f   pjmedia-i386-win32-vc8-release:plc_common.obj
 0001:00007030       _pjmedia_plc_generate      00408030 f   pjmedia-i386-win32-vc8-release:plc_common.obj
 0001:00007060       _pjmedia_plc_save          00408060 f   pjmedia-i386-win32-vc8-release:plc_common.obj
 0001:00007090       _pjmedia_silence_det_apply 00408090 f   pjmedia-i386-win32-vc8-release:silencedet.obj
 0001:00007260       _pjmedia_silence_det_create 00408260 f   pjmedia-i386-win32-vc8-release:silencedet.obj
 0001:000072e0       _pjmedia_silence_det_detect 004082e0 f   pjmedia-i386-win32-vc8-release:silencedet.obj
 0001:00007340       _pjmedia_format_get_audio_format_detail 00408340 f   pjmedia-i386-win32-vc8-release:format.obj
 0001:00007360       _pjmedia_sdp_attr_create   00408360 f   pjmedia-i386-win32-vc8-release:sdp.obj
 0001:000073c0       _pjmedia_sdp_attr_find     004083c0 f   pjmedia-i386-win32-vc8-release:sdp.obj
 0001:00007440       _pjmedia_sdp_media_deactivate 00408440 f   pjmedia-i386-win32-vc8-release:sdp.obj
 0001:00007470       _pjmedia_sdp_media_find_attr 00408470 f   pjmedia-i386-win32-vc8-release:sdp.obj
 0001:000074a0       _pjmedia_strerror          004084a0 f   pjmedia-i386-win32-vc8-release:errno.obj
 0001:00008080       _pjmedia_wsola_create      00409080 f   pjmedia-i386-win32-vc8-release:wsola.obj
 0001:00008240       _pjmedia_wsola_generate    00409240 f   pjmedia-i386-win32-vc8-release:wsola.obj
 0001:00008300       _pjmedia_wsola_save        00409300 f   pjmedia-i386-win32-vc8-release:wsola.obj
 0001:00009900       _get_libsrtp_errstr        0040a900 f   pjmedia-i386-win32-vc8-release:transport_srtp.obj
 0001:00009b70       _pjmedia_transport_srtp_start 0040ab70 f   pjmedia-i386-win32-vc8-release:transport_srtp.obj
 0001:0000a210       _pjmedia_transport_srtp_stop 0040b210 f   pjmedia-i386-win32-vc8-release:transport_srtp.obj
 0001:0000a640       _pj_base64_decode          0040b640 f   pjlib-util-i386-win32-vc8-release:base64.obj
 0001:0000a840       _pj_base64_encode          0040b840 f   pjlib-util-i386-win32-vc8-release:base64.obj
 0001:0000aa80       _pj_atexit                 0040ba80 f   pjlib-i386-win32-vc8-release:os_core_win32.obj
 0001:0000aab0       _pj_atomic_dec_and_get     0040bab0 f   pjlib-i386-win32-vc8-release:os_core_win32.obj
 0001:0000ab00       _pj_atomic_destroy         0040bb00 f   pjlib-i386-win32-vc8-release:os_core_win32.obj
 0001:0000ab20       _pj_atomic_inc             0040bb20 f   pjlib-i386-win32-vc8-release:os_core_win32.obj
 0001:0000ab70       _pj_enter_critical_section 0040bb70 f   pjlib-i386-win32-vc8-release:os_core_win32.obj
 0001:0000ab80       _pj_init                   0040bb80 f   pjlib-i386-win32-vc8-release:os_core_win32.obj
 0001:0000acc0       _pj_leave_critical_section 0040bcc0 f   pjlib-i386-win32-vc8-release:os_core_win32.obj
 0001:0000ad10       _pj_mutex_create           0040bd10 f   pjlib-i386-win32-vc8-release:os_core_win32.obj
 0001:0000ad60       _pj_mutex_create_simple    0040bd60 f   pjlib-i386-win32-vc8-release:os_core_win32.obj
 0001:0000ad60       _pj_mutex_create_recursive 0040bd60 f   pjlib-i386-win32-vc8-release:os_core_win32.obj
 0001:0000adb0       _pj_mutex_destroy          0040bdb0 f   pjlib-i386-win32-vc8-release:os_core_win32.obj
 0001:0000ae10       _pj_mutex_lock             0040be10 f   pjlib-i386-win32-vc8-release:os_core_win32.obj
 0001:0000ae80       _pj_mutex_trylock          0040be80 f   pjlib-i386-win32-vc8-release:os_core_win32.obj
 0001:0000af00       _pj_mutex_unlock           0040bf00 f   pjlib-i386-win32-vc8-release:os_core_win32.obj
 0001:0000af60       _pj_sem_destroy            0040bf60 f   pjlib-i386-win32-vc8-release:os_core_win32.obj
 0001:0000aff0       _pj_sem_post               0040bff0 f   pjlib-i386-win32-vc8-release:os_core_win32.obj
 0001:0000b080       _pj_sem_trywait            0040c080 f   pjlib-i386-win32-vc8-release:os_core_win32.obj
 0001:0000b0e0       _pj_sem_wait               0040c0e0 f   pjlib-i386-win32-vc8-release:os_core_win32.obj
 0001:0000b1f0       _pj_shutdown               0040c1f0 f   pjlib-i386-win32-vc8-release:os_core_win32.obj
 0001:0000b330       _pj_term_set_color         0040c330 f   pjlib-i386-win32-vc8-release:os_core_win32.obj
 0001:0000b400       _pj_thread_check_stack     0040c400 f   pjlib-i386-win32-vc8-release:os_core_win32.obj
 0001:0000b440       _pj_thread_create          0040c440 f   pjlib-i386-win32-vc8-release:os_core_win32.obj
 0001:0000b580       _pj_thread_destroy         0040c580 f   pjlib-i386-win32-vc8-release:os_core_win32.obj
 0001:0000b610       _pj_thread_get_name        0040c610 f   pjlib-i386-win32-vc8-release:os_core_win32.obj
 0001:0000b660       _pj_thread_init            0040c660 f   pjlib-i386-win32-vc8-release:os_core_win32.obj
 0001:0000b6c0       _pj_thread_join            0040c6c0 f   pjlib-i386-win32-vc8-release:os_core_win32.obj
 0001:0000b780       _pj_thread_local_alloc     0040c780 f   pjlib-i386-win32-vc8-release:os_core_win32.obj
 0001:0000b7d0       _pj_thread_local_free      0040c7d0 f   pjlib-i386-win32-vc8-release:os_core_win32.obj
 0001:0000b820       _pj_thread_local_get       0040c820 f   pjlib-i386-win32-vc8-release:os_core_win32.obj
 0001:0000b830       _pj_thread_local_set       0040c830 f   pjlib-i386-win32-vc8-release:os_core_win32.obj
 0001:0000b870       _pj_thread_register        0040c870 f   pjlib-i386-win32-vc8-release:os_core_win32.obj
 0001:0000b930       _pj_thread_sleep           0040c930 f   pjlib-i386-win32-vc8-release:os_core_win32.obj
 0001:0000b980       _pj_thread_this            0040c980 f   pjlib-i386-win32-vc8-release:os_core_win32.obj
 0001:0000ba10       _pj_time_val_normalize     0040ca10 f   pjlib-i386-win32-vc8-release:types.obj
 0001:0000baa0       _pj_errno_clear_handlers   0040caa0 f   pjlib-i386-win32-vc8-release:errno.obj
 0001:0000bac0       _pj_register_strerror      0040cac0 f   pjlib-i386-win32-vc8-release:errno.obj
 0001:0000bba0       _pj_strerror               0040cba0 f   pjlib-i386-win32-vc8-release:errno.obj
 0001:0000bd30       _pj_log                    0040cd30 f   pjlib-i386-win32-vc8-release:log.obj
 0001:0000c230       _pj_log_1                  0040d230 f   pjlib-i386-win32-vc8-release:log.obj
 0001:0000c250       _pj_log_3                  0040d250 f   pjlib-i386-win32-vc8-release:log.obj
 0001:0000c270       _pj_log_4                  0040d270 f   pjlib-i386-win32-vc8-release:log.obj
 0001:0000c290       _pj_log_5                  0040d290 f   pjlib-i386-win32-vc8-release:log.obj
 0001:0000c2b0       _pj_log_get_color          0040d2b0 f   pjlib-i386-win32-vc8-release:log.obj
 0001:0000c320       _pj_log_get_decor          0040d320 f   pjlib-i386-win32-vc8-release:log.obj
 0001:0000c330       _pj_log_get_level          0040d330 f   pjlib-i386-win32-vc8-release:log.obj
 0001:0000c340       _pj_log_init               0040d340 f   pjlib-i386-win32-vc8-release:log.obj
 0001:0000c3b0       _pj_gettimeofday           0040d3b0 f   pjlib-i386-win32-vc8-release:os_time_win32.obj
 0001:0000c460       _pj_time_decode            0040d460 f   pjlib-i386-win32-vc8-release:os_time_win32.obj
 0001:0000c510       _pj_pool_alloc             0040d510 f   pjlib-i386-win32-vc8-release:pool.obj
 0001:0000c560       _pj_pool_allocate_find     0040d560 f   pjlib-i386-win32-vc8-release:pool.obj
 0001:0000c640       _pj_pool_calloc            0040d640 f   pjlib-i386-win32-vc8-release:pool.obj
 0001:0000c6a0       _pj_pool_create            0040d6a0 f   pjlib-i386-win32-vc8-release:pool.obj
 0001:0000c730       _pj_pool_create_int        0040d730 f   pjlib-i386-win32-vc8-release:pool.obj
 0001:0000c7e0       _pj_pool_destroy_int       0040d7e0 f   pjlib-i386-win32-vc8-release:pool.obj
 0001:0000c820       _pj_pool_get_capacity      0040d820 f   pjlib-i386-win32-vc8-release:pool.obj
 0001:0000c830       _pj_pool_get_used_size     0040d830 f   pjlib-i386-win32-vc8-release:pool.obj
 0001:0000c860       _pj_pool_getobjname        0040d860 f   pjlib-i386-win32-vc8-release:pool.obj
 0001:0000c860       _pjmedia_endpt_get_codec_mgr 0040d860 f   pjmedia-i386-win32-vc8-release:endpoint.obj
 0001:0000c870       _pj_pool_init_int          0040d870 f   pjlib-i386-win32-vc8-release:pool.obj
 0001:0000c8e0       _pj_pool_release           0040d8e0 f   pjlib-i386-win32-vc8-release:pool.obj
 0001:0000c900       _pj_pool_reset             0040d900 f   pjlib-i386-win32-vc8-release:pool.obj
 0001:0000cd10       _pj_caching_pool_destroy   0040dd10 f   pjlib-i386-win32-vc8-release:pool_caching.obj
 0001:0000cdf0       _pj_caching_pool_init      0040ddf0 f   pjlib-i386-win32-vc8-release:pool_caching.obj
 0001:0000ceb0       _pj_rand                   0040deb0 f   pjlib-i386-win32-vc8-release:rand.obj
 0001:0000cee0       _pj_htons                  0040dee0 f   pjlib-i386-win32-vc8-release:sock_bsd.obj
 0001:0000cef0       _pj_ntohl                  0040def0 f   pjlib-i386-win32-vc8-release:sock_bsd.obj
 0001:0000cf00       _pj_ntohs                  0040df00 f   pjlib-i386-win32-vc8-release:sock_bsd.obj
 0001:0000cf10       _pj_sock_accept            0040df10 f   pjlib-i386-win32-vc8-release:sock_bsd.obj
 0001:0000cf80       _pj_sock_getsockname       0040df80 f   pjlib-i386-win32-vc8-release:sock_bsd.obj
 0001:0000cfe0       _pj_sock_getsockopt        0040dfe0 f   pjlib-i386-win32-vc8-release:sock_bsd.obj
 0001:0000d050       _pj_sock_recv              0040e050 f   pjlib-i386-win32-vc8-release:sock_bsd.obj
 0001:0000d0c0       _pj_sock_recvfrom          0040e0c0 f   pjlib-i386-win32-vc8-release:sock_bsd.obj
 0001:0000d130       _pj_sock_send              0040e130 f   pjlib-i386-win32-vc8-release:sock_bsd.obj
 0001:0000d1a0       _pj_sock_sendto            0040e1a0 f   pjlib-i386-win32-vc8-release:sock_bsd.obj
 0001:0000d280       _pj_str                    0040e280 f   pjlib-i386-win32-vc8-release:string.obj
 0001:0000d2a0       _pj_strcmp                 0040e2a0 f   pjlib-i386-win32-vc8-release:string.obj
 0001:0000d300       _pj_strdup2                0040e300 f   pjlib-i386-win32-vc8-release:string.obj
 0001:0000d360       _pj_strdup_with_null       0040e360 f   pjlib-i386-win32-vc8-release:string.obj
 0001:0000d3b0       _pj_stricmp                0040e3b0 f   pjlib-i386-win32-vc8-release:string.obj
 0001:0000d420       _pj_stricmp2               0040e420 f   pjlib-i386-win32-vc8-release:string.obj
 0001:0000d480       _pj_strncpy_with_null      0040e480 f   pjlib-i386-win32-vc8-release:string.obj
 0001:0000d4c0       _pj_strnicmp2              0040e4c0 f   pjlib-i386-win32-vc8-release:string.obj
 0001:0000d520       _pj_strtoul                0040e520 f   pjlib-i386-win32-vc8-release:string.obj
 0001:0000d580       _pj_strtoul2               0040e580 f   pjlib-i386-win32-vc8-release:string.obj
 0001:0000d630       _pj_utoa                   0040e630 f   pjlib-i386-win32-vc8-release:string.obj
 0001:0000d650       _pj_utoa_pad               0040e650 f   pjlib-i386-win32-vc8-release:string.obj
 0001:0000d6f0       _pj_list_erase             0040e6f0 f   pjlib-i386-win32-vc8-release:list.obj
 0001:0000d710       _pj_list_find_node         0040e710 f   pjlib-i386-win32-vc8-release:list.obj
 0001:0000d740       _pj_list_insert_after      0040e740 f   pjlib-i386-win32-vc8-release:list.obj
 0001:0000d760       _pj_list_insert_before     0040e760 f   pjlib-i386-win32-vc8-release:list.obj
 0001:0000d780       _pj_array_erase            0040e780 f   pjlib-i386-win32-vc8-release:array.obj
 0001:0000d880       ?ioqueue_dispatch_exception_event@@YAXPAUpj_ioqueue_t@@PAUpj_ioqueue_key_t@@@Z 0040e880 f   pjlib-i386-win32-vc8-release:ioqueue_select.obj
 0001:0000d9b0       ?ioqueue_dispatch_read_event@@YAXPAUpj_ioqueue_t@@PAUpj_ioqueue_key_t@@@Z 0040e9b0 f   pjlib-i386-win32-vc8-release:ioqueue_select.obj
 0001:0000dbd0       ?ioqueue_dispatch_write_event@@YAXPAUpj_ioqueue_t@@PAUpj_ioqueue_key_t@@@Z 0040ebd0 f   pjlib-i386-win32-vc8-release:ioqueue_select.obj
 0001:0000df20       _pj_ioqueue_create         0040ef20 f   pjlib-i386-win32-vc8-release:ioqueue_select.obj
 0001:0000e0c0       _pj_ioqueue_destroy        0040f0c0 f   pjlib-i386-win32-vc8-release:ioqueue_select.obj
 0001:0000e180       _pj_ioqueue_poll           0040f180 f   pjlib-i386-win32-vc8-release:ioqueue_select.obj
 0001:0000e4b0       _pj_ioqueue_set_lock       0040f4b0 f   pjlib-i386-win32-vc8-release:ioqueue_select.obj
 0001:0000e4f0       _pj_ioqueue_unlock_key     0040f4f0 f   pjlib-i386-win32-vc8-release:ioqueue_select.obj
 0001:0000e520       _pj_file_exists            0040f520 f   pjlib-i386-win32-vc8-release:file_access_win32.obj
 0001:0000e560       _pj_file_size              0040f560 f   pjlib-i386-win32-vc8-release:file_access_win32.obj
 0001:0000e5f0       _pj_file_close             0040f5f0 f   pjlib-i386-win32-vc8-release:file_io_win32.obj
 0001:0000e630       _pj_file_getpos            0040f630 f   pjlib-i386-win32-vc8-release:file_io_win32.obj
 0001:0000e690       _pj_file_open              0040f690 f   pjlib-i386-win32-vc8-release:file_io_win32.obj
 0001:0000e7b0       _pj_file_read              0040f7b0 f   pjlib-i386-win32-vc8-release:file_io_win32.obj
 0001:0000e810       _pj_file_setpos            0040f810 f   pjlib-i386-win32-vc8-release:file_io_win32.obj
 0001:0000e880       _pj_file_write             0040f880 f   pjlib-i386-win32-vc8-release:file_io_win32.obj
 0001:0000e8e0       _pj_exception_id_alloc     0040f8e0 f   pjlib-i386-win32-vc8-release:except.obj
 0001:0000e930       _pj_exception_id_free      0040f930 f   pjlib-i386-win32-vc8-release:except.obj
 0001:0000e970       _pj_throw_exception_       0040f970 f   pjlib-i386-win32-vc8-release:except.obj
 0001:0000ec10       _pj_grp_lock_acquire       0040fc10 f   pjlib-i386-win32-vc8-release:lock.obj
 0001:0000ec20       _pj_grp_lock_add_ref       0040fc20 f   pjlib-i386-win32-vc8-release:lock.obj
 0001:0000ec40       _pj_grp_lock_dec_ref       0040fc40 f   pjlib-i386-win32-vc8-release:lock.obj
 0001:0000ec70       _pj_grp_lock_release       0040fc70 f   pjlib-i386-win32-vc8-release:lock.obj
 0001:0000ec80       _pj_lock_acquire           0040fc80 f   pjlib-i386-win32-vc8-release:lock.obj
 0001:0000eca0       _pj_lock_create_null_mutex 0040fca0 f   pjlib-i386-win32-vc8-release:lock.obj
 0001:0000ecc0       _pj_lock_create_recursive_mutex 0040fcc0 f   pjlib-i386-win32-vc8-release:lock.obj
 0001:0000ece0       _pj_lock_create_simple_mutex 0040fce0 f   pjlib-i386-win32-vc8-release:lock.obj
 0001:0000ed00       _pj_lock_destroy           0040fd00 f   pjlib-i386-win32-vc8-release:lock.obj
 0001:0000ed20       _pj_lock_release           0040fd20 f   pjlib-i386-win32-vc8-release:lock.obj
 0001:0000ed40       _pj_get_timestamp          0040fd40 f   pjlib-i386-win32-vc8-release:os_timestamp_win32.obj
 0001:0000eda0       _pj_get_timestamp_freq     0040fda0 f   pjlib-i386-win32-vc8-release:os_timestamp_win32.obj
 0001:0000ee80       _pj_generate_unique_string 0040fe80 f   pjlib-i386-win32-vc8-release:guid_win32.obj
 0001:0000eed0       _pj_get_netos_error        0040fed0 f   pjlib-i386-win32-vc8-release:os_error_win32.obj
 0001:0000eef0       _pj_get_os_error           0040fef0 f   pjlib-i386-win32-vc8-release:os_error_win32.obj
 0001:0000ef10       _platform_strerror         0040ff10 f   pjlib-i386-win32-vc8-release:os_error_win32.obj
 0001:0000eff0       _pj_log_write              0040fff0 f   pjlib-i386-win32-vc8-release:log_writer_stdout.obj
 0001:0000f050       _pj_pool_create_on_buf     00410050 f   pjlib-i386-win32-vc8-release:pool_buf.obj
 0001:0000f220       _pj_elapsed_time           00410220 f   pjlib-i386-win32-vc8-release:os_timestamp_common.obj
 0001:0000f2d0       _pj_gettickcount           004102d0 f   pjlib-i386-win32-vc8-release:os_timestamp_common.obj
 0001:0000f310       _PJ_FD_CLR                 00410310 f   pjlib-i386-win32-vc8-release:sock_select.obj
 0001:0000f390       _PJ_FD_COUNT               00410390 f   pjlib-i386-win32-vc8-release:sock_select.obj
 0001:0000f390       _rdb_get_value             00410390 f   libsrtp-i386-win32-vc8-release:rdb.obj
 0001:0000f3a0       _PJ_FD_ISSET               004103a0 f   pjlib-i386-win32-vc8-release:sock_select.obj
 0001:0000f3d0       _PJ_FD_ZERO                004103d0 f   pjlib-i386-win32-vc8-release:sock_select.obj
 0001:0000f400       _pj_sock_select            00410400 f   pjlib-i386-win32-vc8-release:sock_select.obj
 0001:0000f470       _gsm_create                00410470 f   libgsmcodec-i386-win32-vc8-release:gsm_create.obj
 0001:0000f4b0       _gsm_destroy               004104b0 f   libgsmcodec-i386-win32-vc8-release:gsm_destroy.obj
 0001:0000f4d0       _gsm_encode                004104d0 f   libgsmcodec-i386-win32-vc8-release:gsm_encode.obj
 0001:0000f920       _gsm_decode                00410920 f   libgsmcodec-i386-win32-vc8-release:gsm_decode.obj
 0001:0000ff00       _Gsm_Coder                 00410f00 f   libgsmcodec-i386-win32-vc8-release:code.obj
 0001:00010100       _Gsm_Decoder               00411100 f   libgsmcodec-i386-win32-vc8-release:decode.obj
 0001:00010850       _Gsm_Long_Term_Predictor   00411850 f   libgsmcodec-i386-win32-vc8-release:long_term.obj
 0001:00010890       _Gsm_Long_Term_Synthesis_Filtering 00411890 f   libgsmcodec-i386-win32-vc8-release:long_term.obj
 0001:000112c0       _Gsm_LPC_Analysis          004122c0 f   libgsmcodec-i386-win32-vc8-release:lpc.obj
 0001:00011c30       _Gsm_Preprocess            00412c30 f   libgsmcodec-i386-win32-vc8-release:preprocess.obj
 0001:00012470       _Gsm_Short_Term_Analysis_Filter 00413470 f   libgsmcodec-i386-win32-vc8-release:short_term.obj
 0001:00012570       _Gsm_Short_Term_Synthesis_Filter 00413570 f   libgsmcodec-i386-win32-vc8-release:short_term.obj
 0001:00012df0       _Gsm_RPE_Decoding          00413df0 f   libgsmcodec-i386-win32-vc8-release:rpe.obj
 0001:00012e50       _Gsm_RPE_Encoding          00413e50 f   libgsmcodec-i386-win32-vc8-release:rpe.obj
 0001:00013520       _gsm_add                   00414520 f   libgsmcodec-i386-win32-vc8-release:add.obj
 0001:00013550       _gsm_asl                   00414550 f   libgsmcodec-i386-win32-vc8-release:add.obj
 0001:00013590       _gsm_asr                   00414590 f   libgsmcodec-i386-win32-vc8-release:add.obj
 0001:000135d0       _gsm_div                   004145d0 f   libgsmcodec-i386-win32-vc8-release:add.obj
 0001:00013610       _gsm_mult                  00414610 f   libgsmcodec-i386-win32-vc8-release:add.obj
 0001:00013650       _gsm_norm                  00414650 f   libgsmcodec-i386-win32-vc8-release:add.obj
 0001:000136c0       _gsm_sub                   004146c0 f   libgsmcodec-i386-win32-vc8-release:add.obj
 0001:000136f0       _iLBC_encode               004146f0 f   libilbccodec-i386-win32-vc8-release:iLBC_encode.obj
 0001:000146c0       _initEncode                004156c0 f   libilbccodec-i386-win32-vc8-release:iLBC_encode.obj
 0001:000147d0       _Decode                    004157d0 f   libilbccodec-i386-win32-vc8-release:iLBC_decode.obj
 0001:00014e50       _iLBC_decode               00415e50 f   libilbccodec-i386-win32-vc8-release:iLBC_decode.obj
 0001:00015910       _initDecode                00416910 f   libilbccodec-i386-win32-vc8-release:iLBC_decode.obj
 0001:00015b00       _iLBCDecode                00416b00 f   libilbccodec-i386-win32-vc8-release:iLBC.obj
 0001:00015bc0       _iLBCEncode                00416bc0 f   libilbccodec-i386-win32-vc8-release:iLBC.obj
 0001:00015c80       _LPCencode                 00416c80 f   libilbccodec-i386-win32-vc8-release:LPCencode.obj
 0001:00015d60       _SimpleAnalysis            00416d60 f   libilbccodec-i386-win32-vc8-release:LPCencode.obj
 0001:00015e90       _SimpleInterpolateLSF      00416e90 f   libilbccodec-i386-win32-vc8-release:LPCencode.obj
 0001:00016160       _FrameClassify             00417160 f   libilbccodec-i386-win32-vc8-release:FrameClassify.obj
 0001:00016620       _AbsQuantW                 00417620 f   libilbccodec-i386-win32-vc8-release:StateSearchW.obj
 0001:000167d0       _StateSearchW              004177d0 f   libilbccodec-i386-win32-vc8-release:StateSearchW.obj
 0001:00016c50       _StateConstructW           00417c50 f   libilbccodec-i386-win32-vc8-release:StateConstructW.obj
 0001:00016f20       _dopack                    00417f20 f   libilbccodec-i386-win32-vc8-release:packing.obj
 0001:00016f90       _packcombine               00417f90 f   libilbccodec-i386-win32-vc8-release:packing.obj
 0001:00016fb0       _packsplit                 00417fb0 f   libilbccodec-i386-win32-vc8-release:packing.obj
 0001:00016fe0       _unpack                    00417fe0 f   libilbccodec-i386-win32-vc8-release:packing.obj
 0001:00017080       _iCBSearch                 00418080 f   libilbccodec-i386-win32-vc8-release:iCBSearch.obj
 0001:00018030       _iCBConstruct              00419030 f   libilbccodec-i386-win32-vc8-release:iCBConstruct.obj
 0001:000184d0       _index_conv_dec            004194d0 f   libilbccodec-i386-win32-vc8-release:iCBConstruct.obj
 0001:00018530       _index_conv_enc            00419530 f   libilbccodec-i386-win32-vc8-release:iCBConstruct.obj
 0001:00018580       _hpInput                   00419580 f   libilbccodec-i386-win32-vc8-release:hpInput.obj
 0001:00018650       _anaFilter                 00419650 f   libilbccodec-i386-win32-vc8-release:anaFilter.obj
 0001:00018920       _getbit                    00419920 f   libilbccodec-i386-win32-vc8-release:bitstream.obj
 0001:00018960       _putbit                    00419960 f   libilbccodec-i386-win32-vc8-release:bitstream.obj
 0001:000189a0       _DecoderInterpolateLSF     004199a0 f   libilbccodec-i386-win32-vc8-release:LPCdecode.obj
 0001:00018b80       _SimplelsfDEQ              00419b80 f   libilbccodec-i386-win32-vc8-release:LPCdecode.obj
 0001:00018c90       _compCorr                  00419c90 f   libilbccodec-i386-win32-vc8-release:doCPLC.obj
 0001:00018dc0       _doThePLC                  00419dc0 f   libilbccodec-i386-win32-vc8-release:doCPLC.obj
 0001:000191e0       _LSF_check                 0041a1e0 f   libilbccodec-i386-win32-vc8-release:helpfun.obj
 0001:000192d0       _SplitVQ                   0041a2d0 f   libilbccodec-i386-win32-vc8-release:helpfun.obj
 0001:000194e0       _autocorr                  0041a4e0 f   libilbccodec-i386-win32-vc8-release:helpfun.obj
 0001:000195c0       _bwexpand                  0041a5c0 f   libilbccodec-i386-win32-vc8-release:helpfun.obj
 0001:000196b0       _interpolate               0041a6b0 f   libilbccodec-i386-win32-vc8-release:helpfun.obj
 0001:000198c0       _levdurb                   0041a8c0 f   libilbccodec-i386-win32-vc8-release:helpfun.obj
 0001:00019b10       _sort_sq                   0041ab10 f   libilbccodec-i386-win32-vc8-release:helpfun.obj
 0001:00019b90       _sort_sq_ste               0041ab90 f   libilbccodec-i386-win32-vc8-release:helpfun.obj
 0001:00019c10       _window                    0041ac10 f   libilbccodec-i386-win32-vc8-release:helpfun.obj
 0001:00019db0       _NearestNeighbor           0041adb0 f   libilbccodec-i386-win32-vc8-release:enhancer.obj
 0001:00019e90       _enh_upsample              0041ae90 f   libilbccodec-i386-win32-vc8-release:enhancer.obj
 0001:0001a210       _enhancerInterface         0041b210 f   libilbccodec-i386-win32-vc8-release:enhancer.obj
 0001:0001aa80       _getsseq                   0041ba80 f   libilbccodec-i386-win32-vc8-release:enhancer.obj
 0001:0001aec0       _refiner                   0041bec0 f   libilbccodec-i386-win32-vc8-release:enhancer.obj
 0001:0001b2d0       _smath                     0041c2d0 f   libilbccodec-i386-win32-vc8-release:enhancer.obj
 0001:0001bb00       _xCorrCoef                 0041cb00 f   libilbccodec-i386-win32-vc8-release:enhancer.obj
 0001:0001bb70       _hpOutput                  0041cb70 f   libilbccodec-i386-win32-vc8-release:hpOutput.obj
 0001:0001bc40       _syntFilter                0041cc40 f   libilbccodec-i386-win32-vc8-release:syntFilter.obj
 0001:0001bef0       _a2lsf                     0041cef0 f   libilbccodec-i386-win32-vc8-release:lsf.obj
 0001:0001c200       _lsf2a                     0041d200 f   libilbccodec-i386-win32-vc8-release:lsf.obj
 0001:0001c670       _AllPoleFilter             0041d670 f   libilbccodec-i386-win32-vc8-release:filter.obj
 0001:0001c790       _AllZeroFilter             0041d790 f   libilbccodec-i386-win32-vc8-release:filter.obj
 0001:0001c880       _DownSample                0041d880 f   libilbccodec-i386-win32-vc8-release:filter.obj
 0001:0001cb80       _ZeroPoleFilter            0041db80 f   libilbccodec-i386-win32-vc8-release:filter.obj
 0001:0001cbb0       _gaindequant               0041dbb0 f   libilbccodec-i386-win32-vc8-release:gainquant.obj
 0001:0001cc30       _gainquant                 0041dc30 f   libilbccodec-i386-win32-vc8-release:gainquant.obj
 0001:0001ccf0       _createAugmentedVec        0041dcf0 f   libilbccodec-i386-win32-vc8-release:createCB.obj
 0001:0001cd90       _filteredCBvecs            0041dd90 f   libilbccodec-i386-win32-vc8-release:createCB.obj
 0001:0001cee0       _searchAugmentedCB         0041dee0 f   libilbccodec-i386-win32-vc8-release:createCB.obj
 0001:0001d210       _getCBvec                  0041e210 f   libilbccodec-i386-win32-vc8-release:getCBvec.obj
 0001:0001d6d0       _speex_mode_query          0041e6d0 f   libspeex-i386-win32-vc8-release:modes.obj
 0001:0001d6f0       _fprintf                   0041e6f0 f i libspeex-i386-win32-vc8-release:bits.obj
 0001:0001d720       _speex_bits_advance        0041e720 f   libspeex-i386-win32-vc8-release:bits.obj
 0001:0001d770       _speex_bits_destroy        0041e770 f   libspeex-i386-win32-vc8-release:bits.obj
 0001:0001d790       _speex_bits_init           0041e790 f   libspeex-i386-win32-vc8-release:bits.obj
 0001:0001d7e0       _speex_bits_insert_terminator 0041e7e0 f   libspeex-i386-win32-vc8-release:bits.obj
 0001:0001d8e0       _speex_bits_pack           0041e8e0 f   libspeex-i386-win32-vc8-release:bits.obj
 0001:0001d9f0       _speex_bits_peek           0041e9f0 f   libspeex-i386-win32-vc8-release:bits.obj
 0001:0001da30       _speex_bits_read_from      0041ea30 f   libspeex-i386-win32-vc8-release:bits.obj
 0001:0001db10       _speex_bits_remaining      0041eb10 f   libspeex-i386-win32-vc8-release:bits.obj
 0001:0001db40       _speex_bits_reset          0041eb40 f   libspeex-i386-win32-vc8-release:bits.obj
 0001:0001db70       _speex_bits_unpack_unsigned 0041eb70 f   libspeex-i386-win32-vc8-release:bits.obj
 0001:0001dbf0       _speex_bits_write          0041ebf0 f   libspeex-i386-win32-vc8-release:bits.obj
 0001:0001dc50       _nb_mode_query             0041ec50 f   libspeex-i386-win32-vc8-release:speex.obj
 0001:0001dcd0       _speex_decode_int          0041ecd0 f   libspeex-i386-win32-vc8-release:speex.obj
 0001:0001ddc0       _speex_decode_native       0041edc0 f   libspeex-i386-win32-vc8-release:speex.obj
 0001:0001dde0       _speex_decoder_ctl         0041ede0 f   libspeex-i386-win32-vc8-release:speex.obj
 0001:0001de00       _speex_decoder_destroy     0041ee00 f   libspeex-i386-win32-vc8-release:speex.obj
 0001:0001de20       _speex_decoder_init        0041ee20 f   libspeex-i386-win32-vc8-release:speex.obj
 0001:0001de30       _speex_encode_int          0041ee30 f   libspeex-i386-win32-vc8-release:speex.obj
 0001:0001deb0       _speex_encode_native       0041eeb0 f   libspeex-i386-win32-vc8-release:speex.obj
 0001:0001ded0       _speex_encoder_ctl         0041eed0 f   libspeex-i386-win32-vc8-release:speex.obj
 0001:0001def0       _speex_encoder_destroy     0041eef0 f   libspeex-i386-win32-vc8-release:speex.obj
 0001:0001df10       _speex_encoder_init        0041ef10 f   libspeex-i386-win32-vc8-release:speex.obj
 0001:0001df20       _wb_mode_query             0041ef20 f   libspeex-i386-win32-vc8-release:modes_wb.obj
 0001:0001dfa0       _speex_lib_get_mode        0041efa0 f   libspeex-i386-win32-vc8-release:modes_wb.obj
 0001:0001dff0       _nb_decode                 0041eff0 f   libspeex-i386-win32-vc8-release:nb_celp.obj
 0001:0001f000       _nb_decoder_ctl            00420000 f   libspeex-i386-win32-vc8-release:nb_celp.obj
 0001:0001f420       _nb_decoder_destroy        00420420 f   libspeex-i386-win32-vc8-release:nb_celp.obj
 0001:0001f460       _nb_decoder_init           00420460 f   libspeex-i386-win32-vc8-release:nb_celp.obj
 0001:0001f600       _nb_encode                 00420600 f   libspeex-i386-win32-vc8-release:nb_celp.obj
 0001:000209d0       _nb_encoder_ctl            004219d0 f   libspeex-i386-win32-vc8-release:nb_celp.obj
 0001:00021080       _nb_encoder_destroy        00422080 f   libspeex-i386-win32-vc8-release:nb_celp.obj
 0001:00021110       _nb_encoder_init           00422110 f   libspeex-i386-win32-vc8-release:nb_celp.obj
 0001:000213a0       _forced_pitch_quant        004223a0 f   libspeex-i386-win32-vc8-release:ltp.obj
 0001:00021750       _forced_pitch_unquant      00422750 f   libspeex-i386-win32-vc8-release:ltp.obj
 0001:00021890       _inner_prod                00422890 f   libspeex-i386-win32-vc8-release:ltp.obj
 0001:00021910       _open_loop_nbest_pitch     00422910 f   libspeex-i386-win32-vc8-release:ltp.obj
 0001:00022bf0       _pitch_search_3tap         00423bf0 f   libspeex-i386-win32-vc8-release:ltp.obj
 0001:00022e50       _pitch_unquant_3tap        00423e50 f   libspeex-i386-win32-vc8-release:ltp.obj
 0001:00023470       _lsp_quant_high            00424470 f   libspeex-i386-win32-vc8-release:quant_lsp.obj
 0001:00023a70       _lsp_quant_lbr             00424a70 f   libspeex-i386-win32-vc8-release:quant_lsp.obj
 0001:000241d0       _lsp_quant_nb              004251d0 f   libspeex-i386-win32-vc8-release:quant_lsp.obj
 0001:00024b90       _lsp_unquant_high          00425b90 f   libspeex-i386-win32-vc8-release:quant_lsp.obj
 0001:00024eb0       _lsp_unquant_lbr           00425eb0 f   libspeex-i386-win32-vc8-release:quant_lsp.obj
 0001:000252f0       _lsp_unquant_nb            004262f0 f   libspeex-i386-win32-vc8-release:quant_lsp.obj
 0001:00025c20       _noise_codebook_quant      00426c20 f   libspeex-i386-win32-vc8-release:cb_search.obj
 0001:00025db0       _noise_codebook_unquant    00426db0 f   libspeex-i386-win32-vc8-release:cb_search.obj
 0001:00025e30       _split_cb_search_shape_sign 00426e30 f   libspeex-i386-win32-vc8-release:cb_search.obj
 0001:00027620       _split_cb_shape_sign_unquant 00428620 f   libspeex-i386-win32-vc8-release:cb_search.obj
 0001:00027900       _sb_decode                 00428900 f   libspeex-i386-win32-vc8-release:sb_celp.obj
 0001:000280b0       _sb_decoder_ctl            004290b0 f   libspeex-i386-win32-vc8-release:sb_celp.obj
 0001:000285f0       _sb_decoder_destroy        004295f0 f   libspeex-i386-win32-vc8-release:sb_celp.obj
 0001:00028650       _sb_decoder_init           00429650 f   libspeex-i386-win32-vc8-release:sb_celp.obj
 0001:000287a0       _sb_encode                 004297a0 f   libspeex-i386-win32-vc8-release:sb_celp.obj
 0001:000294c0       _sb_encoder_ctl            0042a4c0 f   libspeex-i386-win32-vc8-release:sb_celp.obj
 0001:00029db0       _sb_encoder_destroy        0042adb0 f   libspeex-i386-win32-vc8-release:sb_celp.obj
 0001:00029e30       _sb_encoder_init           0042ae30 f   libspeex-i386-win32-vc8-release:sb_celp.obj
 0001:0002a070       _vbr_analysis              0042b070 f   libspeex-i386-win32-vc8-release:vbr.obj
 0001:0002a860       @_guard_check_icall_nop@4  0042b860 f   MSVCRT:guard_support.obj
 0001:0002a860       _vbr_destroy               0042b860 f   libspeex-i386-win32-vc8-release:vbr.obj
 0001:0002a860       __initialize_denormal_control 0042b860 f   MSVCRT:denormal_control.obj
 0001:0002a860       _pjmedia_wave_hdr_host_to_file 0042b860 f   pjmedia-i386-win32-vc8-release:wave.obj
 0001:0002a860       __initialize_invalid_parameter_handler 0042b860 f   MSVCRT:invalid_parameter_handler.obj
 0001:0002a860       _pjmedia_wave_hdr_file_to_host 0042b860 f   pjmedia-i386-win32-vc8-release:wave.obj
 0001:0002a870       _vbr_init                  0042b870 f   libspeex-i386-win32-vc8-release:vbr.obj
 0001:0002a920       _speex_default_user_handler 0042b920 f   libspeex-i386-win32-vc8-release:speex_callbacks.obj
 0001:0002a950       _speex_inband_handler      0042b950 f   libspeex-i386-win32-vc8-release:speex_callbacks.obj
 0001:0002aa10       _bw_lpc                    0042ba10 f   libspeex-i386-win32-vc8-release:filters.obj
 0001:0002aad0       _compute_impulse_response  0042bad0 f   libspeex-i386-win32-vc8-release:filters.obj
 0001:0002aec0       _compute_rms16             0042bec0 f   libspeex-i386-win32-vc8-release:filters.obj
 0001:0002aec0       _compute_rms               0042bec0 f   libspeex-i386-win32-vc8-release:filters.obj
 0001:0002af80       _filter_mem16              0042bf80 f   libspeex-i386-win32-vc8-release:filters.obj
 0001:0002b130       _fir_mem16                 0042c130 f   libspeex-i386-win32-vc8-release:filters.obj
 0001:0002b2f0       _highpass                  0042c2f0 f   libspeex-i386-win32-vc8-release:filters.obj
 0001:0002b420       _iir_mem16                 0042c420 f   libspeex-i386-win32-vc8-release:filters.obj
 0001:0002b5f0       _interp_pitch              0042c5f0 f   libspeex-i386-win32-vc8-release:filters.obj
 0001:0002b920       _multicomb                 0042c920 f   libspeex-i386-win32-vc8-release:filters.obj
 0001:0002bdc0       _qmf_decomp                0042cdc0 f   libspeex-i386-win32-vc8-release:filters.obj
 0001:0002c0b0       _qmf_synth                 0042d0b0 f   libspeex-i386-win32-vc8-release:filters.obj
 0001:0002c550       _residue_percep_zero16     0042d550 f   libspeex-i386-win32-vc8-release:filters.obj
 0001:0002c5f0       _sanitize_values32         0042d5f0 f   libspeex-i386-win32-vc8-release:filters.obj
 0001:0002c650       _signal_div                0042d650 f   libspeex-i386-win32-vc8-release:filters.obj
 0001:0002c790       _signal_mul                0042d790 f   libspeex-i386-win32-vc8-release:filters.obj
 0001:0002c8d0       _syn_percep_zero16         0042d8d0 f   libspeex-i386-win32-vc8-release:filters.obj
 0001:0002c970       __spx_autocorr             0042d970 f   libspeex-i386-win32-vc8-release:lpc.obj
 0001:0002ca70       __spx_lpc                  0042da70 f   libspeex-i386-win32-vc8-release:lpc.obj
 0001:0002cc30       _lpc_to_lsp                0042dc30 f   libspeex-i386-win32-vc8-release:lsp.obj
 0001:0002d370       _lsp_enforce_margin        0042e370 f   libspeex-i386-win32-vc8-release:lsp.obj
 0001:0002d410       _lsp_interpolate           0042e410 f   libspeex-i386-win32-vc8-release:lsp.obj
 0001:0002d640       _lsp_to_lpc                0042e640 f   libspeex-i386-win32-vc8-release:lsp.obj
 0001:0002d850       _scal_quant                0042e850 f   libspeex-i386-win32-vc8-release:vq.obj
 0001:0002d8c0       _vq_nbest                  0042e8c0 f   libspeex-i386-win32-vc8-release:vq.obj
 0001:0002da10       _vq_nbest_sign             0042ea10 f   libspeex-i386-win32-vc8-release:vq.obj
 0001:0002dba0       _crypto_get_random         0042eba0 f   libsrtp-i386-win32-vc8-release:crypto_kernel.obj
 0001:0002dbc0       _crypto_kernel_alloc_auth  0042ebc0 f   libsrtp-i386-win32-vc8-release:crypto_kernel.obj
 0001:0002dc10       _crypto_kernel_alloc_cipher 0042ec10 f   libsrtp-i386-win32-vc8-release:crypto_kernel.obj
 0001:0002dc90       _srtp_add_stream           0042ec90 f   libsrtp-i386-win32-vc8-release:srtp.obj
 0001:0002dd60       _srtp_create               0042ed60 f   libsrtp-i386-win32-vc8-release:srtp.obj
 0001:0002dde0       _srtp_dealloc              0042ede0 f   libsrtp-i386-win32-vc8-release:srtp.obj
 0001:0002df40       _srtp_event_reporter       0042ef40 f   libsrtp-i386-win32-vc8-release:srtp.obj
 0001:0002dfd0       _srtp_protect              0042efd0 f   libsrtp-i386-win32-vc8-release:srtp.obj
 0001:0002e410       _srtp_protect_rtcp         0042f410 f   libsrtp-i386-win32-vc8-release:srtp.obj
 0001:0002e710       _srtp_stream_alloc         0042f710 f   libsrtp-i386-win32-vc8-release:srtp.obj
 0001:0002e880       _srtp_stream_clone         0042f880 f   libsrtp-i386-win32-vc8-release:srtp.obj
 0001:0002e930       _srtp_stream_init          0042f930 f   libsrtp-i386-win32-vc8-release:srtp.obj
 0001:0002e9b0       _srtp_stream_init_keys     0042f9b0 f   libsrtp-i386-win32-vc8-release:srtp.obj
 0001:0002ee40       _srtp_unprotect            0042fe40 f   libsrtp-i386-win32-vc8-release:srtp.obj
 0001:0002f540       _srtp_unprotect_rtcp       00430540 f   libsrtp-i386-win32-vc8-release:srtp.obj
 0001:0002f8b0       _crypto_alloc              004308b0 f   libsrtp-i386-win32-vc8-release:alloc.obj
 0001:0002f910       _crypto_free               00430910 f   libsrtp-i386-win32-vc8-release:alloc.obj
 0001:0002f940       _err_report                00430940 f   libsrtp-i386-win32-vc8-release:srtp_err.obj
 0001:0002f970       _auth_get_tag_length       00430970 f   libsrtp-i386-win32-vc8-release:auth.obj
 0001:0002f970       _cipher_get_key_length     00430970 f   libsrtp-i386-win32-vc8-release:cipher.obj
 0001:0002f980       _cipher_output             00430980 f   libsrtp-i386-win32-vc8-release:cipher.obj
 0001:0002f9b0       _ctr_prng_get_octet_string 004309b0 f   libsrtp-i386-win32-vc8-release:ctr_prng.obj
 0001:0002fa40       _auth_get_key_length       00430a40 f   libsrtp-i386-win32-vc8-release:auth.obj
 0001:0002fa50       _auth_get_prefix_length    00430a50 f   libsrtp-i386-win32-vc8-release:auth.obj
 0001:0002fa60       _null_cipher_init          00430a60 f   libsrtp-i386-win32-vc8-release:null_cipher.obj
 0001:0002fa90       _null_cipher_alloc         00430a90 f   libsrtp-i386-win32-vc8-release:null_cipher.obj
 0001:0002faf0       _null_cipher_dealloc       00430af0 f   libsrtp-i386-win32-vc8-release:null_cipher.obj
 0001:0002fb20       _aes_icm_context_init      00430b20 f   libsrtp-i386-win32-vc8-release:aes_icm.obj
 0001:0002fbf0       _aes_icm_set_iv            00430bf0 f   libsrtp-i386-win32-vc8-release:aes_icm.obj
 0001:0002fc80       _aes_icm_encrypt           00430c80 f   libsrtp-i386-win32-vc8-release:aes_icm.obj
 0001:0002fca0       _aes_icm_dealloc           00430ca0 f   libsrtp-i386-win32-vc8-release:aes_icm.obj
 0001:0002fcd0       _aes_icm_alloc             00430cd0 f   libsrtp-i386-win32-vc8-release:aes_icm.obj
 0001:0002fdf0       _aes_icm_encrypt_ismacryp  00430df0 f   libsrtp-i386-win32-vc8-release:aes_icm.obj
 0001:0002ffd0       _aes_icm_output            00430fd0 f   libsrtp-i386-win32-vc8-release:aes_icm.obj
 0001:00030000       _aes_cbc_context_init      00431000 f   libsrtp-i386-win32-vc8-release:aes_cbc.obj
 0001:000300b0       _aes_cbc_set_iv            004310b0 f   libsrtp-i386-win32-vc8-release:aes_cbc.obj
 0001:00030100       _aes_cbc_nist_encrypt      00431100 f   libsrtp-i386-win32-vc8-release:aes_cbc.obj
 0001:00030240       _aes_cbc_nist_decrypt      00431240 f   libsrtp-i386-win32-vc8-release:aes_cbc.obj
 0001:00030290       _aes_cbc_alloc             00431290 f   libsrtp-i386-win32-vc8-release:aes_cbc.obj
 0001:00030300       _aes_cbc_dealloc           00431300 f   libsrtp-i386-win32-vc8-release:aes_cbc.obj
 0001:00030330       _aes_cbc_decrypt           00431330 f   libsrtp-i386-win32-vc8-release:aes_cbc.obj
 0001:000304b0       _lpc_alloc                 004314b0 f   libsrtp-i386-win32-vc8-release:lpc_algo.obj
 0001:00030500       _lpc_dealloc               00431500 f   libsrtp-i386-win32-vc8-release:lpc_algo.obj
 0001:00030530       _lpc_context_init          00431530 f   libsrtp-i386-win32-vc8-release:lpc_algo.obj
 0001:000305a0       _lpc_set_iv                004315a0 f   libsrtp-i386-win32-vc8-release:lpc_algo.obj
 0001:000305e0       _null_auth_alloc           004315e0 f   libsrtp-i386-win32-vc8-release:null_auth.obj
 0001:00030670       _null_auth_dealloc         00431670 f   libsrtp-i386-win32-vc8-release:null_auth.obj
 0001:000306a0       _hmac_alloc                004316a0 f   libsrtp-i386-win32-vc8-release:hmac.obj
 0001:00030750       _hmac_dealloc              00431750 f   libsrtp-i386-win32-vc8-release:hmac.obj
 0001:00030780       _hmac_init                 00431780 f   libsrtp-i386-win32-vc8-release:hmac.obj
 0001:000309f0       _hmac_start                004319f0 f   libsrtp-i386-win32-vc8-release:hmac.obj
 0001:00030a10       _hmac_update               00431a10 f   libsrtp-i386-win32-vc8-release:hmac.obj
 0001:00030a60       _hmac_compute              00431a60 f   libsrtp-i386-win32-vc8-release:hmac.obj
 0001:00030b90       _octet_string_hex_string   00431b90 f   libsrtp-i386-win32-vc8-release:datatypes.obj
 0001:00030c30       _octet_string_is_eq        00431c30 f   libsrtp-i386-win32-vc8-release:datatypes.obj
 0001:00030c70       _octet_string_set_to_zero  00431c70 f   libsrtp-i386-win32-vc8-release:datatypes.obj
 0001:00030c90       _v128_copy_octet_string    00431c90 f   libsrtp-i386-win32-vc8-release:datatypes.obj
 0001:00030d10       _v128_hex_string           00431d10 f   libsrtp-i386-win32-vc8-release:datatypes.obj
 0001:00030da0       _v128_left_shift           00431da0 f   libsrtp-i386-win32-vc8-release:datatypes.obj
 0001:00030e80       _index_guess               00431e80 f   libsrtp-i386-win32-vc8-release:rdbx.obj
 0001:00030f10       _rdbx_add_index            00431f10 f   libsrtp-i386-win32-vc8-release:rdbx.obj
 0001:00030f60       _rdbx_check                00431f60 f   libsrtp-i386-win32-vc8-release:rdbx.obj
 0001:00030fa0       _rdbx_estimate_index       00431fa0 f   libsrtp-i386-win32-vc8-release:rdbx.obj
 0001:00030fe0       _rdbx_init                 00431fe0 f   libsrtp-i386-win32-vc8-release:rdbx.obj
 0001:00031020       _key_limit_clone           00432020 f   libsrtp-i386-win32-vc8-release:key.obj
 0001:00031040       _key_limit_set             00432040 f   libsrtp-i386-win32-vc8-release:key.obj
 0001:00031080       _key_limit_update          00432080 f   libsrtp-i386-win32-vc8-release:key.obj
 0001:000310d0       _rdb_add_index             004320d0 f   libsrtp-i386-win32-vc8-release:rdb.obj
 0001:00031120       _rdb_check                 00432120 f   libsrtp-i386-win32-vc8-release:rdb.obj
 0001:00031170       _rdb_increment             00432170 f   libsrtp-i386-win32-vc8-release:rdb.obj
 0001:00031190       _rdb_init                  00432190 f   libsrtp-i386-win32-vc8-release:rdb.obj
 0001:000311c0       _aes_decrypt               004321c0 f   libsrtp-i386-win32-vc8-release:aes.obj
 0001:00031260       _aes_encrypt               00432260 f   libsrtp-i386-win32-vc8-release:aes.obj
 0001:00031300       _aes_expand_decryption_key 00432300 f   libsrtp-i386-win32-vc8-release:aes.obj
 0001:000314e0       _aes_expand_encryption_key 004324e0 f   libsrtp-i386-win32-vc8-release:aes.obj
 0001:00031cc0       _sha1_core                 00432cc0 f   libsrtp-i386-win32-vc8-release:sha1.obj
 0001:000321d0       _sha1_final                004331d0 f   libsrtp-i386-win32-vc8-release:sha1.obj
 0001:000327e0       _sha1_init                 004337e0 f   libsrtp-i386-win32-vc8-release:sha1.obj
 0001:00032820       _sha1_update               00433820 f   libsrtp-i386-win32-vc8-release:sha1.obj
 0001:000328f0       ___WSAFDIsSet@8            004338f0 f   ws2_32:WS2_32.dll
 0001:000328f6       @__security_check_cookie@4 004338f6 f   MSVCRT:_secchk_.obj
 0001:00032b34       _mainCRTStartup            00433b34 f   MSVCRT:exe_main.obj
 0001:00032b40       __aulldiv                  00433b40 f   MSVCRT:ulldiv.obj
 0001:00032bb0       __alldiv                   00433bb0 f   MSVCRT:lldiv.obj
 0001:00032c60       ___vdecl_cos2              00433c60 f   MSVCRT:_svml_dcos2_dispatch_.obj
 0001:00032c65       ___raise_securityfailure   00433c65 f   MSVCRT:gs_report.obj
 0001:00032c8d       ___report_gsfailure        00433c8d f   MSVCRT:gs_report.obj
 0001:00032d88       ___report_rangecheckfailure 00433d88 f   MSVCRT:gs_report.obj
 0001:00032d94       ___report_securityfailure  00433d94 f   MSVCRT:gs_report.obj
 0001:00032e70       __allmul                   00433e70 f   MSVCRT:llmul.obj
 0001:00032eb0       __allshl                   00433eb0 f   MSVCRT:llshl.obj
 0001:00032ed0       __ftoui3                   00433ed0 f   MSVCRT:_ftol3_.obj
 0001:00032edf       __ftoul3                   00433edf f   MSVCRT:_ftol3_.obj
 0001:00032eee       __ftol3                    00433eee f   MSVCRT:_ftol3_.obj
 0001:00032efb       __ftol3_NaN                00433efb f   MSVCRT:_ftol3_.obj
 0001:00032f13       __ftol3_work               00433f13 f   MSVCRT:_ftol3_.obj
 0001:00032f99       __ftol3_common             00433f99 f   MSVCRT:_ftol3_.obj
 0001:0003305b       __ftol3_arg_error          0043405b f   MSVCRT:_ftol3_.obj
 0001:0003306d       __ftol3_except             0043406d f   MSVCRT:_ftol3_.obj
 0001:000330b1       __dtoui3                   004340b1 f   MSVCRT:_ftol3_.obj
 0001:000330c0       __dtoul3                   004340c0 f   MSVCRT:_ftol3_.obj
 0001:000330cf       __dtol3                    004340cf f   MSVCRT:_ftol3_.obj
 0001:000330dc       __dtol3_NaN                004340dc f   MSVCRT:_ftol3_.obj
 0001:000330f9       __dtol3_work               004340f9 f   MSVCRT:_ftol3_.obj
 0001:000331e0       __ultod3                   004341e0 f   MSVCRT:_ftol3_.obj
 0001:00033220       __ltod3                    00434220 f   MSVCRT:_ftol3_.obj
 0001:00033250       __chkstk                   00434250 f   MSVCRT:chkstk.obj
 0001:00033250       __alloca_probe             00434250 f   MSVCRT:chkstk.obj
 0001:00033280       __ftol2_sse                00434280 f   MSVCRT:_ftol2_.obj
 0001:00033289       __ftol2_pentium4           00434289 f   MSVCRT:_ftol2_.obj
 0001:0003329c       __ftol2_sse_excpt          0043429c f   MSVCRT:_ftol2_.obj
 0001:000332c0       __ftol2                    004342c0 f   MSVCRT:_ftol2_.obj
 0001:00033340       __alloca_probe_16          00434340 f   MSVCRT:alloca16.obj
 0001:00033356       __alloca_probe_8           00434356     MSVCRT:alloca16.obj
 0001:0003336c       ___isa_available_init      0043436c f   MSVCRT:_cpu_disp_.obj
 0001:0003354a       ___scrt_acquire_startup_lock 0043454a f   MSVCRT:utility.obj
 0001:0003357f       ___scrt_initialize_crt     0043457f f   MSVCRT:utility.obj
 0001:000335b8       ___scrt_initialize_onexit_tables 004345b8 f   MSVCRT:utility.obj
 0001:0003364f       ___scrt_is_nonwritable_in_current_image 0043464f f   MSVCRT:utility.obj
 0001:000336d9       ___scrt_release_startup_lock 004346d9 f   MSVCRT:utility.obj
 0001:000336f6       ___scrt_uninitialize_crt   004346f6 f   MSVCRT:utility.obj
 0001:0003371e       __onexit                   0043471e f   MSVCRT:utility.obj
 0001:00033759       _atexit                    00434759 f   MSVCRT:utility.obj
 0001:0003376e       ___security_init_cookie    0043476e f   MSVCRT:gs_support.obj
 0001:0003380a       __get_startup_argv_mode    0043480a f   MSVCRT:argv_mode.obj
 0001:00033810       __get_startup_new_mode     00434810 f   MSVCRT:new_mode.obj
 0001:00033810       _null_auth_init            00434810 f   libsrtp-i386-win32-vc8-release:null_auth.obj
 0001:00033810       __get_startup_thread_locale_mode 00434810 f   MSVCRT:thread_locale.obj
 0001:00033810       _null_cipher_encrypt       00434810 f   libsrtp-i386-win32-vc8-release:null_cipher.obj
 0001:00033810       __matherr                  00434810 f   MSVCRT:matherr.obj
 0001:00033810       __get_startup_commit_mode  00434810 f   MSVCRT:commit_mode.obj
 0001:00033810       _null_auth_compute         00434810 f   libsrtp-i386-win32-vc8-release:null_auth.obj
 0001:00033810       _null_auth_update          00434810 f   libsrtp-i386-win32-vc8-release:null_auth.obj
 0001:00033810       ___scrt_initialize_winrt   00434810 f   MSVCRT:utility_desktop.obj
 0001:00033810       _lpc_encrypt               00434810 f   libsrtp-i386-win32-vc8-release:lpc_algo.obj
 0001:00033810       _null_cipher_set_iv        00434810 f   libsrtp-i386-win32-vc8-release:null_cipher.obj
 0001:00033810       _null_auth_start           00434810 f   libsrtp-i386-win32-vc8-release:null_auth.obj
 0001:00033813       __get_startup_file_mode    00434813 f   MSVCRT:file_mode.obj
 0001:00033819       ?__scrt_initialize_type_info@@YAXXZ 00434819 f   MSVCRT:tncleanup.obj
 0001:00033825       __should_initialize_environment 00434825 f   MSVCRT:env_mode.obj
 0001:00033825       ___vcrt_uninitialize       00434825 f   MSVCRT:ucrt_stubs.obj
 0001:00033825       ___acrt_initialize         00434825 f   MSVCRT:ucrt_stubs.obj
 0001:00033825       ___acrt_uninitialize       00434825 f   MSVCRT:ucrt_stubs.obj
 0001:00033825       ___vcrt_initialize         00434825 f   MSVCRT:ucrt_stubs.obj
 0001:00033825       ___scrt_stub_for_acrt_initialize 00434825 f   MSVCRT:ucrt_stubs.obj
 0001:00033825       ___scrt_stub_for_acrt_uninitialize 00434825 f   MSVCRT:ucrt_stubs.obj
 0001:00033828       __initialize_default_precision 00434828 f   MSVCRT:default_precision.obj
 0001:00033849       ___local_stdio_scanf_options 00434849 f i MSVCRT:default_local_stdio_options.obj
 0001:0003384f       ___scrt_initialize_default_local_stdio_options 0043484f f   MSVCRT:default_local_stdio_options.obj
 0001:0003386c       ___scrt_is_user_matherr_present 0043486c f   MSVCRT:matherr_detection.obj
 0001:00033878       ___scrt_get_dyn_tls_init_callback 00434878 f   MSVCRT:dyn_tls_init.obj
 0001:0003387e       ___scrt_get_dyn_tls_dtor_callback 0043487e f   MSVCRT:dyn_tls_dtor.obj
 0001:00033884       ___scrt_fastfail           00434884 f   MSVCRT:utility_desktop.obj
 0001:0003399f       ___scrt_is_managed_app     0043499f f   MSVCRT:utility_desktop.obj
 0001:000339e3       ___scrt_set_unhandled_exception_filter 004349e3 f   MSVCRT:utility_desktop.obj
 0001:000339ef       ___scrt_unhandled_exception_filter@4 004349ef f   MSVCRT:utility_desktop.obj
 0001:00033a30       __RTC_Initialize           00434a30 f   MSVCRT:_initsect_.obj
 0001:00033a5b       __RTC_Terminate            00434a5b f   MSVCRT:_initsect_.obj
 0001:00033a86       @_guard_check_icall@4      00434a86 f i MSVCRT:checkcfg.obj
 0001:00033a90       __SEH_prolog4              00434a90 f   MSVCRT:_sehprolg4_.obj
 0001:00033ad6       __SEH_epilog4              00434ad6 f   MSVCRT:_sehprolg4_.obj
 0001:00033aeb       __except_handler4          00434aeb f   MSVCRT:_chandler4gs_.obj
 0001:00033b10       ___sse2_cos2               00434b10 f   MSVCRT:_svml_dcos2_sse2_.obj
 0001:00033cb0       ___scrt_is_ucrt_dll_in_use 00434cb0 f   MSVCRT:ucrt_detection.obj
 0001:00033cc0       ___common_sin_reduction_LA 00434cc0 f   MSVCRT:_svml_dtrig_.obj
 0001:00034010       ___common_cos_reduction_LA 00435010 f   MSVCRT:_svml_dtrig_.obj
 0001:00034300       ___common_pi04_reduction_LA 00435300 f   MSVCRT:_svml_dtrig_.obj
 0001:00034610       _IsProcessorFeaturePresent@4 00435610 f   kernel32:KERNEL32.dll
 0001:00034616       _memset                    00435616 f   vcruntime:VCRUNTIME140.dll
 0001:0003461c       _memmove                   0043561c f   vcruntime:VCRUNTIME140.dll
 0001:00034622       _memcpy                    00435622 f   vcruntime:VCRUNTIME140.dll
 0001:00034628       _strchr                    00435628 f   vcruntime:VCRUNTIME140.dll
 0001:0003462e       _longjmp                   0043562e f   vcruntime:VCRUNTIME140.dll
 0001:00034634       __except_handler4_common   00435634 f   vcruntime:VCRUNTIME140.dll
 0001:0003463a       ___acrt_iob_func           0043563a f   ucrt:api-ms-win-crt-stdio-l1-1-0.dll
 0001:00034640       ___stdio_common_vfprintf   00435640 f   ucrt:api-ms-win-crt-stdio-l1-1-0.dll
 0001:00034646       ___stdio_common_vsprintf   00435646 f   ucrt:api-ms-win-crt-stdio-l1-1-0.dll
 0001:0003464c       __stricmp                  0043564c f   ucrt:api-ms-win-crt-string-l1-1-0.dll
 0001:00034652       _isdigit                   00435652 f   ucrt:api-ms-win-crt-string-l1-1-0.dll
 0001:00034658       __libm_sse2_cos_precise    00435658 f   ucrt:api-ms-win-crt-math-l1-1-0.dll
 0001:0003465e       _strtok                    0043565e f   ucrt:api-ms-win-crt-string-l1-1-0.dll
 0001:00034664       _atoi                      00435664 f   ucrt:api-ms-win-crt-convert-l1-1-0.dll
 0001:0003466a       _isxdigit                  0043566a f   ucrt:api-ms-win-crt-string-l1-1-0.dll
 0001:00034670       __strnicmp                 00435670 f   ucrt:api-ms-win-crt-string-l1-1-0.dll
 0001:00034676       _strncpy                   00435676 f   ucrt:api-ms-win-crt-string-l1-1-0.dll
 0001:0003467c       _rand                      0043567c f   ucrt:api-ms-win-crt-utility-l1-1-0.dll
 0001:00034682       _free                      00435682 f   ucrt:api-ms-win-crt-heap-l1-1-0.dll
 0001:00034688       _malloc                    00435688 f   ucrt:api-ms-win-crt-heap-l1-1-0.dll
 0001:0003468e       __CIfmod                   0043568e f   ucrt:api-ms-win-crt-math-l1-1-0.dll
 0001:00034694       _exit                      00435694 f   ucrt:api-ms-win-crt-runtime-l1-1-0.dll
 0001:0003469a       __libm_sse2_log10_precise  0043569a f   ucrt:api-ms-win-crt-math-l1-1-0.dll
 0001:000346a0       __libm_sse2_pow_precise    004356a0 f   ucrt:api-ms-win-crt-math-l1-1-0.dll
 0001:000346a6       __libm_sse2_sqrt_precise   004356a6 f   ucrt:api-ms-win-crt-math-l1-1-0.dll
 0001:000346ac       _calloc                    004356ac f   ucrt:api-ms-win-crt-heap-l1-1-0.dll
 0001:000346b2       _realloc                   004356b2 f   ucrt:api-ms-win-crt-heap-l1-1-0.dll
 0001:000346b8       _floor                     004356b8 f   ucrt:api-ms-win-crt-math-l1-1-0.dll
 0001:000346be       __libm_sse2_exp_precise    004356be f   ucrt:api-ms-win-crt-math-l1-1-0.dll
 0001:000346c4       __libm_sse2_log_precise    004356c4 f   ucrt:api-ms-win-crt-math-l1-1-0.dll
 0001:000346ca       __libm_sse2_acos_precise   004356ca f   ucrt:api-ms-win-crt-math-l1-1-0.dll
 0001:000346d0       _perror                    004356d0 f   ucrt:api-ms-win-crt-runtime-l1-1-0.dll
 0001:000346d6       _fclose                    004356d6 f   ucrt:api-ms-win-crt-stdio-l1-1-0.dll
 0001:000346dc       _fopen                     004356dc f   ucrt:api-ms-win-crt-stdio-l1-1-0.dll
 0001:000346e2       _fputs                     004356e2 f   ucrt:api-ms-win-crt-stdio-l1-1-0.dll
 0001:000346e8       _fseek                     004356e8 f   ucrt:api-ms-win-crt-stdio-l1-1-0.dll
 0001:000346ee       __seh_filter_exe           004356ee f   ucrt:api-ms-win-crt-runtime-l1-1-0.dll
 0001:000346f4       __set_app_type             004356f4 f   ucrt:api-ms-win-crt-runtime-l1-1-0.dll
 0001:000346fa       ___setusermatherr          004356fa f   ucrt:api-ms-win-crt-math-l1-1-0.dll
 0001:00034700       __configure_narrow_argv    00435700 f   ucrt:api-ms-win-crt-runtime-l1-1-0.dll
 0001:00034706       __initialize_narrow_environment 00435706 f   ucrt:api-ms-win-crt-runtime-l1-1-0.dll
 0001:0003470c       __get_initial_narrow_environment 0043570c f   ucrt:api-ms-win-crt-runtime-l1-1-0.dll
 0001:00034712       __initterm                 00435712 f   ucrt:api-ms-win-crt-runtime-l1-1-0.dll
 0001:00034718       __initterm_e               00435718 f   ucrt:api-ms-win-crt-runtime-l1-1-0.dll
 0001:0003471e       __exit                     0043571e f   ucrt:api-ms-win-crt-runtime-l1-1-0.dll
 0001:00034724       __set_fmode                00435724 f   ucrt:api-ms-win-crt-stdio-l1-1-0.dll
 0001:0003472a       ___p___argc                0043572a f   ucrt:api-ms-win-crt-runtime-l1-1-0.dll
 0001:00034730       ___p___argv                00435730 f   ucrt:api-ms-win-crt-runtime-l1-1-0.dll
 0001:00034736       __cexit                    00435736 f   ucrt:api-ms-win-crt-runtime-l1-1-0.dll
 0001:0003473c       __c_exit                   0043573c f   ucrt:api-ms-win-crt-runtime-l1-1-0.dll
 0001:00034742       __register_thread_local_exe_atexit_callback 00435742 f   ucrt:api-ms-win-crt-runtime-l1-1-0.dll
 0001:00034748       __configthreadlocale       00435748 f   ucrt:api-ms-win-crt-locale-l1-1-0.dll
 0001:0003474e       __set_new_mode             0043574e f   ucrt:api-ms-win-crt-heap-l1-1-0.dll
 0001:00034754       ___p__commode              00435754 f   ucrt:api-ms-win-crt-stdio-l1-1-0.dll
 0001:0003475a       __except1                  0043575a f   ucrt:api-ms-win-crt-math-l1-1-0.dll
 0001:00034760       __initialize_onexit_table  00435760 f   ucrt:api-ms-win-crt-runtime-l1-1-0.dll
 0001:00034766       __register_onexit_function 00435766 f   ucrt:api-ms-win-crt-runtime-l1-1-0.dll
 0001:0003476c       __crt_atexit               0043576c f   ucrt:api-ms-win-crt-runtime-l1-1-0.dll
 0001:00034772       __controlfp_s              00435772 f   ucrt:api-ms-win-crt-runtime-l1-1-0.dll
 0001:00034778       _terminate                 00435778 f   ucrt:api-ms-win-crt-runtime-l1-1-0.dll
 0001:00034a00       _pjmedia_aud_subsys_init   00435a00 f   pjmedia-audiodev-i386-win32-vc8-release:audiodev.obj
 0001:00034ad0       _pjmedia_aud_subsys_shutdown 00435ad0 f   pjmedia-audiodev-i386-win32-vc8-release:audiodev.obj
 0001:00034b50       _pjmedia_audiodev_strerror 00435b50 f   pjmedia-audiodev-i386-win32-vc8-release:errno.obj
 0001:00035f20       _pjmedia_wmme_factory      00436f20 f   pjmedia-audiodev-i386-win32-vc8-release:wmme_dev.obj
 0002:00000000       __imp__CreateEventA@16     00438000     kernel32:KERNEL32.dll
 0002:00000004       __imp__GetModuleHandleW@4  00438004     kernel32:KERNEL32.dll
 0002:00000008       __imp__IsDebuggerPresent@0 00438008     kernel32:KERNEL32.dll
 0002:0000000c       __imp__InitializeSListHead@4 0043800c     kernel32:KERNEL32.dll
 0002:00000010       __imp__GetSystemTimeAsFileTime@4 00438010     kernel32:KERNEL32.dll
 0002:00000014       __imp__IsProcessorFeaturePresent@4 00438014     kernel32:KERNEL32.dll
 0002:00000018       __imp__TerminateProcess@8  00438018     kernel32:KERNEL32.dll
 0002:0000001c       __imp__GetCurrentProcess@0 0043801c     kernel32:KERNEL32.dll
 0002:00000020       __imp__SetUnhandledExceptionFilter@4 00438020     kernel32:KERNEL32.dll
 0002:00000024       __imp__UnhandledExceptionFilter@4 00438024     kernel32:KERNEL32.dll
 0002:00000028       __imp__FormatMessageA@28   00438028     kernel32:KERNEL32.dll
 0002:0000002c       __imp__QueryPerformanceFrequency@4 0043802c     kernel32:KERNEL32.dll
 0002:00000030       __imp__QueryPerformanceCounter@4 00438030     kernel32:KERNEL32.dll
 0002:00000034       __imp__WriteFile@20        00438034     kernel32:KERNEL32.dll
 0002:00000038       __imp__SetFilePointer@16   00438038     kernel32:KERNEL32.dll
 0002:0000003c       __imp__ReadFile@20         0043803c     kernel32:KERNEL32.dll
 0002:00000040       __imp__GetFileSize@8       00438040     kernel32:KERNEL32.dll
 0002:00000044       __imp__WaitForMultipleObjects@16 00438044     kernel32:KERNEL32.dll
 0002:00000048       __imp__CreateFileA@28      00438048     kernel32:KERNEL32.dll
 0002:0000004c       __imp__SystemTimeToFileTime@8 0043804c     kernel32:KERNEL32.dll
 0002:00000050       __imp__FileTimeToSystemTime@8 00438050     kernel32:KERNEL32.dll
 0002:00000054       __imp__GetLocalTime@4      00438054     kernel32:KERNEL32.dll
 0002:00000058       __imp__SetConsoleTextAttribute@8 00438058     kernel32:KERNEL32.dll
 0002:0000005c       __imp__GetStdHandle@4      0043805c     kernel32:KERNEL32.dll
 0002:00000060       __imp__CloseHandle@4       00438060     kernel32:KERNEL32.dll
 0002:00000064       __imp__GetLastError@0      00438064     kernel32:KERNEL32.dll
 0002:00000068       __imp__InitializeCriticalSection@4 00438068     kernel32:KERNEL32.dll
 0002:0000006c       __imp__EnterCriticalSection@4 0043806c     kernel32:KERNEL32.dll
 0002:00000070       __imp__LeaveCriticalSection@4 00438070     kernel32:KERNEL32.dll
 0002:00000074       __imp__TryEnterCriticalSection@4 00438074     kernel32:KERNEL32.dll
 0002:00000078       __imp__DeleteCriticalSection@4 00438078     kernel32:KERNEL32.dll
 0002:0000007c       __imp__SetEvent@4          0043807c     kernel32:KERNEL32.dll
 0002:00000080       __imp__ReleaseSemaphore@12 00438080     kernel32:KERNEL32.dll
 0002:00000084       __imp__WaitForSingleObject@8 00438084     kernel32:KERNEL32.dll
 0002:00000088       __imp__Sleep@4             00438088     kernel32:KERNEL32.dll
 0002:0000008c       __imp__GetCurrentProcessId@0 0043808c     kernel32:KERNEL32.dll
 0002:00000090       __imp__CreateThread@24     00438090     kernel32:KERNEL32.dll
 0002:00000094       __imp__GetCurrentThread@0  00438094     kernel32:KERNEL32.dll
 0002:00000098       __imp__GetCurrentThreadId@0 00438098     kernel32:KERNEL32.dll
 0002:0000009c       __imp__SetThreadPriority@8 0043809c     kernel32:KERNEL32.dll
 0002:000000a0       __imp__TlsAlloc@0          004380a0     kernel32:KERNEL32.dll
 0002:000000a4       __imp__TlsGetValue@4       004380a4     kernel32:KERNEL32.dll
 0002:000000a8       __imp__TlsSetValue@8       004380a8     kernel32:KERNEL32.dll
 0002:000000ac       __imp__TlsFree@4           004380ac     kernel32:KERNEL32.dll
 0002:000000b0       \177KERNEL32_NULL_THUNK_DATA 004380b0     kernel32:KERNEL32.dll
 0002:000000b4       __imp__memset              004380b4     vcruntime:VCRUNTIME140.dll
 0002:000000b8       __imp__memmove             004380b8     vcruntime:VCRUNTIME140.dll
 0002:000000bc       __imp__memcpy              004380bc     vcruntime:VCRUNTIME140.dll
 0002:000000c0       __imp__strchr              004380c0     vcruntime:VCRUNTIME140.dll
 0002:000000c4       __imp__longjmp             004380c4     vcruntime:VCRUNTIME140.dll
 0002:000000c8       __imp___except_handler4_common 004380c8     vcruntime:VCRUNTIME140.dll
 0002:000000cc       \177VCRUNTIME140_NULL_THUNK_DATA 004380cc     vcruntime:VCRUNTIME140.dll
 0002:000000d0       __imp__waveOutGetErrorTextA@12 004380d0     winmm:WINMM.dll
 0002:000000d4       __imp__waveInGetErrorTextA@12 004380d4     winmm:WINMM.dll
 0002:000000d8       __imp__waveOutGetNumDevs@0 004380d8     winmm:WINMM.dll
 0002:000000dc       __imp__waveOutGetDevCapsA@12 004380dc     winmm:WINMM.dll
 0002:000000e0       __imp__waveOutGetVolume@8  004380e0     winmm:WINMM.dll
 0002:000000e4       __imp__waveOutSetVolume@8  004380e4     winmm:WINMM.dll
 0002:000000e8       __imp__waveOutOpen@24      004380e8     winmm:WINMM.dll
 0002:000000ec       __imp__waveOutPrepareHeader@12 004380ec     winmm:WINMM.dll
 0002:000000f0       __imp__waveOutUnprepareHeader@12 004380f0     winmm:WINMM.dll
 0002:000000f4       __imp__waveOutWrite@12     004380f4     winmm:WINMM.dll
 0002:000000f8       __imp__waveOutPause@4      004380f8     winmm:WINMM.dll
 0002:000000fc       __imp__waveOutRestart@4    004380fc     winmm:WINMM.dll
 0002:00000100       __imp__waveOutReset@4      00438100     winmm:WINMM.dll
 0002:00000104       __imp__waveInGetNumDevs@0  00438104     winmm:WINMM.dll
 0002:00000108       __imp__waveInGetDevCapsA@12 00438108     winmm:WINMM.dll
 0002:0000010c       __imp__waveInOpen@24       0043810c     winmm:WINMM.dll
 0002:00000110       __imp__waveInClose@4       00438110     winmm:WINMM.dll
 0002:00000114       __imp__waveInPrepareHeader@12 00438114     winmm:WINMM.dll
 0002:00000118       __imp__waveInUnprepareHeader@12 00438118     winmm:WINMM.dll
 0002:0000011c       __imp__waveInAddBuffer@12  0043811c     winmm:WINMM.dll
 0002:00000120       __imp__waveInStart@4       00438120     winmm:WINMM.dll
 0002:00000124       __imp__waveInStop@4        00438124     winmm:WINMM.dll
 0002:00000128       __imp__waveInReset@4       00438128     winmm:WINMM.dll
 0002:0000012c       __imp__waveOutClose@4      0043812c     winmm:WINMM.dll
 0002:00000130       \177WINMM_NULL_THUNK_DATA  00438130     winmm:WINMM.dll
 0002:00000134       __imp__select@20           00438134     ws2_32:WS2_32.dll
 0002:00000138       __imp____WSAFDIsSet@8      00438138     ws2_32:WS2_32.dll
 0002:0000013c       __imp__WSAStartup@8        0043813c     ws2_32:WS2_32.dll
 0002:00000140       __imp__WSACleanup@0        00438140     ws2_32:WS2_32.dll
 0002:00000144       __imp__WSAGetLastError@0   00438144     ws2_32:WS2_32.dll
 0002:00000148       __imp__accept@12           00438148     ws2_32:WS2_32.dll
 0002:0000014c       __imp__getsockname@12      0043814c     ws2_32:WS2_32.dll
 0002:00000150       __imp__getsockopt@20       00438150     ws2_32:WS2_32.dll
 0002:00000154       __imp__htonl@4             00438154     ws2_32:WS2_32.dll
 0002:00000158       __imp__htons@4             00438158     ws2_32:WS2_32.dll
 0002:0000015c       __imp__sendto@24           0043815c     ws2_32:WS2_32.dll
 0002:00000160       __imp__send@16             00438160     ws2_32:WS2_32.dll
 0002:00000164       __imp__recvfrom@24         00438164     ws2_32:WS2_32.dll
 0002:00000168       __imp__recv@16             00438168     ws2_32:WS2_32.dll
 0002:0000016c       __imp__ntohs@4             0043816c     ws2_32:WS2_32.dll
 0002:00000170       __imp__ntohl@4             00438170     ws2_32:WS2_32.dll
 0002:00000174       \177WS2_32_NULL_THUNK_DATA 00438174     ws2_32:WS2_32.dll
 0002:00000178       __imp__atoi                00438178     ucrt:api-ms-win-crt-convert-l1-1-0.dll
 0002:0000017c       \177api-ms-win-crt-convert-l1-1-0_NULL_THUNK_DATA 0043817c     ucrt:api-ms-win-crt-convert-l1-1-0.dll
 0002:00000180       __imp__free                00438180     ucrt:api-ms-win-crt-heap-l1-1-0.dll
 0002:00000184       __imp__malloc              00438184     ucrt:api-ms-win-crt-heap-l1-1-0.dll
 0002:00000188       __imp__calloc              00438188     ucrt:api-ms-win-crt-heap-l1-1-0.dll
 0002:0000018c       __imp___set_new_mode       0043818c     ucrt:api-ms-win-crt-heap-l1-1-0.dll
 0002:00000190       __imp__realloc             00438190     ucrt:api-ms-win-crt-heap-l1-1-0.dll
 0002:00000194       \177api-ms-win-crt-heap-l1-1-0_NULL_THUNK_DATA 00438194     ucrt:api-ms-win-crt-heap-l1-1-0.dll
 0002:00000198       __imp___configthreadlocale 00438198     ucrt:api-ms-win-crt-locale-l1-1-0.dll
 0002:0000019c       \177api-ms-win-crt-locale-l1-1-0_NULL_THUNK_DATA 0043819c     ucrt:api-ms-win-crt-locale-l1-1-0.dll
 0002:000001a0       __imp___libm_sse2_sqrt_precise 004381a0     ucrt:api-ms-win-crt-math-l1-1-0.dll
 0002:000001a4       __imp___libm_sse2_cos_precise 004381a4     ucrt:api-ms-win-crt-math-l1-1-0.dll
 0002:000001a8       __imp___libm_sse2_exp_precise 004381a8     ucrt:api-ms-win-crt-math-l1-1-0.dll
 0002:000001ac       __imp____setusermatherr    004381ac     ucrt:api-ms-win-crt-math-l1-1-0.dll
 0002:000001b0       __imp___libm_sse2_log_precise 004381b0     ucrt:api-ms-win-crt-math-l1-1-0.dll
 0002:000001b4       __imp___libm_sse2_acos_precise 004381b4     ucrt:api-ms-win-crt-math-l1-1-0.dll
 0002:000001b8       __imp___except1            004381b8     ucrt:api-ms-win-crt-math-l1-1-0.dll
 0002:000001bc       __imp__floor               004381bc     ucrt:api-ms-win-crt-math-l1-1-0.dll
 0002:000001c0       __imp___libm_sse2_pow_precise 004381c0     ucrt:api-ms-win-crt-math-l1-1-0.dll
 0002:000001c4       __imp___CIfmod             004381c4     ucrt:api-ms-win-crt-math-l1-1-0.dll
 0002:000001c8       __imp___libm_sse2_log10_precise 004381c8     ucrt:api-ms-win-crt-math-l1-1-0.dll
 0002:000001cc       \177api-ms-win-crt-math-l1-1-0_NULL_THUNK_DATA 004381cc     ucrt:api-ms-win-crt-math-l1-1-0.dll
 0002:000001d0       __imp____p___argv          004381d0     ucrt:api-ms-win-crt-runtime-l1-1-0.dll
 0002:000001d4       __imp____p___argc          004381d4     ucrt:api-ms-win-crt-runtime-l1-1-0.dll
 0002:000001d8       __imp___c_exit             004381d8     ucrt:api-ms-win-crt-runtime-l1-1-0.dll
 0002:000001dc       __imp___register_thread_local_exe_atexit_callback 004381dc     ucrt:api-ms-win-crt-runtime-l1-1-0.dll
 0002:000001e0       __imp___exit               004381e0     ucrt:api-ms-win-crt-runtime-l1-1-0.dll
 0002:000001e4       __imp___initterm_e         004381e4     ucrt:api-ms-win-crt-runtime-l1-1-0.dll
 0002:000001e8       __imp__perror              004381e8     ucrt:api-ms-win-crt-runtime-l1-1-0.dll
 0002:000001ec       __imp___initterm           004381ec     ucrt:api-ms-win-crt-runtime-l1-1-0.dll
 0002:000001f0       __imp___initialize_onexit_table 004381f0     ucrt:api-ms-win-crt-runtime-l1-1-0.dll
 0002:000001f4       __imp___register_onexit_function 004381f4     ucrt:api-ms-win-crt-runtime-l1-1-0.dll
 0002:000001f8       __imp___crt_atexit         004381f8     ucrt:api-ms-win-crt-runtime-l1-1-0.dll
 0002:000001fc       __imp___controlfp_s        004381fc     ucrt:api-ms-win-crt-runtime-l1-1-0.dll
 0002:00000200       __imp__terminate           00438200     ucrt:api-ms-win-crt-runtime-l1-1-0.dll
 0002:00000204       __imp___get_initial_narrow_environment 00438204     ucrt:api-ms-win-crt-runtime-l1-1-0.dll
 0002:00000208       __imp___initialize_narrow_environment 00438208     ucrt:api-ms-win-crt-runtime-l1-1-0.dll
 0002:0000020c       __imp___configure_narrow_argv 0043820c     ucrt:api-ms-win-crt-runtime-l1-1-0.dll
 0002:00000210       __imp___set_app_type       00438210     ucrt:api-ms-win-crt-runtime-l1-1-0.dll
 0002:00000214       __imp___seh_filter_exe     00438214     ucrt:api-ms-win-crt-runtime-l1-1-0.dll
 0002:00000218       __imp__exit                00438218     ucrt:api-ms-win-crt-runtime-l1-1-0.dll
 0002:0000021c       __imp___cexit              0043821c     ucrt:api-ms-win-crt-runtime-l1-1-0.dll
 0002:00000220       \177api-ms-win-crt-runtime-l1-1-0_NULL_THUNK_DATA 00438220     ucrt:api-ms-win-crt-runtime-l1-1-0.dll
 0002:00000224       __imp____acrt_iob_func     00438224     ucrt:api-ms-win-crt-stdio-l1-1-0.dll
 0002:00000228       __imp__puts                00438228     ucrt:api-ms-win-crt-stdio-l1-1-0.dll
 0002:0000022c       __imp____stdio_common_vfprintf 0043822c     ucrt:api-ms-win-crt-stdio-l1-1-0.dll
 0002:00000230       __imp____p__commode        00438230     ucrt:api-ms-win-crt-stdio-l1-1-0.dll
 0002:00000234       __imp___set_fmode          00438234     ucrt:api-ms-win-crt-stdio-l1-1-0.dll
 0002:00000238       __imp____stdio_common_vsprintf 00438238     ucrt:api-ms-win-crt-stdio-l1-1-0.dll
 0002:0000023c       __imp__fseek               0043823c     ucrt:api-ms-win-crt-stdio-l1-1-0.dll
 0002:00000240       __imp__fputs               00438240     ucrt:api-ms-win-crt-stdio-l1-1-0.dll
 0002:00000244       __imp__fopen               00438244     ucrt:api-ms-win-crt-stdio-l1-1-0.dll
 0002:00000248       __imp__fclose              00438248     ucrt:api-ms-win-crt-stdio-l1-1-0.dll
 0002:0000024c       \177api-ms-win-crt-stdio-l1-1-0_NULL_THUNK_DATA 0043824c     ucrt:api-ms-win-crt-stdio-l1-1-0.dll
 0002:00000250       __imp___stricmp            00438250     ucrt:api-ms-win-crt-string-l1-1-0.dll
 0002:00000254       __imp__strncpy             00438254     ucrt:api-ms-win-crt-string-l1-1-0.dll
 0002:00000258       __imp___strnicmp           00438258     ucrt:api-ms-win-crt-string-l1-1-0.dll
 0002:0000025c       __imp__isxdigit            0043825c     ucrt:api-ms-win-crt-string-l1-1-0.dll
 0002:00000260       __imp__strtok              00438260     ucrt:api-ms-win-crt-string-l1-1-0.dll
 0002:00000264       __imp__isdigit             00438264     ucrt:api-ms-win-crt-string-l1-1-0.dll
 0002:00000268       \177api-ms-win-crt-string-l1-1-0_NULL_THUNK_DATA 00438268     ucrt:api-ms-win-crt-string-l1-1-0.dll
 0002:0000026c       __imp__rand                0043826c     ucrt:api-ms-win-crt-utility-l1-1-0.dll
 0002:00000270       \177api-ms-win-crt-utility-l1-1-0_NULL_THUNK_DATA 00438270     ucrt:api-ms-win-crt-utility-l1-1-0.dll
 0002:00000274       __imp__CoCreateGuid@4      00438274     ole32:ole32.dll
 0002:00000278       \177ole32_NULL_THUNK_DATA  00438278     ole32:ole32.dll
 0002:0000027c       ___guard_check_icall_fptr  0043827c     MSVCRT:guard_support.obj
 0002:00000280       ___xc_a                    00438280     MSVCRT:initializers.obj
 0002:00000288       ___xc_z                    00438288     MSVCRT:initializers.obj
 0002:0000028c       ___xi_a                    0043828c     MSVCRT:initializers.obj
 0002:00000298       ___xi_z                    00438298     MSVCRT:initializers.obj
 0002:0000029c       ___xp_a                    0043829c     MSVCRT:initializers.obj
 0002:000002a0       ___xp_z                    004382a0     MSVCRT:initializers.obj
 0002:000002a4       ___xt_a                    004382a4     MSVCRT:initializers.obj
 0002:000002a8       ___xt_z                    004382a8     MSVCRT:initializers.obj
 0002:000002b8       ??_C@_03KDMMNJLE@L16?$AA@  004382b8     pjmedia-codec-i386-win32-vc8-release:l16.obj
 0002:000002bc       ??_C@_03DPOHGIK@l16?$AA@   004382bc     pjmedia-codec-i386-win32-vc8-release:l16.obj
 0002:000002c0       ??_C@_03PDFFOBMG@GSM?$AA@  004382c0     pjmedia-codec-i386-win32-vc8-release:gsm.obj
 0002:000002c4       ??_C@_03POKOCMLK@gsm?$AA@  004382c4     pjmedia-codec-i386-win32-vc8-release:gsm.obj
 0002:00000328       ??_C@_05JPFLDMPI@speex?$AA@ 00438328     pjmedia-codec-i386-win32-vc8-release:speex_codec.obj
 0002:00000330       ??_C@_0BP@EFILPKKM@Adjusting?5quality?5to?55?5for?5uwb?$AA@ 00438330     pjmedia-codec-i386-win32-vc8-release:speex_codec.obj
 0002:00000350       ??_C@_0O@GPAECDMN@speex_codec?4c?$AA@ 00438350     pjmedia-codec-i386-win32-vc8-release:speex_codec.obj
 0002:00000360       ??_C@_04GMGOKAFF@mode?$AA@ 00438360     pjmedia-codec-i386-win32-vc8-release:ilbc.obj
 0002:00000368       ??_C@_04NEHHLPDD@iLBC?$AA@ 00438368     pjmedia-codec-i386-win32-vc8-release:ilbc.obj
 0002:00000370       ??_C@_02PJNFELNH@30?$AA@   00438370     pjmedia-codec-i386-win32-vc8-release:ilbc.obj
 0002:00000374       ??_C@_02PIBHCBOA@20?$AA@   00438374     pjmedia-codec-i386-win32-vc8-release:ilbc.obj
 0002:00000378       ??_C@_06LOAMOCKH@iLBC?$CFp?$AA@ 00438378     pjmedia-codec-i386-win32-vc8-release:ilbc.obj
 0002:00000380       ??_C@_06NIFDGHKL@ilbc?$CFp?$AA@ 00438380     pjmedia-codec-i386-win32-vc8-release:ilbc.obj
 0002:00000388       ??_C@_0DA@IJNJIJBB@Normalized?5iLBC?5encoder?5and?5deco@ 00438388     pjmedia-codec-i386-win32-vc8-release:ilbc.obj
 0002:000003b8       ??_C@_0BL@PLFPNNLG@iLBC?5codec?5opened?0?5mode?$DN?$CFd?$AA@ 004383b8     pjmedia-codec-i386-win32-vc8-release:ilbc.obj
 0002:000003d4       ??_C@_0BC@LKOHDGGA@iLBC?5codec?5closed?$AA@ 004383d4     pjmedia-codec-i386-win32-vc8-release:ilbc.obj
 0002:000003e8       ??_C@_04HEGNCJCM@G722?$AA@ 004383e8     pjmedia-codec-i386-win32-vc8-release:g722.obj
 0002:000003f0       ??_C@_04LFKMAGCI@g722?$AA@ 004383f0     pjmedia-codec-i386-win32-vc8-release:g722.obj
 0002:000003f8       _g722_qmf_coeff            004383f8     pjmedia-codec-i386-win32-vc8-release:g722_enc.obj
 0002:00000a0c       ??_C@_09GLMNEMC@codec?9mgr?$AA@ 00438a0c     pjmedia-i386-win32-vc8-release:codec.obj
 0002:00000a18       ??_C@_0L@MMBOMEDE@?$CF?4?$CKs?1?$CFu?1?$CFu?$AA@ 00438a18     pjmedia-i386-win32-vc8-release:codec.obj
 0002:00000a54       ??_C@_07OEHJJJKF@RTP?1AVP?$AA@ 00438a54     pjmedia-i386-win32-vc8-release:endpoint.obj
 0002:00000a5c       ??_C@_02BBAPPCCJ@IN?$AA@   00438a5c     pjmedia-i386-win32-vc8-release:endpoint.obj
 0002:00000a60       ??_C@_03OPDBOKBD@IP4?$AA@  00438a60     pjmedia-i386-win32-vc8-release:endpoint.obj
 0002:00000a64       ??_C@_03NNAHIIJB@IP6?$AA@  00438a64     pjmedia-i386-win32-vc8-release:endpoint.obj
 0002:00000a68       ??_C@_07HDFHIMAJ@pjmedia?$AA@ 00438a68     pjmedia-i386-win32-vc8-release:endpoint.obj
 0002:00000a70       ??_C@_08LMCBNPPN@sendrecv?$AA@ 00438a70     pjmedia-i386-win32-vc8-release:endpoint.obj
 0002:00000a7c       ??_C@_07LBNDIDNE@med?9ept?$AA@ 00438a7c     pjmedia-i386-win32-vc8-release:endpoint.obj
 0002:00000a88       ??_C@_0EL@BIFHLACC@Warning?3?5no?5worker?5thread?5is?5cre@ 00438a88     pjmedia-i386-win32-vc8-release:endpoint.obj
 0002:00000ad4       ??_C@_0L@DLFDMOGF@endpoint?4c?$AA@ 00438ad4     pjmedia-i386-win32-vc8-release:endpoint.obj
 0002:00000ae0       ??_C@_05CECBHAPI@media?$AA@ 00438ae0     pjmedia-i386-win32-vc8-release:endpoint.obj
 0002:00000ae6       ??_C@_00CNPNBAHC@?$AA@     00438ae6     pjmedia-i386-win32-vc8-release:endpoint.obj
 0002:00000ae8       ??_C@_01CLKCMJKC@?5?$AA@   00438ae8     pjmedia-i386-win32-vc8-release:endpoint.obj
 0002:00000aec       ??_C@_04DAMGJPCA@file?$AA@ 00438aec     pjmedia-i386-win32-vc8-release:wav_player.obj
 0002:00000af4       ??_C@_0DH@CJCCJAOK@actual?5value?$HMexpected?5riff?$DN?$CFx?$HM?$CFx@ 00438af4     pjmedia-i386-win32-vc8-release:wav_player.obj
 0002:00000b2c       ??_C@_0N@EAJPAIGO@wav_player?4c?$AA@ 00438b2c     pjmedia-i386-win32-vc8-release:wav_player.obj
 0002:00000b40       ??_C@_0EO@KJDBHFL@File?5player?5?8?$CF?4?$CKs?8?5created?3?5samp@ 00438b40     pjmedia-i386-win32-vc8-release:wav_player.obj
 0002:00000b90       ??_C@_0BD@LPPPNKOC@File?5port?5?$CF?4?$CKs?5EOF?$AA@ 00438b90     pjmedia-i386-win32-vc8-release:wav_player.obj
 0002:00000ba4       ??_C@_0BL@OHCCHMIC@File?5port?5?$CF?4?$CKs?5rewinding?4?4?$AA@ 00438ba4     pjmedia-i386-win32-vc8-release:wav_player.obj
 0002:00000bc0       ??_C@_0DH@EDIEAILI@File?5writer?5?8?$CF?4?$CKs?8?5created?3?5samp@ 00438bc0     pjmedia-i386-win32-vc8-release:wav_writer.obj
 0002:00000bf8       ??_C@_0N@MCLOBLAH@wav_writer?4c?$AA@ 00438bf8     pjmedia-i386-win32-vc8-release:wav_writer.obj
 0002:00000c08       ??_C@_04DHOBIHHI@PCMU?$AA@ 00438c08     pjmedia-i386-win32-vc8-release:g711.obj
 0002:00000c10       ??_C@_04BJEPFACN@PCMA?$AA@ 00438c10     pjmedia-i386-win32-vc8-release:g711.obj
 0002:00000c18       ??_C@_04JMMHOLLC@g711?$AA@ 00438c18     pjmedia-i386-win32-vc8-release:g711.obj
 0002:00000c20       ??_C@_04CEHLIMNH@g611?$AA@ 00438c20     pjmedia-i386-win32-vc8-release:g711.obj
 0002:00000c28       ??_C@_04CCFCAPFE@sd?$CFp?$AA@ 00438c28     pjmedia-i386-win32-vc8-release:silencedet.obj
 0002:00000c30       ??_C@_0CJ@FEGDIEOD@Re?9adjust?5threshold?5?$CIin?5talk?5bur@ 00438c30     pjmedia-i386-win32-vc8-release:silencedet.obj
 0002:00000c5c       ??_C@_0N@GGOMHLHN@silencedet?4c?$AA@ 00438c5c     pjmedia-i386-win32-vc8-release:silencedet.obj
 0002:00000c6c       ??_C@_0CM@HFHDPICL@Starting?5talk?5burst?5?$CIlevel?$DN?$CFd?5th@ 00438c6c     pjmedia-i386-win32-vc8-release:silencedet.obj
 0002:00000c98       ??_C@_0CG@DGOMOKAK@Re?9adjust?5threshold?5?$CIin?5silence?$CJ@ 00438c98     pjmedia-i386-win32-vc8-release:silencedet.obj
 0002:00000cc0       ??_C@_0CJ@HMFIAFFP@Starting?5silence?5?$CIlevel?$DN?$CFd?5thres@ 00438cc0     pjmedia-i386-win32-vc8-release:silencedet.obj
 0002:00000cfc       ??_C@_08MPIAKENM@RTP?1SAVP?$AA@ 00438cfc     pjmedia-i386-win32-vc8-release:sdp.obj
 0002:00000d08       ??_C@_08INHMCBAE@inactive?$AA@ 00438d08     pjmedia-i386-win32-vc8-release:sdp.obj
 0002:00001028       ??_C@_0CK@HBHLALIF@Unspecified?5PJMEDIA?5error?5?$CIPJMED@ 00439028     pjmedia-i386-win32-vc8-release:errno.obj
 0002:00001054       ??_C@_0CM@KFAONKNJ@Invalid?5SDP?5descriptor?5?$CIPJMEDIA_@ 00439054     pjmedia-i386-win32-vc8-release:errno.obj
 0002:00001080       ??_C@_0CO@ONPCFICA@Invalid?5SDP?5version?5line?5?$CIPJMEDI@ 00439080     pjmedia-i386-win32-vc8-release:errno.obj
 0002:000010b0       ??_C@_0DA@DIKNJOEJ@Invalid?5SDP?5origin?5line?5?$CIPJMEDIA@ 004390b0     pjmedia-i386-win32-vc8-release:errno.obj
 0002:000010e0       ??_C@_0CM@DLEAGODI@Invalid?5SDP?5time?5line?5?$CIPJMEDIA_S@ 004390e0     pjmedia-i386-win32-vc8-release:errno.obj
 0002:0000110c       ??_C@_0DF@HNDCDPJF@SDP?5name?1subject?5line?5is?5empty?5?$CI@ 0043910c     pjmedia-i386-win32-vc8-release:errno.obj
 0002:00001144       ??_C@_0DC@KNNPDHKA@Invalid?5SDP?5connection?5line?5?$CIPJM@ 00439144     pjmedia-i386-win32-vc8-release:errno.obj
 0002:00001178       ??_C@_0DM@NEDHCJGL@Missing?5SDP?5connection?5info?5line@ 00439178     pjmedia-i386-win32-vc8-release:errno.obj
 0002:000011b4       ??_C@_0CN@JHLMEODJ@Invalid?5SDP?5attributes?5?$CIPJMEDIA_@ 004391b4     pjmedia-i386-win32-vc8-release:errno.obj
 0002:000011e4       ??_C@_0DF@BJAALDOM@Invalid?5SDP?5rtpmap?5attribute?5?$CIPJ@ 004391e4     pjmedia-i386-win32-vc8-release:errno.obj
 0002:0000121c       ??_C@_0DL@HCOGNPAF@SDP?5rtpmap?5attribute?5too?5long?5?$CIP@ 0043921c     pjmedia-i386-win32-vc8-release:errno.obj
 0002:00001258       ??_C@_0EJ@IDNJACOO@Missing?5SDP?5rtpmap?5for?5dynamic?5p@ 00439258     pjmedia-i386-win32-vc8-release:errno.obj
 0002:000012a4       ??_C@_0CO@DIKFNJOF@Invalid?5SDP?5media?5line?5?$CIPJMEDIA_@ 004392a4     pjmedia-i386-win32-vc8-release:errno.obj
 0002:000012d4       ??_C@_0DN@GADAENKO@No?5SDP?5payload?5format?5in?5the?5med@ 004392d4     pjmedia-i386-win32-vc8-release:errno.obj
 0002:00001314       ??_C@_0DL@KAILPDC@Invalid?5SDP?5payload?5type?5in?5medi@ 00439314     pjmedia-i386-win32-vc8-release:errno.obj
 0002:00001350       ??_C@_0DB@BJCACDID@Invalid?5SDP?5fmtp?5attribute?5?$CIPJME@ 00439350     pjmedia-i386-win32-vc8-release:errno.obj
 0002:00001384       ??_C@_0DB@BKKJGGKM@Invalid?5SDP?5rtcp?5attribyte?5?$CIPJME@ 00439384     pjmedia-i386-win32-vc8-release:errno.obj
 0002:000013b8       ??_C@_0DM@JFGCNJLM@Invalid?5SDP?5media?5transport?5prot@ 004393b8     pjmedia-i386-win32-vc8-release:errno.obj
 0002:000013f4       ??_C@_0DH@PCNCDMKM@Invalid?5SDP?5bandwidth?5info?5line?5@ 004393f4     pjmedia-i386-win32-vc8-release:errno.obj
 0002:00001430       ??_C@_0EF@CJNFLCEL@Invalid?5SDP?5negotiator?5state?5for@ 00439430     pjmedia-i386-win32-vc8-release:errno.obj
 0002:00001478       ??_C@_0ED@IFOJJHNO@No?5initial?5local?5SDP?5in?5SDP?5nego@ 00439478     pjmedia-i386-win32-vc8-release:errno.obj
 0002:000014bc       ??_C@_0DL@MFMHOMBE@No?5active?5SDP?5in?5SDP?5negotiator?5@ 004394bc     pjmedia-i386-win32-vc8-release:errno.obj
 0002:000014f8       ??_C@_0DN@JGPGLEOH@No?5current?5local?1remote?5offer?1an@ 004394f8     pjmedia-i386-win32-vc8-release:errno.obj
 0002:00001538       ??_C@_0EE@BLNHOMNC@SDP?5media?5count?5mismatch?5in?5offe@ 00439538     pjmedia-i386-win32-vc8-release:errno.obj
 0002:00001580       ??_C@_0EG@MJOIPNIH@SDP?5media?5type?5mismatch?5in?5offer@ 00439580     pjmedia-i386-win32-vc8-release:errno.obj
 0002:000015c8       ??_C@_0EN@OPFCIOMP@SDP?5media?5transport?5type?5mismatc@ 004395c8     pjmedia-i386-win32-vc8-release:errno.obj
 0002:00001618       ??_C@_0ED@NGHPALDD@No?5common?5SDP?5media?5payload?5in?5a@ 00439618     pjmedia-i386-win32-vc8-release:errno.obj
 0002:00001660       ??_C@_0ED@HELGJJGO@No?5active?5media?5stream?5after?5neg@ 00439660     pjmedia-i386-win32-vc8-release:errno.obj
 0002:000016a4       ??_C@_0DP@KIMEPBPF@No?5suitable?5codec?5for?5remote?5off@ 004396a4     pjmedia-i386-win32-vc8-release:errno.obj
 0002:000016e8       ??_C@_0EM@LLMPLGCO@No?5suitable?5telephone?9event?5for?5@ 004396e8     pjmedia-i386-win32-vc8-release:errno.obj
 0002:00001738       ??_C@_0EK@LPNBCGHG@No?5suitable?5answer?5for?5unknown?5r@ 00439738     pjmedia-i386-win32-vc8-release:errno.obj
 0002:00001784       ??_C@_0DM@JMBBJEKO@SDP?5media?5descriptor?5not?5equal?5?$CI@ 00439784     pjmedia-i386-win32-vc8-release:errno.obj
 0002:000017c0       ??_C@_0ED@KAALGBMF@Port?5in?5SDP?5media?5descriptor?5not@ 004397c0     pjmedia-i386-win32-vc8-release:errno.obj
 0002:00001808       ??_C@_0EJ@FJOJLJDF@Transport?5in?5SDP?5media?5descripto@ 00439808     pjmedia-i386-win32-vc8-release:errno.obj
 0002:00001858       ??_C@_0EH@FMIFCFBA@Format?5in?5SDP?5media?5descriptor?5n@ 00439858     pjmedia-i386-win32-vc8-release:errno.obj
 0002:000018a0       ??_C@_0DK@MAHAOAHF@SDP?5connection?5line?5not?5equal?5?$CIP@ 004398a0     pjmedia-i386-win32-vc8-release:errno.obj
 0002:000018dc       ??_C@_0DF@HHCJAGLJ@SDP?5attributes?5not?5equal?5?$CIPJMEDI@ 004398dc     pjmedia-i386-win32-vc8-release:errno.obj
 0002:00001914       ??_C@_0DJ@GGABIHGL@SDP?5media?5direction?5not?5equal?5?$CIP@ 00439914     pjmedia-i386-win32-vc8-release:errno.obj
 0002:00001950       ??_C@_0DJ@FFGHKCEG@SDP?5fmtp?5attribute?5not?5equal?5?$CIPJ@ 00439950     pjmedia-i386-win32-vc8-release:errno.obj
 0002:0000198c       ??_C@_0DN@HLKACHFN@SDP?5rtpmap?5attribute?5not?5equal?5?$CI@ 0043998c     pjmedia-i386-win32-vc8-release:errno.obj
 0002:000019cc       ??_C@_0DN@EALGPLFN@SDP?5session?5descriptor?5not?5equal@ 004399cc     pjmedia-i386-win32-vc8-release:errno.obj
 0002:00001a0c       ??_C@_0DI@BLKBMMGO@SDP?5origin?5line?5not?5equal?5?$CIPJMED@ 00439a0c     pjmedia-i386-win32-vc8-release:errno.obj
 0002:00001a44       ??_C@_0DM@HCOBINN@SDP?5name?1subject?5line?5not?5equal?5@ 00439a44     pjmedia-i386-win32-vc8-release:errno.obj
 0002:00001a80       ??_C@_0DE@PFJJJNGL@SDP?5time?5line?5not?5equal?5?$CIPJMEDIA@ 00439a80     pjmedia-i386-win32-vc8-release:errno.obj
 0002:00001ab4       ??_C@_0CP@ODMIIAEN@Unsupported?5media?5codec?5?$CIPJMEDIA@ 00439ab4     pjmedia-i386-win32-vc8-release:errno.obj
 0002:00001ae4       ??_C@_0DG@KJBEJCIE@Codec?5internal?5creation?5error?5?$CIP@ 00439ae4     pjmedia-i386-win32-vc8-release:errno.obj
 0002:00001b1c       ??_C@_0DG@FOGENKNL@Codec?5frame?5is?5too?5short?5?$CIPJMEDI@ 00439b1c     pjmedia-i386-win32-vc8-release:errno.obj
 0002:00001b54       ??_C@_0DE@OLKJHMCL@PCM?5frame?5is?5too?5short?5?$CIPJMEDIA_@ 00439b54     pjmedia-i386-win32-vc8-release:errno.obj
 0002:00001b88       ??_C@_0DF@JDAOLAOM@Invalid?5codec?5frame?5length?5?$CIPJME@ 00439b88     pjmedia-i386-win32-vc8-release:errno.obj
 0002:00001bc0       ??_C@_0DG@LLBBCNCG@Invalid?5PCM?5frame?5length?5?$CIPJMEDI@ 00439bc0     pjmedia-i386-win32-vc8-release:errno.obj
 0002:00001bf8       ??_C@_0DG@EKMGLMFL@Invalid?5codec?5mode?5?$CIno?5fmtp?$DP?$CJ?5?$CIP@ 00439bf8     pjmedia-i386-win32-vc8-release:errno.obj
 0002:00001c30       ??_C@_0DJ@NJFBGAOC@Bad?5or?5corrupted?5bitstream?5?$CIPJME@ 00439c30     pjmedia-i386-win32-vc8-release:errno.obj
 0002:00001c6c       ??_C@_0DH@KOBKDDJI@Invalid?5remote?5media?5?$CIIP?$CJ?5addres@ 00439c6c     pjmedia-i386-win32-vc8-release:errno.obj
 0002:00001ca4       ??_C@_0DM@GBJMMNCF@Asymetric?5media?5codec?5is?5not?5sup@ 00439ca4     pjmedia-i386-win32-vc8-release:errno.obj
 0002:00001ce0       ??_C@_0DA@DKJJFGPE@Invalid?5media?5payload?5type?5?$CIPJME@ 00439ce0     pjmedia-i386-win32-vc8-release:errno.obj
 0002:00001d10       ??_C@_0DN@IGGOEBDI@Missing?5rtpmap?5in?5media?5descript@ 00439d10     pjmedia-i386-win32-vc8-release:errno.obj
 0002:00001d50       ??_C@_0CO@MJBLNMMI@Invalid?5media?5type?5?$CIPJMEDIA_EINV@ 00439d50     pjmedia-i386-win32-vc8-release:errno.obj
 0002:00001d80       ??_C@_0DF@NNKPPHHC@Remote?5does?5not?5support?5DTMF?5?$CIPJ@ 00439d80     pjmedia-i386-win32-vc8-release:errno.obj
 0002:00001db8       ??_C@_0CJ@ECIKMCPH@Invalid?5DTMF?5digit?5?$CIPJMEDIA_RTP_@ 00439db8     pjmedia-i386-win32-vc8-release:errno.obj
 0002:00001de4       ??_C@_0DN@EHCPFJJN@Remote?5does?5not?5support?5RFC?52833@ 00439de4     pjmedia-i386-win32-vc8-release:errno.obj
 0002:00001e24       ??_C@_0BN@LMCOIKH@Bad?5format?5?$CIPJMEDIA_EBADFMT?$CJ?$AA@ 00439e24     pjmedia-i386-win32-vc8-release:errno.obj
 0002:00001e44       ??_C@_0CI@KDAMKHEL@Invalid?5RTP?5packet?5?$CIPJMEDIA_RTP_@ 00439e44     pjmedia-i386-win32-vc8-release:errno.obj
 0002:00001e6c       ??_C@_0DL@KLDJIJLI@Invalid?5RTP?5packing?5?$CIinternal?5er@ 00439e6c     pjmedia-i386-win32-vc8-release:errno.obj
 0002:00001ea8       ??_C@_0CJ@NGKNCMFA@Invalid?5RTP?5version?5?$CIPJMEDIA_RTP@ 00439ea8     pjmedia-i386-win32-vc8-release:errno.obj
 0002:00001ed4       ??_C@_0DC@PFPAEINL@RTP?5packet?5SSRC?5id?5mismatch?5?$CIPJM@ 00439ed4     pjmedia-i386-win32-vc8-release:errno.obj
 0002:00001f08       ??_C@_0DF@KDOADJLK@RTP?5packet?5payload?5type?5mismatch@ 00439f08     pjmedia-i386-win32-vc8-release:errno.obj
 0002:00001f40       ??_C@_0CP@OBFABIAL@Invalid?5RTP?5packet?5length?5?$CIPJMED@ 00439f40     pjmedia-i386-win32-vc8-release:errno.obj
 0002:00001f70       ??_C@_0DB@HLHLKEBJ@RTP?5session?5restarted?5?$CIPJMEDIA_R@ 00439f70     pjmedia-i386-win32-vc8-release:errno.obj
 0002:00001fa4       ??_C@_0DG@OPPFJBGL@RTP?5session?5in?5probation?5?$CIPJMEDI@ 00439fa4     pjmedia-i386-win32-vc8-release:errno.obj
 0002:00001fdc       ??_C@_0DI@LFLLIJCB@Bad?5sequence?5number?5in?5RTP?5packe@ 00439fdc     pjmedia-i386-win32-vc8-release:errno.obj
 0002:00002018       ??_C@_0EE@PHAAOPAG@RTP?5media?5port?5destination?5is?5no@ 0043a018     pjmedia-i386-win32-vc8-release:errno.obj
 0002:0000205c       ??_C@_0CO@BFKJOFNE@RTP?5is?5not?5configured?5?$CIPJMEDIA_R@ 0043a05c     pjmedia-i386-win32-vc8-release:errno.obj
 0002:0000208c       ??_C@_0DI@MEKDIPIO@Media?5ports?5are?5not?5compatible?5?$CI@ 0043a08c     pjmedia-i386-win32-vc8-release:errno.obj
 0002:000020c8       ??_C@_0EA@EJPEOGMK@Media?5ports?5have?5incompatible?5cl@ 0043a0c8     pjmedia-i386-win32-vc8-release:errno.obj
 0002:00002108       ??_C@_0EL@KOIIKBFP@Media?5ports?5have?5incompatible?5sa@ 0043a108     pjmedia-i386-win32-vc8-release:errno.obj
 0002:00002154       ??_C@_0DL@FLCJCEPI@Media?5ports?5have?5incompatible?5me@ 0043a154     pjmedia-i386-win32-vc8-release:errno.obj
 0002:00002190       ??_C@_0EA@CDICINEI@Media?5ports?5have?5incompatible?5bi@ 0043a190     pjmedia-i386-win32-vc8-release:errno.obj
 0002:000021d0       ??_C@_0EB@DHIDGGBD@Media?5ports?5have?5incompatible?5by@ 0043a1d0     pjmedia-i386-win32-vc8-release:errno.obj
 0002:00002218       ??_C@_0EG@FBPNENMF@Media?5ports?5have?5incompatible?5nu@ 0043a218     pjmedia-i386-win32-vc8-release:errno.obj
 0002:00002260       ??_C@_0CO@CKCFJDML@Not?5a?5valid?5WAVE?5file?5?$CIPJMEDIA_E@ 0043a260     pjmedia-i386-win32-vc8-release:errno.obj
 0002:00002290       ??_C@_0DD@FKNCKLNB@Unsupported?5WAVE?5file?5format?5?$CIPJ@ 0043a290     pjmedia-i386-win32-vc8-release:errno.obj
 0002:000022c4       ??_C@_0CM@HKHLDPDN@WAVE?5file?5too?5short?5?$CIPJMEDIA_EWA@ 0043a2c4     pjmedia-i386-win32-vc8-release:errno.obj
 0002:000022f0       ??_C@_0DP@HHAKLPGE@Sound?5frame?5too?5large?5for?5file?5b@ 0043a2f0     pjmedia-i386-win32-vc8-release:errno.obj
 0002:00002330       ??_C@_0CK@EMOCNCPF@Unsupported?5AVI?5file?5?$CIPJMEDIA_EA@ 0043a330     pjmedia-i386-win32-vc8-release:errno.obj
 0002:0000235c       ??_C@_0DF@PKIKHNPA@No?5suitable?5sound?5capture?5device@ 0043a35c     pjmedia-i386-win32-vc8-release:errno.obj
 0002:00002394       ??_C@_0DH@NACBPKOD@No?5suitable?5sound?5playback?5devic@ 0043a394     pjmedia-i386-win32-vc8-release:errno.obj
 0002:000023cc       ??_C@_0CO@FCJGKBG@Invalid?5sound?5device?5ID?5?$CIPJMEDIA@ 0043a3cc     pjmedia-i386-win32-vc8-release:errno.obj
 0002:00002400       ??_C@_0EB@GAMOPGD@Invalid?5sample?5format?5for?5sound?5@ 0043a400     pjmedia-i386-win32-vc8-release:errno.obj
 0002:00002448       ??_C@_0FA@HAKEALMK@SRTP?5crypto?9suite?5name?5not?5match@ 0043a448     pjmedia-i386-win32-vc8-release:errno.obj
 0002:00002498       ??_C@_0EF@DCMAHBDI@Invalid?5SRTP?5key?5length?5for?5spec@ 0043a498     pjmedia-i386-win32-vc8-release:errno.obj
 0002:000024e0       ??_C@_0DL@BINEGGLM@Unsupported?5SRTP?5crypto?9suite?5?$CIP@ 0043a4e0     pjmedia-i386-win32-vc8-release:errno.obj
 0002:0000251c       ??_C@_0DP@DNDEFJI@SRTP?5SDP?5contains?5ambigue?5answer@ 0043a51c     pjmedia-i386-win32-vc8-release:errno.obj
 0002:0000255c       ??_C@_0DL@PPDCJAFI@Duplicated?5SRTP?5crypto?5tag?5?$CIPJME@ 0043a55c     pjmedia-i386-win32-vc8-release:errno.obj
 0002:00002598       ??_C@_0DK@EIEPDNB@Invalid?5SRTP?5crypto?5attribute?5?$CIP@ 0043a598     pjmedia-i386-win32-vc8-release:errno.obj
 0002:000025d4       ??_C@_0DH@JABOECDK@Invalid?5SRTP?5crypto?5tag?5?$CIPJMEDIA@ 0043a5d4     pjmedia-i386-win32-vc8-release:errno.obj
 0002:00002610       ??_C@_0EE@HKDIFKLN@Invalid?5SDP?5media?5transport?5for?5@ 0043a610     pjmedia-i386-win32-vc8-release:errno.obj
 0002:00002654       ??_C@_0DM@OPHJDJCK@SRTP?5crypto?5attribute?5required?5?$CI@ 0043a654     pjmedia-i386-win32-vc8-release:errno.obj
 0002:00002690       ??_C@_0EO@MOMMHEEA@Secure?5transport?5required?5in?5SDP@ 0043a690     pjmedia-i386-win32-vc8-release:errno.obj
 0002:000026e0       ??_C@_0BJ@JGEGOKIK@Unknown?5pjmedia?5error?5?$CFd?$AA@ 0043a6e0     pjmedia-i386-win32-vc8-release:errno.obj
 0002:00002700       _pjmedia_linear2ulaw_tab   0043a700     pjmedia-i386-win32-vc8-release:alaw_ulaw_table.obj
 0002:00006700       _pjmedia_linear2alaw_tab   0043e700     pjmedia-i386-win32-vc8-release:alaw_ulaw_table.obj
 0002:0000a700       _pjmedia_ulaw2linear_tab   00442700     pjmedia-i386-win32-vc8-release:alaw_ulaw_table.obj
 0002:0000a900       _pjmedia_alaw2linear_tab   00442900     pjmedia-i386-win32-vc8-release:alaw_ulaw_table.obj
 0002:0000ab00       ??_C@_0BO@PBEKEGBF@Failed?5to?5create?5circular?5buf?$AA@ 00442b00     pjmedia-i386-win32-vc8-release:wsola.obj
 0002:0000ab20       ??_C@_07LLDBJGIC@wsola?4c?$AA@ 00442b20     pjmedia-i386-win32-vc8-release:wsola.obj
 0002:0000ab28       __real@3f800000            00442b28     pjmedia-i386-win32-vc8-release:wsola.obj
 0002:0000ab30       __real@3fe0000000000000    00442b30     pjmedia-i386-win32-vc8-release:wsola.obj
 0002:0000ab38       __real@3ff0000000000000    00442b38     pjmedia-i386-win32-vc8-release:wsola.obj
 0002:0000ab40       __real@3ff8000000000000    00442b40     pjmedia-i386-win32-vc8-release:wsola.obj
 0002:0000ab48       __real@401921fb54442d18    00442b48     pjmedia-i386-win32-vc8-release:wsola.obj
 0002:0000ab50       __xmm@00000001000000010000000100000001 00442b50     pjmedia-i386-win32-vc8-release:wsola.obj
 0002:0000ab60       __xmm@00000003000000020000000100000000 00442b60     pjmedia-i386-win32-vc8-release:wsola.obj
 0002:0000ab70       __xmm@3fe00000000000003fe0000000000000 00442b70     pjmedia-i386-win32-vc8-release:wsola.obj
 0002:0000ab80       __xmm@401921fb54442d18401921fb54442d18 00442b80     pjmedia-i386-win32-vc8-release:wsola.obj
 0002:0000ab90       __xmm@41f00000000000000000000000000000 00442b90     pjmedia-i386-win32-vc8-release:wsola.obj
 0002:0000aba0       __xmm@41f000000000000041f0000000000000 00442ba0     pjmedia-i386-win32-vc8-release:wsola.obj
 0002:0000abb0       ??_C@_0N@FJKIJMGM@Key?5too?5long?$AA@ 00442bb0     pjmedia-i386-win32-vc8-release:transport_srtp.obj
 0002:0000abc0       ??_C@_0CH@PPONEAL@Failed?5decoding?5crypto?5key?5from?5@ 00442bc0     pjmedia-i386-win32-vc8-release:transport_srtp.obj
 0002:0000ac08       ??_C@_06LAEHEPPF@crypto?$AA@ 00442c08     pjmedia-i386-win32-vc8-release:transport_srtp.obj
 0002:0000ac10       ??_C@_0CN@IMPBKLBH@SRTP?5failed?5stop?5underlying?5medi@ 00442c10     pjmedia-i386-win32-vc8-release:transport_srtp.obj
 0002:0000ac40       ??_C@_04HIBGFPH@NULL?$AA@  00442c40     pjmedia-i386-win32-vc8-release:transport_srtp.obj
 0002:0000ac48       ??_C@_0BI@OADHPNHF@AES_CM_128_HMAC_SHA1_80?$AA@ 00442c48     pjmedia-i386-win32-vc8-release:transport_srtp.obj
 0002:0000ac60       ??_C@_0BI@NOFEHABG@AES_CM_128_HMAC_SHA1_32?$AA@ 00442c60     pjmedia-i386-win32-vc8-release:transport_srtp.obj
 0002:0000ac78       ??_C@_0BB@HGEADDBB@transport_srtp?4c?$AA@ 00442c78     pjmedia-i386-win32-vc8-release:transport_srtp.obj
 0002:0000ac8c       ??_C@_0BP@CAGNCNCA@Failed?5to?5restart?5SRTP?0?5err?$DN?$CFs?$AA@ 00442c8c     pjmedia-i386-win32-vc8-release:transport_srtp.obj
 0002:0000acac       ??_C@_0CO@EDHKLEPP@Failed?5to?5unprotect?5SRTP?0?5pkt?5si@ 00442cac     pjmedia-i386-win32-vc8-release:transport_srtp.obj
 0002:0000acdc       ??_C@_0CP@OAIPELPD@Failed?5to?5unprotect?5SRTCP?0?5pkt?5s@ 00442cdc     pjmedia-i386-win32-vc8-release:transport_srtp.obj
 0002:0000ad0c       ??_C@_0CB@DDJJDFFB@Failed?5generating?5random?5key?3?5?$CFs@ 00442d0c     pjmedia-i386-win32-vc8-release:transport_srtp.obj
 0002:0000ad30       ??_C@_0CE@BAIPFCEP@Failed?5encoding?5plain?5key?5to?5bas@ 00442d30     pjmedia-i386-win32-vc8-release:transport_srtp.obj
 0002:0000ad54       ??_C@_0BA@OGAKIHAO@?$CFd?5?$CFs?5inline?3?$CFs?$AA@ 00442d54     pjmedia-i386-win32-vc8-release:transport_srtp.obj
 0002:0000ad64       ??_C@_0BP@IBJNGPHO@Attribute?5crypto?5expecting?5tag?$AA@ 00442d64     pjmedia-i386-win32-vc8-release:transport_srtp.obj
 0002:0000ad84       ??_C@_0CI@IIDGBGP@Attribute?5crypto?5expecting?5crypt@ 00442d84     pjmedia-i386-win32-vc8-release:transport_srtp.obj
 0002:0000adac       ??_C@_01JLIPDDHJ@?3?$AA@   00442dac     pjmedia-i386-win32-vc8-release:transport_srtp.obj
 0002:0000adb0       ??_C@_0CG@JCJFEHFF@Attribute?5crypto?5expecting?5key?5m@ 00442db0     pjmedia-i386-win32-vc8-release:transport_srtp.obj
 0002:0000add8       ??_C@_06OGMBMJA@inline?$AA@ 00442dd8     pjmedia-i386-win32-vc8-release:transport_srtp.obj
 0002:0000ade0       ??_C@_0DA@ONAGIJJE@Attribute?5crypto?5key?5method?5?8?$CFs?8@ 00442de0     pjmedia-i386-win32-vc8-release:transport_srtp.obj
 0002:0000ae10       ??_C@_02MINBJDHL@?$HM?5?$AA@ 00442e10     pjmedia-i386-win32-vc8-release:transport_srtp.obj
 0002:0000ae14       ??_C@_0BP@FKKPLPLE@Attribute?5crypto?5expecting?5key?$AA@ 00442e14     pjmedia-i386-win32-vc8-release:transport_srtp.obj
 0002:0000ae34       ??_C@_02MFDMBIJM@ok?$AA@   00442e34     pjmedia-i386-win32-vc8-release:transport_srtp.obj
 0002:0000ae38       ??_C@_0BE@KFOIPNMM@unspecified?5failure?$AA@ 00442e38     pjmedia-i386-win32-vc8-release:transport_srtp.obj
 0002:0000ae4c       ??_C@_0BG@LENPEKHL@unsupported?5parameter?$AA@ 00442e4c     pjmedia-i386-win32-vc8-release:transport_srtp.obj
 0002:0000ae64       ??_C@_0BJ@DGLNBGGB@couldn?8t?5allocate?5memory?$AA@ 00442e64     pjmedia-i386-win32-vc8-release:transport_srtp.obj
 0002:0000ae80       ??_C@_0BN@LJIJFBAJ@couldn?8t?5deallocate?5properly?$AA@ 00442e80     pjmedia-i386-win32-vc8-release:transport_srtp.obj
 0002:0000aea0       ??_C@_0BE@KBPICNEA@couldn?8t?5initialize?$AA@ 00442ea0     pjmedia-i386-win32-vc8-release:transport_srtp.obj
 0002:0000aeb4       ??_C@_0CI@FEPPFOBO@can?8t?5process?5as?5much?5data?5as?5re@ 00442eb4     pjmedia-i386-win32-vc8-release:transport_srtp.obj
 0002:0000aedc       ??_C@_0BH@DJJHFLDI@authentication?5failure?$AA@ 00442edc     pjmedia-i386-win32-vc8-release:transport_srtp.obj
 0002:0000aef4       ??_C@_0P@MHOCHBCE@cipher?5failure?$AA@ 00442ef4     pjmedia-i386-win32-vc8-release:transport_srtp.obj
 0002:0000af04       ??_C@_0CA@LIFPFHJ@replay?5check?5failed?5?$CIbad?5index?$CJ?$AA@ 00442f04     pjmedia-i386-win32-vc8-release:transport_srtp.obj
 0002:0000af24       ??_C@_0CE@GCMJOMFK@replay?5check?5failed?5?$CIindex?5too?5o@ 00442f24     pjmedia-i386-win32-vc8-release:transport_srtp.obj
 0002:0000af48       ??_C@_0BO@KLFALCF@algorithm?5failed?5test?5routine?$AA@ 00442f48     pjmedia-i386-win32-vc8-release:transport_srtp.obj
 0002:0000af68       ??_C@_0BG@JKFIFBMN@unsupported?5operation?$AA@ 00442f68     pjmedia-i386-win32-vc8-release:transport_srtp.obj
 0002:0000af80       ??_C@_0BN@PDJKDLOF@no?5appropriate?5context?5found?$AA@ 00442f80     pjmedia-i386-win32-vc8-release:transport_srtp.obj
 0002:0000afa0       ??_C@_0CF@DOHHPHGD@unable?5to?5perform?5desired?5valida@ 00442fa0     pjmedia-i386-win32-vc8-release:transport_srtp.obj
 0002:0000afc8       ??_C@_0BH@NKHPNDDN@can?8t?5use?5key?5any?5more?$AA@ 00442fc8     pjmedia-i386-win32-vc8-release:transport_srtp.obj
 0002:0000afe0       ??_C@_0BH@CDHGOGDE@error?5in?5use?5of?5socket?$AA@ 00442fe0     pjmedia-i386-win32-vc8-release:transport_srtp.obj
 0002:0000aff8       ??_C@_0BL@DJFHEKEC@error?5in?5use?5POSIX?5signals?$AA@ 00442ff8     pjmedia-i386-win32-vc8-release:transport_srtp.obj
 0002:0000b014       ??_C@_0BD@HFMCMINA@nonce?5check?5failed?$AA@ 00443014     pjmedia-i386-win32-vc8-release:transport_srtp.obj
 0002:0000b028       ??_C@_0BD@FCFDDPHP@couldn?8t?5read?5data?$AA@ 00443028     pjmedia-i386-win32-vc8-release:transport_srtp.obj
 0002:0000b03c       ??_C@_0BE@PIHIJLHG@couldn?8t?5write?5data?$AA@ 0044303c     pjmedia-i386-win32-vc8-release:transport_srtp.obj
 0002:0000b050       ??_C@_0BD@PIIFGNCP@error?5pasring?5data?$AA@ 00443050     pjmedia-i386-win32-vc8-release:transport_srtp.obj
 0002:0000b064       ??_C@_0BE@FFKLLGEP@error?5encoding?5data?$AA@ 00443064     pjmedia-i386-win32-vc8-release:transport_srtp.obj
 0002:0000b078       ??_C@_0BN@OEPMNKMP@error?5while?5using?5semaphores?$AA@ 00443078     pjmedia-i386-win32-vc8-release:transport_srtp.obj
 0002:0000b098       ??_C@_0BI@JNCDFEKK@error?5while?5using?5pfkey?$AA@ 00443098     pjmedia-i386-win32-vc8-release:transport_srtp.obj
 0002:0000b0b0       ??_C@_0BJ@BOBCJFAN@Unknown?5libsrtp?5error?5?$CFd?$AA@ 004430b0     pjmedia-i386-win32-vc8-release:transport_srtp.obj
 0002:0000b0cc       ??_C@_0BB@JENPEJDI@?9?9key?5too?5long?9?9?$AA@ 004430cc     pjmedia-i386-win32-vc8-release:transport_srtp.obj
 0002:0000b0e0       ??_C@_0O@LPFLKIMI@TX?3?5?$CFs?5key?$DN?$CFs?$AA@ 004430e0     pjmedia-i386-win32-vc8-release:transport_srtp.obj
 0002:0000b0f0       ??_C@_05EPPOHEBK@?5auth?$AA@ 004430f0     pjmedia-i386-win32-vc8-release:transport_srtp.obj
 0002:0000b0f8       ??_C@_04PIHNPOJJ@?5enc?$AA@ 004430f8     pjmedia-i386-win32-vc8-release:transport_srtp.obj
 0002:0000b100       ??_C@_0BA@BONGIHBG@TX?3?5disable?$CFs?$CFs?$AA@ 00443100     pjmedia-i386-win32-vc8-release:transport_srtp.obj
 0002:0000b110       ??_C@_0O@EHJJODHO@RX?3?5?$CFs?5key?$DN?$CFs?$AA@ 00443110     pjmedia-i386-win32-vc8-release:transport_srtp.obj
 0002:0000b120       ??_C@_0BA@ENEHOOPC@RX?3?5disable?$CFs?$CFs?$AA@ 00443120     pjmedia-i386-win32-vc8-release:transport_srtp.obj
 0002:0000b130       ??_C@_0CG@KDAPJFOB@Failed?5to?5dealloc?5RX?5SRTP?5contex@ 00443130     pjmedia-i386-win32-vc8-release:transport_srtp.obj
 0002:0000b158       ??_C@_0CG@CHCMAIDE@Failed?5to?5dealloc?5TX?5SRTP?5contex@ 00443158     pjmedia-i386-win32-vc8-release:transport_srtp.obj
 0002:0000b1c0       ??_C@_04IFCNACLH@pj?$CFp?$AA@ 004431c0     pjlib-i386-win32-vc8-release:os_core_win32.obj
 0002:0000b1c8       ??_C@_0BA@NGJFHJA@PJLIB?1No?5memory?$AA@ 004431c8     pjlib-i386-win32-vc8-release:os_core_win32.obj
 0002:0000b1d8       ??_C@_0BP@NGEKBPIB@pjlib?5?$CFs?5for?5win32?5initialized?$AA@ 004431d8     pjlib-i386-win32-vc8-release:os_core_win32.obj
 0002:0000b1f8       ??_C@_0BA@FNCACAIG@os_core_win32?4c?$AA@ 004431f8     pjlib-i386-win32-vc8-release:os_core_win32.obj
 0002:0000b208       ??_C@_0CI@EAKIIBBA@Main?5thread?5stack?5max?5usage?$DN?$CFu?5b@ 00443208     pjlib-i386-win32-vc8-release:os_core_win32.obj
 0002:0000b230       ??_C@_0BK@BHGJHPMG@?4?4?2src?2pj?2os_core_win32?4c?$AA@ 00443230     pjlib-i386-win32-vc8-release:os_core_win32.obj
 0002:0000b24c       ??_C@_05KHEDLION@thr?$CFp?$AA@ 0044324c     pjlib-i386-win32-vc8-release:os_core_win32.obj
 0002:0000b254       ??_C@_0CD@GPHECFNA@Thread?5stack?5max?5usage?$DN?$CFu?5by?5?$CFs?3@ 00443254     pjlib-i386-win32-vc8-release:os_core_win32.obj
 0002:0000b278       ??_C@_05EJDHHBFJ@mtx?$CFp?$AA@ 00443278     pjlib-i386-win32-vc8-release:os_core_win32.obj
 0002:0000b280       ??_C@_0BC@OIAJPKFB@?4?4?2src?2pj?2types?4c?$AA@ 00443280     pjlib-i386-win32-vc8-release:types.obj
 0002:0000b358       ??_C@_0BM@FLPPOGAG@Unknown?5Error?5?$CIPJ_EUNKNOWN?$CJ?$AA@ 00443358     pjlib-i386-win32-vc8-release:errno.obj
 0002:0000b374       ??_C@_0CA@DCLOOJGD@Pending?5operation?5?$CIPJ_EPENDING?$CJ?$AA@ 00443374     pjlib-i386-win32-vc8-release:errno.obj
 0002:0000b394       ??_C@_0CO@GABEOAFF@Too?5many?5connecting?5sockets?5?$CIPJ_@ 00443394     pjlib-i386-win32-vc8-release:errno.obj
 0002:0000b3c4       ??_C@_0CG@CBCJBJGD@Invalid?5value?5or?5argument?5?$CIPJ_EI@ 004433c4     pjlib-i386-win32-vc8-release:errno.obj
 0002:0000b3ec       ??_C@_0CA@GJABNEKD@Name?5too?5long?5?$CIPJ_ENAMETOOLONG?$CJ?$AA@ 004433ec     pjlib-i386-win32-vc8-release:errno.obj
 0002:0000b40c       ??_C@_0BJ@JNKLPII@Not?5found?5?$CIPJ_ENOTFOUND?$CJ?$AA@ 0044340c     pjlib-i386-win32-vc8-release:errno.obj
 0002:0000b428       ??_C@_0BO@GOLCMJKK@Not?5enough?5memory?5?$CIPJ_ENOMEM?$CJ?$AA@ 00443428     pjlib-i386-win32-vc8-release:errno.obj
 0002:0000b448       ??_C@_0BI@HHGDCAID@BUG?5DETECTED?$CB?5?$CIPJ_EBUG?$CJ?$AA@ 00443448     pjlib-i386-win32-vc8-release:errno.obj
 0002:0000b460       ??_C@_0CD@JOGIDHPJ@Operation?5timed?5out?5?$CIPJ_ETIMEDOU@ 00443460     pjlib-i386-win32-vc8-release:errno.obj
 0002:0000b484       ??_C@_0DF@MIFNAIHL@Too?5many?5objects?5of?5the?5specifie@ 00443484     pjlib-i386-win32-vc8-release:errno.obj
 0002:0000b4bc       ??_C@_0BK@OMPILOH@Object?5is?5busy?5?$CIPJ_EBUSY?$CJ?$AA@ 004434bc     pjlib-i386-win32-vc8-release:errno.obj
 0002:0000b4d8       ??_C@_0CP@BAIBJOJE@Option?1operation?5is?5not?5supporte@ 004434d8     pjlib-i386-win32-vc8-release:errno.obj
 0002:0000b508       ??_C@_0CC@OEEEEEML@Invalid?5operation?5?$CIPJ_EINVALIDOP@ 00443508     pjlib-i386-win32-vc8-release:errno.obj
 0002:0000b52c       ??_C@_0CE@KDDMJLGF@Operation?5cancelled?5?$CIPJ_ECANCELL@ 0044352c     pjlib-i386-win32-vc8-release:errno.obj
 0002:0000b550       ??_C@_0CD@LODOFNLC@Object?5already?5exists?5?$CIPJ_EEXIST@ 00443550     pjlib-i386-win32-vc8-release:errno.obj
 0002:0000b574       ??_C@_0BG@GMBDFNLN@End?5of?5file?5?$CIPJ_EEOF?$CJ?$AA@ 00443574     pjlib-i386-win32-vc8-release:errno.obj
 0002:0000b58c       ??_C@_0BN@PCCNBFLN@Size?5is?5too?5big?5?$CIPJ_ETOOBIG?$CJ?$AA@ 0044358c     pjlib-i386-win32-vc8-release:errno.obj
 0002:0000b5ac       ??_C@_0DB@FDCHLEID@gethostbyname?$CI?$CJ?5has?5returned?5err@ 004435ac     pjlib-i386-win32-vc8-release:errno.obj
 0002:0000b5e0       ??_C@_0CB@MGGLJMNO@Size?5is?5too?5short?5?$CIPJ_ETOOSMALL?$CJ@ 004435e0     pjlib-i386-win32-vc8-release:errno.obj
 0002:0000b604       ??_C@_0BG@NBDJGAFI@Ignored?5?$CIPJ_EIGNORED?$CJ?$AA@ 00443604     pjlib-i386-win32-vc8-release:errno.obj
 0002:0000b61c       ??_C@_0CH@OGOOBJBE@IPv6?5is?5not?5supported?5?$CIPJ_EIPV6N@ 0044361c     pjlib-i386-win32-vc8-release:errno.obj
 0002:0000b644       ??_C@_0CK@DJAHHNOI@Unsupported?5address?5family?5?$CIPJ_E@ 00443644     pjlib-i386-win32-vc8-release:errno.obj
 0002:0000b670       ??_C@_0CD@PDGCJOJH@Object?5no?5longer?5exists?5?$CIPJ_EGON@ 00443670     pjlib-i386-win32-vc8-release:errno.obj
 0002:0000b694       ??_C@_0CI@LBHALONI@Socket?5is?5in?5bad?5state?5?$CIPJ_ESOCK@ 00443694     pjlib-i386-win32-vc8-release:errno.obj
 0002:0000b6bc       ??_C@_0BH@ONDLFCEA@Unknown?5pjlib?5error?5?$CFd?$AA@ 004436bc     pjlib-i386-win32-vc8-release:errno.obj
 0002:0000b6d4       ??_C@_07PBILKAFL@Success?$AA@ 004436d4     pjlib-i386-win32-vc8-release:errno.obj
 0002:0000b6dc       ??_C@_0BB@BIKLJNJD@Unknown?5error?5?$CFd?$AA@ 004436dc     pjlib-i386-win32-vc8-release:errno.obj
 0002:0000b6f0       ??_C@_0BA@CLLJDBF@?4?4?2src?2pj?2log?4c?$AA@ 004436f0     pjlib-i386-win32-vc8-release:log.obj
 0002:0000b700       ??_C@_06DDFOEFIF@FATAL?3?$AA@ 00443700     pjlib-i386-win32-vc8-release:log.obj
 0002:0000b708       ??_C@_06PONDCDME@ERROR?3?$AA@ 00443708     pjlib-i386-win32-vc8-release:log.obj
 0002:0000b710       ??_C@_06OHJPOJDB@?5WARN?3?$AA@ 00443710     pjlib-i386-win32-vc8-release:log.obj
 0002:0000b718       ??_C@_06ICKKLHPE@?5INFO?3?$AA@ 00443718     pjlib-i386-win32-vc8-release:log.obj
 0002:0000b720       ??_C@_06DNOFLLB@DEBUG?3?$AA@ 00443720     pjlib-i386-win32-vc8-release:log.obj
 0002:0000b728       ??_C@_06ELIFFDKB@TRACE?3?$AA@ 00443728     pjlib-i386-win32-vc8-release:log.obj
 0002:0000b730       ??_C@_06HGKAKJPG@DETRC?3?$AA@ 00443730     pjlib-i386-win32-vc8-release:log.obj
 0002:0000b738       ??_C@_03KOEHGMDN@Sun?$AA@  00443738     pjlib-i386-win32-vc8-release:log.obj
 0002:0000b73c       ??_C@_03PDAGKDH@Mon?$AA@   0044373c     pjlib-i386-win32-vc8-release:log.obj
 0002:0000b740       ??_C@_03NAGEINEP@Tue?$AA@  00443740     pjlib-i386-win32-vc8-release:log.obj
 0002:0000b744       ??_C@_03MHOMLAJA@Wed?$AA@  00443744     pjlib-i386-win32-vc8-release:log.obj
 0002:0000b748       ??_C@_03IOFIKPDN@Thu?$AA@  00443748     pjlib-i386-win32-vc8-release:log.obj
 0002:0000b74c       ??_C@_03IDIOELNC@Fri?$AA@  0044374c     pjlib-i386-win32-vc8-release:log.obj
 0002:0000b750       ??_C@_03FEFJNEK@Sat?$AA@   00443750     pjlib-i386-win32-vc8-release:log.obj
 0002:0000b754       ??_C@_0BO@BGMDCDKP@?$DMlogging?5error?3?5msg?5too?5long?$DO?$AA@ 00443754     pjlib-i386-win32-vc8-release:log.obj
 0002:0000b774       ??_C@_0BB@PKFOFEEC@?4?4?2src?2pj?2pool?4c?$AA@ 00443774     pjlib-i386-win32-vc8-release:pool.obj
 0002:0000b788       ??_C@_0BJ@MJKAJPML@?4?4?2src?2pj?2pool_caching?4c?$AA@ 00443788     pjlib-i386-win32-vc8-release:pool_caching.obj
 0002:0000b7a4       ??_C@_0M@IGFPEOLJ@cachingpool?$AA@ 004437a4     pjlib-i386-win32-vc8-release:pool_caching.obj
 0002:0000b7b0       ??_C@_0DD@ECGDPCBA@Pool?5is?5not?5released?5by?5applicat@ 004437b0     pjlib-i386-win32-vc8-release:pool_caching.obj
 0002:0000b7e4       ??_C@_0BH@BBPHJKOA@?5Dumping?5caching?5pool?3?$AA@ 004437e4     pjlib-i386-win32-vc8-release:pool_caching.obj
 0002:0000b7fc       ??_C@_08COPEICHG@cachpool?$AA@ 004437fc     pjlib-i386-win32-vc8-release:pool_caching.obj
 0002:0000b808       ??_C@_0CN@DOKPIIOH@?5?5?5Capacity?$DN?$CFu?0?5max_capacity?$DN?$CFu?0@ 00443808     pjlib-i386-win32-vc8-release:pool_caching.obj
 0002:0000b838       ??_C@_0BM@IDLDGCC@?5?5Dumping?5all?5active?5pools?3?$AA@ 00443838     pjlib-i386-win32-vc8-release:pool_caching.obj
 0002:0000b854       ??_C@_0CA@MMLIKIEG@?5?5?5?$CF16s?3?5?$CF8d?5of?5?$CF8d?5?$CI?$CFd?$CF?$CF?$CJ?5used?$AA@ 00443854     pjlib-i386-win32-vc8-release:pool_caching.obj
 0002:0000b874       ??_C@_0CB@GKBJPDKG@?5?5Total?5?$CF9d?5of?5?$CF9d?5?$CI?$CFd?5?$CF?$CF?$CJ?5used?$CB@ 00443874     pjlib-i386-win32-vc8-release:pool_caching.obj
 0002:0000b898       ??_C@_0BB@KPBPCFEE@?4?4?2src?2pj?2rand?4c?$AA@ 00443898     pjlib-i386-win32-vc8-release:rand.obj
 0002:0000b8ac       _PJ_AF_UNSPEC              004438ac     pjlib-i386-win32-vc8-release:sock_bsd.obj
 0002:0000b8b0       _PJ_AF_UNIX                004438b0     pjlib-i386-win32-vc8-release:sock_bsd.obj
 0002:0000b8b4       _PJ_AF_INET                004438b4     pjlib-i386-win32-vc8-release:sock_bsd.obj
 0002:0000b8b8       _PJ_AF_INET6               004438b8     pjlib-i386-win32-vc8-release:sock_bsd.obj
 0002:0000b8bc       _PJ_AF_PACKET              004438bc     pjlib-i386-win32-vc8-release:sock_bsd.obj
 0002:0000b8c0       _PJ_AF_IRDA                004438c0     pjlib-i386-win32-vc8-release:sock_bsd.obj
 0002:0000b8c4       _PJ_SOCK_STREAM            004438c4     pjlib-i386-win32-vc8-release:sock_bsd.obj
 0002:0000b8c8       _PJ_SOCK_DGRAM             004438c8     pjlib-i386-win32-vc8-release:sock_bsd.obj
 0002:0000b8cc       _PJ_SOCK_RAW               004438cc     pjlib-i386-win32-vc8-release:sock_bsd.obj
 0002:0000b8d0       _PJ_SOCK_RDM               004438d0     pjlib-i386-win32-vc8-release:sock_bsd.obj
 0002:0000b8d4       _PJ_SOL_SOCKET             004438d4     pjlib-i386-win32-vc8-release:sock_bsd.obj
 0002:0000b8d8       _PJ_SOL_IP                 004438d8     pjlib-i386-win32-vc8-release:sock_bsd.obj
 0002:0000b8dc       _PJ_SOL_TCP                004438dc     pjlib-i386-win32-vc8-release:sock_bsd.obj
 0002:0000b8e0       _PJ_SOL_UDP                004438e0     pjlib-i386-win32-vc8-release:sock_bsd.obj
 0002:0000b8e4       _PJ_SOL_IPV6               004438e4     pjlib-i386-win32-vc8-release:sock_bsd.obj
 0002:0000b8e8       _PJ_IP_TOS                 004438e8     pjlib-i386-win32-vc8-release:sock_bsd.obj
 0002:0000b8ec       _PJ_IPTOS_LOWDELAY         004438ec     pjlib-i386-win32-vc8-release:sock_bsd.obj
 0002:0000b8f0       _PJ_IPTOS_THROUGHPUT       004438f0     pjlib-i386-win32-vc8-release:sock_bsd.obj
 0002:0000b8f4       _PJ_IPTOS_RELIABILITY      004438f4     pjlib-i386-win32-vc8-release:sock_bsd.obj
 0002:0000b8f8       _PJ_IPTOS_MINCOST          004438f8     pjlib-i386-win32-vc8-release:sock_bsd.obj
 0002:0000b8fc       _PJ_SO_TYPE                004438fc     pjlib-i386-win32-vc8-release:sock_bsd.obj
 0002:0000b900       _PJ_SO_RCVBUF              00443900     pjlib-i386-win32-vc8-release:sock_bsd.obj
 0002:0000b904       _PJ_SO_SNDBUF              00443904     pjlib-i386-win32-vc8-release:sock_bsd.obj
 0002:0000b908       _PJ_TCP_NODELAY            00443908     pjlib-i386-win32-vc8-release:sock_bsd.obj
 0002:0000b90c       _PJ_SO_REUSEADDR           0044390c     pjlib-i386-win32-vc8-release:sock_bsd.obj
 0002:0000b910       _PJ_SO_NOSIGPIPE           00443910     pjlib-i386-win32-vc8-release:sock_bsd.obj
 0002:0000b914       _PJ_SO_PRIORITY            00443914     pjlib-i386-win32-vc8-release:sock_bsd.obj
 0002:0000b918       _PJ_IP_MULTICAST_IF        00443918     pjlib-i386-win32-vc8-release:sock_bsd.obj
 0002:0000b91c       _PJ_IP_MULTICAST_TTL       0044391c     pjlib-i386-win32-vc8-release:sock_bsd.obj
 0002:0000b920       _PJ_IP_MULTICAST_LOOP      00443920     pjlib-i386-win32-vc8-release:sock_bsd.obj
 0002:0000b924       _PJ_IP_ADD_MEMBERSHIP      00443924     pjlib-i386-win32-vc8-release:sock_bsd.obj
 0002:0000b928       _PJ_IP_DROP_MEMBERSHIP     00443928     pjlib-i386-win32-vc8-release:sock_bsd.obj
 0002:0000b92c       _PJ_MSG_OOB                0044392c     pjlib-i386-win32-vc8-release:sock_bsd.obj
 0002:0000b930       _PJ_MSG_PEEK               00443930     pjlib-i386-win32-vc8-release:sock_bsd.obj
 0002:0000b934       _PJ_MSG_DONTROUTE          00443934     pjlib-i386-win32-vc8-release:sock_bsd.obj
 0002:0000b938       ??_C@_0BF@KBJNEAPB@?4?4?2src?2pj?2sock_bsd?4c?$AA@ 00443938     pjlib-i386-win32-vc8-release:sock_bsd.obj
 0002:0000b950       ??_C@_0BD@ELEDKDKB@?4?4?2src?2pj?2string?4c?$AA@ 00443950     pjlib-i386-win32-vc8-release:string.obj
 0002:0000b964       __real@00000000            00443964     pjlib-i386-win32-vc8-release:string.obj
 0002:0000b968       __real@41200000            00443968     pjlib-i386-win32-vc8-release:string.obj
 0002:0000b96c       ??_C@_05LIJONKFG@ioq?$CFp?$AA@ 0044396c     pjlib-i386-win32-vc8-release:ioqueue_select.obj
 0002:0000b974       ??_C@_0CA@IMDCINDN@select?$CI?$CJ?5I?1O?5Queue?5created?5?$CI?$CFp?$CJ?$AA@ 00443974     pjlib-i386-win32-vc8-release:ioqueue_select.obj
 0002:0000b994       ??_C@_05PHKAINEA@pjlib?$AA@ 00443994     pjlib-i386-win32-vc8-release:ioqueue_select.obj
 0002:0000b99c       ??_C@_0CD@KFHCCJFN@?$CB?$CB?$CBFATAL?3?5unhandled?5exception?5?$CFs@ 0044399c     pjlib-i386-win32-vc8-release:except.obj
 0002:0000b9c0       ??_C@_08PDFMOJIE@except?4c?$AA@ 004439c0     pjlib-i386-win32-vc8-release:except.obj
 0002:0000b9cc       ??_C@_0N@GJOLEKJC@?$DMInvalid?5ID?$DO?$AA@ 004439cc     pjlib-i386-win32-vc8-release:except.obj
 0002:0000b9dc       ??_C@_0N@LJPLLMIL@exception?5?$CFd?$AA@ 004439dc     pjlib-i386-win32-vc8-release:except.obj
 0002:0000b9ec       _PJ_GUID_STRING_LENGTH     004439ec     pjlib-i386-win32-vc8-release:guid_win32.obj
 0002:0000b9f0       ??_C@_0BH@DLOCENPK@?4?4?2src?2pj?2guid_win32?4c?$AA@ 004439f0     pjlib-i386-win32-vc8-release:guid_win32.obj
 0002:0000ba08       ??_C@_03NGAIINE@2?44?$AA@  00443a08     pjlib-i386-win32-vc8-release:config.obj
 0002:0000ba0c       ??_C@_08DOCHLGNA@config?4c?$AA@ 00443a0c     pjlib-i386-win32-vc8-release:config.obj
 0002:0000bba8       ??_C@_0CD@FNMHLHMI@Interrupted?5system?5call?5?$CIWSAEINT@ 00443ba8     pjlib-i386-win32-vc8-release:os_error_win32.obj
 0002:0000bbcc       ??_C@_0BL@OKPDNKLH@Bad?5file?5number?5?$CIWSAEBADF?$CJ?$AA@ 00443bcc     pjlib-i386-win32-vc8-release:os_error_win32.obj
 0002:0000bbe8       ??_C@_0BO@BMBEEPBP@Permission?5denied?5?$CIWSAEACCES?$CJ?$AA@ 00443be8     pjlib-i386-win32-vc8-release:os_error_win32.obj
 0002:0000bc08       ??_C@_0BI@LAKHPJJ@Bad?5address?5?$CIWSAEFAULT?$CJ?$AA@ 00443c08     pjlib-i386-win32-vc8-release:os_error_win32.obj
 0002:0000bc20       ??_C@_0BN@FEIDINKH@Invalid?5argument?5?$CIWSAEINVAL?$CJ?$AA@ 00443c20     pjlib-i386-win32-vc8-release:os_error_win32.obj
 0002:0000bc40       ??_C@_0CC@HMKKNDGL@Too?5many?5open?5sockets?5?$CIWSAEMFILE@ 00443c40     pjlib-i386-win32-vc8-release:os_error_win32.obj
 0002:0000bc64       ??_C@_0CH@GCPPFMGM@Operation?5would?5block?5?$CIWSAEWOULD@ 00443c64     pjlib-i386-win32-vc8-release:os_error_win32.obj
 0002:0000bc8c       ??_C@_0CL@DKGHEPCD@Operation?5now?5in?5progress?5?$CIWSAEI@ 00443c8c     pjlib-i386-win32-vc8-release:os_error_win32.obj
 0002:0000bcb8       ??_C@_0CM@BEMCBKDH@Operation?5already?5in?5progress?5?$CIW@ 00443cb8     pjlib-i386-win32-vc8-release:os_error_win32.obj
 0002:0000bce4       ??_C@_0CN@PAFKDEBN@Socket?5operation?5on?5non?9socket?5?$CI@ 00443ce4     pjlib-i386-win32-vc8-release:os_error_win32.obj
 0002:0000bd14       ??_C@_0CP@HCDICECK@Destination?5address?5required?5?$CIWS@ 00443d14     pjlib-i386-win32-vc8-release:os_error_win32.obj
 0002:0000bd44       ??_C@_0BP@LNFPBFEK@Message?5too?5long?5?$CIWSAEMSGSIZE?$CJ?$AA@ 00443d44     pjlib-i386-win32-vc8-release:os_error_win32.obj
 0002:0000bd64       ??_C@_0CP@MMIMIEMF@Protocol?5wrong?5type?5for?5socket?5?$CI@ 00443d64     pjlib-i386-win32-vc8-release:os_error_win32.obj
 0002:0000bd94       ??_C@_0CF@HNFLHOHA@Bad?5protocol?5option?5?$CIWSAENOPROTO@ 00443d94     pjlib-i386-win32-vc8-release:os_error_win32.obj
 0002:0000bdbc       ??_C@_0CM@HPGHEHCE@Protocol?5not?5supported?5?$CIWSAEPROT@ 00443dbc     pjlib-i386-win32-vc8-release:os_error_win32.obj
 0002:0000bde8       ??_C@_0CP@JLBNHCOL@Socket?5type?5not?5supported?5?$CIWSAES@ 00443de8     pjlib-i386-win32-vc8-release:os_error_win32.obj
 0002:0000be18       ??_C@_0DC@GJMFANID@Operation?5not?5supported?5on?5socke@ 00443e18     pjlib-i386-win32-vc8-release:os_error_win32.obj
 0002:0000be4c       ??_C@_0DA@GFNBENIG@Protocol?5family?5not?5supported?5?$CIW@ 00443e4c     pjlib-i386-win32-vc8-release:os_error_win32.obj
 0002:0000be7c       ??_C@_0CP@MMKHGIFC@Address?5family?5not?5supported?5?$CIWS@ 00443e7c     pjlib-i386-win32-vc8-release:os_error_win32.obj
 0002:0000beac       ??_C@_0CH@OCKNFBKE@Address?5already?5in?5use?5?$CIWSAEADDR@ 00443eac     pjlib-i386-win32-vc8-release:os_error_win32.obj
 0002:0000bed4       ??_C@_0DC@FJJPJPOD@Can?8t?5assign?5requested?5address?5?$CI@ 00443ed4     pjlib-i386-win32-vc8-release:os_error_win32.obj
 0002:0000bf08       ??_C@_0BO@IICKDHLJ@Network?5is?5down?5?$CIWSAENETDOWN?$CJ?$AA@ 00443f08     pjlib-i386-win32-vc8-release:os_error_win32.obj
 0002:0000bf28       ??_C@_0CI@NKJAACME@Network?5is?5unreachable?5?$CIWSAENETU@ 00443f28     pjlib-i386-win32-vc8-release:os_error_win32.obj
 0002:0000bf50       ??_C@_0CE@LJEEEFEC@Net?5connection?5reset?5?$CIWSAENETRES@ 00443f50     pjlib-i386-win32-vc8-release:os_error_win32.obj
 0002:0000bf74       ??_C@_0DD@PGDIHOBG@Software?5caused?5connection?5abort@ 00443f74     pjlib-i386-win32-vc8-release:os_error_win32.obj
 0002:0000bfa8       ??_C@_0CJ@PJHCFAAN@Connection?5reset?5by?5peer?5?$CIWSAECO@ 00443fa8     pjlib-i386-win32-vc8-release:os_error_win32.obj
 0002:0000bfd4       ??_C@_0CH@EKNGIMKN@No?5buffer?5space?5available?5?$CIWSAEN@ 00443fd4     pjlib-i386-win32-vc8-release:os_error_win32.obj
 0002:0000bffc       ??_C@_0CJ@JOPBNNOD@Socket?5is?5already?5connected?5?$CIWSA@ 00443ffc     pjlib-i386-win32-vc8-release:os_error_win32.obj
 0002:0000c028       ??_C@_0CG@CECDMHLL@Socket?5is?5not?5connected?5?$CIWSAENOT@ 00444028     pjlib-i386-win32-vc8-release:os_error_win32.obj
 0002:0000c050       ??_C@_0DA@JGJMJPNM@Can?8t?5send?5after?5socket?5shutdown@ 00444050     pjlib-i386-win32-vc8-release:os_error_win32.obj
 0002:0000c080       ??_C@_0DE@CAILNFFE@Too?5many?5references?0?5can?8t?5splic@ 00444080     pjlib-i386-win32-vc8-release:os_error_win32.obj
 0002:0000c0b4       ??_C@_0CE@IIKHBGF@Connection?5timed?5out?5?$CIWSAETIMEDO@ 004440b4     pjlib-i386-win32-vc8-release:os_error_win32.obj
 0002:0000c0d8       ??_C@_0CF@JMKFBJH@Connection?5refused?5?$CIWSAECONNREFU@ 004440d8     pjlib-i386-win32-vc8-release:os_error_win32.obj
 0002:0000c100       ??_C@_0CN@FCKBNFMB@Too?5many?5levels?5of?5symbolic?5link@ 00444100     pjlib-i386-win32-vc8-release:os_error_win32.obj
 0002:0000c130       ??_C@_0CF@MOFKOMBB@File?5name?5too?5long?5?$CIWSAENAMETOOL@ 00444130     pjlib-i386-win32-vc8-release:os_error_win32.obj
 0002:0000c158       ??_C@_0BM@NCJCEEDP@Host?5is?5down?5?$CIWSAEHOSTDOWN?$CJ?$AA@ 00444158     pjlib-i386-win32-vc8-release:os_error_win32.obj
 0002:0000c174       ??_C@_0CD@ECJOJHBH@No?5route?5to?5host?5?$CIWSAEHOSTUNREAC@ 00444174     pjlib-i386-win32-vc8-release:os_error_win32.obj
 0002:0000c198       ??_C@_0CD@NEFLEHEG@Directory?5not?5empty?5?$CIWSAENOTEMPT@ 00444198     pjlib-i386-win32-vc8-release:os_error_win32.obj
 0002:0000c1bc       ??_C@_0CB@GPCGLHOJ@Too?5many?5processes?5?$CIWSAEPROCLIM?$CJ@ 004441bc     pjlib-i386-win32-vc8-release:os_error_win32.obj
 0002:0000c1e0       ??_C@_0BL@IGHJMJKO@Too?5many?5users?5?$CIWSAEUSERS?$CJ?$AA@ 004441e0     pjlib-i386-win32-vc8-release:os_error_win32.obj
 0002:0000c1fc       ??_C@_0CA@MIOFDKMA@Disc?5quota?5exceeded?5?$CIWSAEDQUOT?$CJ?$AA@ 004441fc     pjlib-i386-win32-vc8-release:os_error_win32.obj
 0002:0000c21c       ??_C@_0CC@IMLIDHNH@Stale?5NFS?5file?5handle?5?$CIWSAESTALE@ 0044421c     pjlib-i386-win32-vc8-release:os_error_win32.obj
 0002:0000c240       ??_C@_0CP@MLAFGPOA@Too?5many?5levels?5of?5remote?5in?5pat@ 00444240     pjlib-i386-win32-vc8-release:os_error_win32.obj
 0002:0000c270       ??_C@_0CP@IBAEMKGH@Network?5system?5is?5unavailable?5?$CIW@ 00444270     pjlib-i386-win32-vc8-release:os_error_win32.obj
 0002:0000c2a0       ??_C@_0DC@BLAKHMMJ@Winsock?5version?5out?5of?5range?5?$CIWS@ 004442a0     pjlib-i386-win32-vc8-release:os_error_win32.obj
 0002:0000c2d4       ??_C@_0CO@HPDHHDHA@WSAStartup?5not?5yet?5called?5?$CIWSANO@ 004442d4     pjlib-i386-win32-vc8-release:os_error_win32.obj
 0002:0000c304       ??_C@_0CL@GFDHEKLB@Graceful?5shutdown?5in?5progress?5?$CIW@ 00444304     pjlib-i386-win32-vc8-release:os_error_win32.obj
 0002:0000c330       ??_C@_0CD@OEALOMDH@Host?5not?5found?5?$CIWSAHOST_NOT_FOUN@ 00444330     pjlib-i386-win32-vc8-release:os_error_win32.obj
 0002:0000c354       ??_C@_0DB@KFPHELLI@No?5host?5data?5of?5that?5type?5was?5fo@ 00444354     pjlib-i386-win32-vc8-release:os_error_win32.obj
 0002:0000c388       ??_C@_0BE@JPHLLAEM@Win32?5error?5code?5?$CFu?$AA@ 00444388     pjlib-i386-win32-vc8-release:os_error_win32.obj
 0002:0000c39c       ??_C@_0BO@KBBNBAFA@?4?4?2src?2pj?2log_writer_stdout?4c?$AA@ 0044439c     pjlib-i386-win32-vc8-release:log_writer_stdout.obj
 0002:0000c3bc       ??_C@_02DKCKIIND@?$CFs?$AA@ 004443bc     pjlib-i386-win32-vc8-release:log_writer_stdout.obj
 0002:0000c3c0       ??_C@_0BP@JMMENEAD@?4?4?2src?2pj?2pool_policy_malloc?4c?$AA@ 004443c0     pjlib-i386-win32-vc8-release:pool_policy_malloc.obj
 0002:0000c3e0       __real@408f400000000000    004443e0     pjlib-i386-win32-vc8-release:os_timestamp_common.obj
 0002:0000c3e8       ??_C@_0BI@FIAAHKJ@?4?4?2src?2pj?2sock_select?4c?$AA@ 004443e8     pjlib-i386-win32-vc8-release:sock_select.obj
 0002:0000c400       __xmm@00000002000000020000000200000002 00444400     libgsmcodec-i386-win32-vc8-release:lpc.obj
 0002:0000c410       __xmm@00000004000000040000000400000004 00444410     libgsmcodec-i386-win32-vc8-release:lpc.obj
 0002:0000c420       __xmm@00000008000000080000000800000008 00444420     libgsmcodec-i386-win32-vc8-release:lpc.obj
 0002:0000c430       __xmm@00004000000040000000400000004000 00444430     libgsmcodec-i386-win32-vc8-release:lpc.obj
 0002:0000c440       __xmm@ffffbfffffffbfffffffbfffffffbfff 00444440     libgsmcodec-i386-win32-vc8-release:lpc.obj
 0002:0000c450       __xmm@ffffffffffffffffffffffffffffffff 00444450     libgsmcodec-i386-win32-vc8-release:lpc.obj
 0002:0000c560       __real@3e2aaaab            00444560     libilbccodec-i386-win32-vc8-release:FrameClassify.obj
 0002:0000c564       __real@3eaaaaab            00444564     libilbccodec-i386-win32-vc8-release:FrameClassify.obj
 0002:0000c568       __real@3f000000            00444568     libilbccodec-i386-win32-vc8-release:FrameClassify.obj
 0002:0000c56c       __real@3f2aaaab            0044456c     libilbccodec-i386-win32-vc8-release:FrameClassify.obj
 0002:0000c570       __real@3f555555            00444570     libilbccodec-i386-win32-vc8-release:FrameClassify.obj
 0002:0000c580       __xmm@3f6666663f8000003f6666663f4ccccd 00444580     libilbccodec-i386-win32-vc8-release:FrameClassify.obj
 0002:0000c590       __real@4024000000000000    00444590     libilbccodec-i386-win32-vc8-release:StateSearchW.obj
 0002:0000c598       __real@40900000            00444598     libilbccodec-i386-win32-vc8-release:StateSearchW.obj
 0002:0000c5a0       __xmm@7fffffffffffffff7fffffffffffffff 004445a0     libilbccodec-i386-win32-vc8-release:StateSearchW.obj
 0002:0000c5b0       __real@25800000            004445b0     libilbccodec-i386-win32-vc8-release:iCBSearch.obj
 0002:0000c5b4       __real@3fa66666            004445b4     libilbccodec-i386-win32-vc8-release:iCBSearch.obj
 0002:0000c5b8       __real@3ff4ccccc0000000    004445b8     libilbccodec-i386-win32-vc8-release:iCBSearch.obj
 0002:0000c5c0       __real@cb189680            004445c0     libilbccodec-i386-win32-vc8-release:iCBSearch.obj
 0002:0000c5c8       _ULP_20msTbl               004445c8     libilbccodec-i386-win32-vc8-release:constants.obj
 0002:0000c9d8       _ULP_30msTbl               004449d8     libilbccodec-i386-win32-vc8-release:constants.obj
 0002:0000cde8       __real@3e999999            00444de8     libilbccodec-i386-win32-vc8-release:doCPLC.obj
 0002:0000cdec       __real@3ecccccd            00444dec     libilbccodec-i386-win32-vc8-release:doCPLC.obj
 0002:0000cdf0       __real@3f333333            00444df0     libilbccodec-i386-win32-vc8-release:doCPLC.obj
 0002:0000cdf4       __real@3f666666            00444df4     libilbccodec-i386-win32-vc8-release:doCPLC.obj
 0002:0000cdf8       __real@3f733333            00444df8     libilbccodec-i386-win32-vc8-release:doCPLC.obj
 0002:0000ce00       __real@403e000000000000    00444e00     libilbccodec-i386-win32-vc8-release:doCPLC.obj
 0002:0000ce08       __real@7cf0bdc2            00444e08     libilbccodec-i386-win32-vc8-release:helpfun.obj
 0002:0000ce10       __xmm@80000000800000008000000080000000 00444e10     libilbccodec-i386-win32-vc8-release:helpfun.obj
 0002:0000ce20       __real@3e800000            00444e20     libilbccodec-i386-win32-vc8-release:enhancer.obj
 0002:0000ce28       __real@3f1a36e2eb1c432d    00444e28     libilbccodec-i386-win32-vc8-release:enhancer.obj
 0002:0000ce30       __real@40000000            00444e30     libilbccodec-i386-win32-vc8-release:enhancer.obj
 0002:0000ce34       __real@40c90fdb            00444e34     libilbccodec-i386-win32-vc8-release:enhancer.obj
 0002:0000ce38       __real@42200000            00444e38     libilbccodec-i386-win32-vc8-release:enhancer.obj
 0002:0000ce3c       __real@42a40000            00444e3c     libilbccodec-i386-win32-vc8-release:enhancer.obj
 0002:0000ce40       __real@bf000000            00444e40     libilbccodec-i386-win32-vc8-release:enhancer.obj
 0002:0000ce50       __xmm@0000000a0000000a0000000a0000000a 00444e50     libilbccodec-i386-win32-vc8-release:enhancer.obj
 0002:0000ce60       __xmm@3f0000003f0000003f0000003f000000 00444e60     libilbccodec-i386-win32-vc8-release:enhancer.obj
 0002:0000ce70       __xmm@3f8000003f8000003f8000003f800000 00444e70     libilbccodec-i386-win32-vc8-release:enhancer.obj
 0002:0000ce80       __xmm@40000000400000004000000040000000 00444e80     libilbccodec-i386-win32-vc8-release:enhancer.obj
 0002:0000ce90       __xmm@40c90fdb40c90fdb40c90fdb40c90fdb 00444e90     libilbccodec-i386-win32-vc8-release:enhancer.obj
 0002:0000cea0       __xmm@41200000412000004120000041200000 00444ea0     libilbccodec-i386-win32-vc8-release:enhancer.obj
 0002:0000ceb0       __real@3bd013a9            00444eb0     libilbccodec-i386-win32-vc8-release:lsf.obj
 0002:0000ceb4       __real@41100000            00444eb4     libilbccodec-i386-win32-vc8-release:lsf.obj
 0002:0000ceb8       __real@bf800000            00444eb8     libilbccodec-i386-win32-vc8-release:lsf.obj
 0002:0000cec0       __xmm@3a5013a93ad013a93b5013a93bd013a9 00444ec0     libilbccodec-i386-win32-vc8-release:lsf.obj
 0002:0000ced0       __xmm@3e22f9833e22f9833e22f9833e22f983 00444ed0     libilbccodec-i386-win32-vc8-release:lsf.obj
 0002:0000cee0       __real@3dcccccd            00444ee0     libilbccodec-i386-win32-vc8-release:gainquant.obj
 0002:0000cee8       __real@3fb999999999999a    00444ee8     libilbccodec-i386-win32-vc8-release:gainquant.obj
 0002:0000cef0       __real@4b189680            00444ef0     libilbccodec-i386-win32-vc8-release:gainquant.obj
 0002:0000cef4       __real@3e4ccccd            00444ef4     libilbccodec-i386-win32-vc8-release:createCB.obj
 0002:0000cef8       _speex_nb_mode             00444ef8     libspeex-i386-win32-vc8-release:modes.obj
 0002:0000d228       ??_C@_0L@NALGBMGK@narrowband?$AA@ 00445228     libspeex-i386-win32-vc8-release:modes.obj
 0002:0000d234       ??_C@_0BC@FNCFDNHJ@notification?3?5?$CFs?6?$AA@ 00445234     libspeex-i386-win32-vc8-release:bits.obj
 0002:0000d248       ??_C@_0CH@JHNNOEKH@Packet?5is?5larger?5than?5allocated?5@ 00445248     libspeex-i386-win32-vc8-release:bits.obj
 0002:0000d270       ??_C@_0DA@MPJMFLGI@Could?5not?5resize?5input?5buffer?3?5t@ 00445270     libspeex-i386-win32-vc8-release:bits.obj
 0002:0000d2a0       ??_C@_0M@FDFEAFGN@warning?3?5?$CFs?$AA@ 004452a0     libspeex-i386-win32-vc8-release:bits.obj
 0002:0000d2ac       ??_C@_0DD@HLOIJDCP@Do?5not?5own?5input?5buffer?3?5truncat@ 004452ac     libspeex-i386-win32-vc8-release:bits.obj
 0002:0000d2e0       ??_C@_0BO@DBLCIOHH@Buffer?5too?5small?5to?5pack?5bits?$AA@ 004452e0     libspeex-i386-win32-vc8-release:bits.obj
 0002:0000d300       ??_C@_0CL@NBHNDCMK@Could?5not?5resize?5input?5buffer?3?5n@ 00445300     libspeex-i386-win32-vc8-release:bits.obj
 0002:0000d32c       ??_C@_0CF@BOBDAKDJ@Do?5not?5own?5input?5buffer?3?5not?5pac@ 0044532c     libspeex-i386-win32-vc8-release:bits.obj
 0002:0000d354       ??_C@_0CA@ELGIOMID@Unknown?5nb_mode_query?5request?3?5?$AA@ 00445354     libspeex-i386-win32-vc8-release:speex.obj
 0002:0000d374       ??_C@_0BA@JHIGFAJK@warning?3?5?$CFs?3?5?$CFd?$AA@ 00445374     libspeex-i386-win32-vc8-release:speex.obj
 0002:0000d384       ??_C@_0CA@GHCLMKCH@Unknown?5wb_mode_query?5request?3?5?$AA@ 00445384     libspeex-i386-win32-vc8-release:speex.obj
 0002:0000d3a4       __real@46fffe00            004453a4     libspeex-i386-win32-vc8-release:speex.obj
 0002:0000d3a8       __real@c7000000            004453a8     libspeex-i386-win32-vc8-release:speex.obj
 0002:0000d55c       _speex_wb_mode             0044555c     libspeex-i386-win32-vc8-release:modes_wb.obj
 0002:0000d590       _speex_uwb_mode            00445590     libspeex-i386-win32-vc8-release:modes_wb.obj
 0002:0000d5c4       _speex_mode_list           004455c4     libspeex-i386-win32-vc8-release:modes_wb.obj
 0002:0000d674       ??_C@_0BJ@NCPFBLIG@wideband?5?$CIsub?9band?5CELP?$CJ?$AA@ 00445674     libspeex-i386-win32-vc8-release:modes_wb.obj
 0002:0000d690       ??_C@_0BP@OEPNAOAL@ultra?9wideband?5?$CIsub?9band?5CELP?$CJ?$AA@ 00445690     libspeex-i386-win32-vc8-release:modes_wb.obj
 0002:0000d6b0       _exc_gain_quant_scal3_bound 004456b0     libspeex-i386-win32-vc8-release:nb_celp.obj
 0002:0000d6cc       _exc_gain_quant_scal3      004456cc     libspeex-i386-win32-vc8-release:nb_celp.obj
 0002:0000d6ec       _exc_gain_quant_scal1_bound 004456ec     libspeex-i386-win32-vc8-release:nb_celp.obj
 0002:0000d6f0       _exc_gain_quant_scal1      004456f0     libspeex-i386-win32-vc8-release:nb_celp.obj
 0002:0000d6f8       _attenuation               004456f8     libspeex-i386-win32-vc8-release:nb_celp.obj
 0002:0000d740       ??_C@_0CL@OLCMCGJA@Fatal?5?$CIinternal?$CJ?5error?5in?5?$CFs?0?5li@ 00445740     libspeex-i386-win32-vc8-release:nb_celp.obj
 0002:0000d76c       ??_C@_0BP@DLKMJDGK@?4?4?2?4?4?2speex?2libspeex?2nb_celp?4c?$AA@ 0044576c     libspeex-i386-win32-vc8-release:nb_celp.obj
 0002:0000d790       ??_C@_0ED@BDOMFGAK@assertion?5failed?3?5st?9?$DOwindowSize@ 00445790     libspeex-i386-win32-vc8-release:nb_celp.obj
 0002:0000d7d4       ??_C@_0CF@KEPONAKN@assertion?5failed?3?5SUBMODE?$CIltp_qu@ 004457d4     libspeex-i386-win32-vc8-release:nb_celp.obj
 0002:0000d7fc       ??_C@_0CM@PGGHFKNH@assertion?5failed?3?5SUBMODE?$CIinnova@ 004457fc     libspeex-i386-win32-vc8-release:nb_celp.obj
 0002:0000d828       ??_C@_0DD@IFFBIDOE@Invalid?5mode?5encountered?4?5The?5st@ 00445828     libspeex-i386-win32-vc8-release:nb_celp.obj
 0002:0000d85c       ??_C@_0DO@OMOPNNBK@More?5than?5two?5wideband?5layers?5fo@ 0044585c     libspeex-i386-win32-vc8-release:nb_celp.obj
 0002:0000d89c       ??_C@_0CH@FGPFIBHI@assertion?5failed?3?5SUBMODE?$CIltp_un@ 0044589c     libspeex-i386-win32-vc8-release:nb_celp.obj
 0002:0000d8c4       ??_C@_0CO@IOEICIKD@assertion?5failed?3?5SUBMODE?$CIinnova@ 004458c4     libspeex-i386-win32-vc8-release:nb_celp.obj
 0002:0000d8f4       ??_C@_0BJ@LJJDMLEK@Unknown?5nb_ctl?5request?3?5?$AA@ 004458f4     libspeex-i386-win32-vc8-release:nb_celp.obj
 0002:0000d910       __real@26901d7d            00445910     libspeex-i386-win32-vc8-release:nb_celp.obj
 0002:0000d914       __real@3d4ccccd            00445914     libspeex-i386-win32-vc8-release:nb_celp.obj
 0002:0000d918       __real@3e19999a            00445918     libspeex-i386-win32-vc8-release:nb_celp.obj
 0002:0000d91c       __real@3e99999a            0044591c     libspeex-i386-win32-vc8-release:nb_celp.obj
 0002:0000d920       __real@3ee8ba1f            00445920     libspeex-i386-win32-vc8-release:nb_celp.obj
 0002:0000d924       __real@3f4ccccd            00445924     libspeex-i386-win32-vc8-release:nb_celp.obj
 0002:0000d928       __real@3f59999a            00445928     libspeex-i386-win32-vc8-release:nb_celp.obj
 0002:0000d92c       __real@3f7d70a4            0044592c     libspeex-i386-win32-vc8-release:nb_celp.obj
 0002:0000d930       __real@3f8147ae            00445930     libspeex-i386-win32-vc8-release:nb_celp.obj
 0002:0000d938       __real@3fa999999999999a    00445938     libspeex-i386-win32-vc8-release:nb_celp.obj
 0002:0000d940       __real@3fb11116a8b8f14e    00445940     libspeex-i386-win32-vc8-release:nb_celp.obj
 0002:0000d948       __real@3fc00000            00445948     libspeex-i386-win32-vc8-release:nb_celp.obj
 0002:0000d950       __real@3fd0000000000000    00445950     libspeex-i386-win32-vc8-release:nb_celp.obj
 0002:0000d958       __real@3fe3333333333333    00445958     libspeex-i386-win32-vc8-release:nb_celp.obj
 0002:0000d960       __real@3fe570a3d70a3d71    00445960     libspeex-i386-win32-vc8-release:nb_celp.obj
 0002:0000d968       __real@3fe999999999999a    00445968     libspeex-i386-win32-vc8-release:nb_celp.obj
 0002:0000d970       __real@3feb333333333333    00445970     libspeex-i386-win32-vc8-release:nb_celp.obj
 0002:0000d978       __real@3feccccccccccccd    00445978     libspeex-i386-win32-vc8-release:nb_celp.obj
 0002:0000d980       __real@3fee666666666666    00445980     libspeex-i386-win32-vc8-release:nb_celp.obj
 0002:0000d988       __real@3ff199999999999a    00445988     libspeex-i386-win32-vc8-release:nb_celp.obj
 0002:0000d990       __real@400bb6ae7d566cf4    00445990     libspeex-i386-win32-vc8-release:nb_celp.obj
 0002:0000d998       __real@400c000000000000    00445998     libspeex-i386-win32-vc8-release:nb_celp.obj
 0002:0000d9a0       __real@400ccccd            004459a0     libspeex-i386-win32-vc8-release:nb_celp.obj
 0002:0000d9a4       __real@40490fdb            004459a4     libspeex-i386-win32-vc8-release:nb_celp.obj
 0002:0000d9a8       __real@41700000            004459a8     libspeex-i386-win32-vc8-release:nb_celp.obj
 0002:0000d9ac       __real@42c80000            004459ac     libspeex-i386-win32-vc8-release:nb_celp.obj
 0002:0000d9b0       __real@bd4ccccd            004459b0     libspeex-i386-win32-vc8-release:nb_celp.obj
 0002:0000d9b8       __real@bee4f8b588e368f1    004459b8     libspeex-i386-win32-vc8-release:nb_celp.obj
 0002:0000d9c0       __real@bfa999999999999a    004459c0     libspeex-i386-win32-vc8-release:nb_celp.obj
 0002:0000d9c8       __real@bfc999999999999a    004459c8     libspeex-i386-win32-vc8-release:nb_celp.obj
 0002:0000d9d0       __real@bfe0000000000000    004459d0     libspeex-i386-win32-vc8-release:nb_celp.obj
 0002:0000d9d8       __real@c00bb6ae7d566cf4    004459d8     libspeex-i386-win32-vc8-release:nb_celp.obj
 0002:0000d9e0       _gain_cdbk_nb              004459e0     libspeex-i386-win32-vc8-release:gain_table.obj
 0002:0000dbe0       _gain_cdbk_lbr             00445be0     libspeex-i386-win32-vc8-release:gain_table_lbr.obj
 0002:0000dc60       _exc_5_256_table           00445c60     libspeex-i386-win32-vc8-release:exc_5_256_table.obj
 0002:0000e160       _exc_5_64_table            00446160     libspeex-i386-win32-vc8-release:exc_5_64_table.obj
 0002:0000e2a0       _exc_8_128_table           004462a0     libspeex-i386-win32-vc8-release:exc_8_128_table.obj
 0002:0000e6a0       _exc_10_32_table           004466a0     libspeex-i386-win32-vc8-release:exc_10_32_table.obj
 0002:0000e7e0       _exc_10_16_table           004467e0     libspeex-i386-win32-vc8-release:exc_10_16_table.obj
 0002:0000e880       _exc_20_32_table           00446880     libspeex-i386-win32-vc8-release:exc_20_32_table.obj
 0002:0000eb00       __real@3f90000000000000    00446b00     libspeex-i386-win32-vc8-release:ltp.obj
 0002:0000eb08       __real@3f947ae147ae147b    00446b08     libspeex-i386-win32-vc8-release:ltp.obj
 0002:0000eb10       __real@3fa0000000000000    00446b10     libspeex-i386-win32-vc8-release:ltp.obj
 0002:0000eb18       __real@3fefae147ae147ae    00446b18     libspeex-i386-win32-vc8-release:ltp.obj
 0002:0000eb20       __real@41f80000            00446b20     libspeex-i386-win32-vc8-release:ltp.obj
 0002:0000eb24       __real@42000000            00446b24     libspeex-i386-win32-vc8-release:ltp.obj
 0002:0000eb28       __real@42800000            00446b28     libspeex-i386-win32-vc8-release:ltp.obj
 0002:0000eb2c       __real@43000000            00446b2c     libspeex-i386-win32-vc8-release:ltp.obj
 0002:0000eb30       __real@44800000            00446b30     libspeex-i386-win32-vc8-release:ltp.obj
 0002:0000eb34       __real@48800000            00446b34     libspeex-i386-win32-vc8-release:ltp.obj
 0002:0000eb38       __real@d8635fa9            00446b38     libspeex-i386-win32-vc8-release:ltp.obj
 0002:0000eb40       __real@3f4ffffaa19c4774    00446b40     libspeex-i386-win32-vc8-release:quant_lsp.obj
 0002:0000eb48       __real@3f5fffe5280d6543    00446b48     libspeex-i386-win32-vc8-release:quant_lsp.obj
 0002:0000eb50       __real@3f6fffe5280d6543    00446b50     libspeex-i386-win32-vc8-release:quant_lsp.obj
 0002:0000eb58       __real@3fa47ae147ae147b    00446b58     libspeex-i386-win32-vc8-release:quant_lsp.obj
 0002:0000eb60       __real@3fd4000000000000    00446b60     libspeex-i386-win32-vc8-release:quant_lsp.obj
 0002:0000eb68       __real@3fe8000000000000    00446b68     libspeex-i386-win32-vc8-release:quant_lsp.obj
 0002:0000eb70       __real@400921fb54442d18    00446b70     libspeex-i386-win32-vc8-release:quant_lsp.obj
 0002:0000eb78       __real@4070000000000000    00446b78     libspeex-i386-win32-vc8-release:quant_lsp.obj
 0002:0000eb80       __real@58635fa9            00446b80     libspeex-i386-win32-vc8-release:quant_lsp.obj
 0002:0000eb90       __xmm@3fd00000000000003fd0000000000000 00446b90     libspeex-i386-win32-vc8-release:quant_lsp.obj
 0002:0000eba0       __xmm@3fd40000000000003fd4000000000000 00446ba0     libspeex-i386-win32-vc8-release:quant_lsp.obj
 0002:0000ebb0       __xmm@3fe80000000000003fe8000000000000 00446bb0     libspeex-i386-win32-vc8-release:quant_lsp.obj
 0002:0000ebc0       __real@3d000000            00446bc0     libspeex-i386-win32-vc8-release:cb_search.obj
 0002:0000ebc8       _hexc_table                00446bc8     libspeex-i386-win32-vc8-release:hexc_table.obj
 0002:0000efc8       _hexc_10_32_table          00446fc8     libspeex-i386-win32-vc8-release:hexc_10_32_table.obj
 0002:0000f2c8       __real@3e000000            004472c8     libspeex-i386-win32-vc8-release:sb_celp.obj
 0002:0000f2cc       __real@3f350529            004472cc     libspeex-i386-win32-vc8-release:sb_celp.obj
 0002:0000f2d0       __real@3f847ae147ae147b    004472d0     libspeex-i386-win32-vc8-release:sb_celp.obj
 0002:0000f2d8       __real@3fb50481            004472d8     libspeex-i386-win32-vc8-release:sb_celp.obj
 0002:0000f2e0       __real@3febf487fcb923a3    004472e0     libspeex-i386-win32-vc8-release:sb_celp.obj
 0002:0000f2e8       __real@4000000000000000    004472e8     libspeex-i386-win32-vc8-release:sb_celp.obj
 0002:0000f2f0       __real@40200000            004472f0     libspeex-i386-win32-vc8-release:sb_celp.obj
 0002:0000f2f4       __real@bdcccccd            004472f4     libspeex-i386-win32-vc8-release:sb_celp.obj
 0002:0000f2f8       __real@bfb999999999999a    004472f8     libspeex-i386-win32-vc8-release:sb_celp.obj
 0002:0000f300       __real@c0800000            00447300     libspeex-i386-win32-vc8-release:sb_celp.obj
 0002:0000f308       _vbr_nb_thresh             00447308     libspeex-i386-win32-vc8-release:vbr.obj
 0002:0000f498       _vbr_hb_thresh             00447498     libspeex-i386-win32-vc8-release:vbr.obj
 0002:0000f578       _vbr_uhb_thresh            00447578     libspeex-i386-win32-vc8-release:vbr.obj
 0002:0000f5d0       __real@3faeb851eb851eb8    004475d0     libspeex-i386-win32-vc8-release:vbr.obj
 0002:0000f5d8       __real@3fc999999999999a    004475d8     libspeex-i386-win32-vc8-release:vbr.obj
 0002:0000f5e0       __real@3fd3333333333333    004475e0     libspeex-i386-win32-vc8-release:vbr.obj
 0002:0000f5e8       __real@3fd999999999999a    004475e8     libspeex-i386-win32-vc8-release:vbr.obj
 0002:0000f5f0       __real@3fe6666666666666    004475f0     libspeex-i386-win32-vc8-release:vbr.obj
 0002:0000f5f8       __real@3ff3333333333333    004475f8     libspeex-i386-win32-vc8-release:vbr.obj
 0002:0000f600       __real@3ff999999999999a    00447600     libspeex-i386-win32-vc8-release:vbr.obj
 0002:0000f608       __real@400199999999999a    00447608     libspeex-i386-win32-vc8-release:vbr.obj
 0002:0000f610       __real@4008000000000000    00447610     libspeex-i386-win32-vc8-release:vbr.obj
 0002:0000f618       __real@401c000000000000    00447618     libspeex-i386-win32-vc8-release:vbr.obj
 0002:0000f620       __real@40400000            00447620     libspeex-i386-win32-vc8-release:vbr.obj
 0002:0000f624       __real@40800000            00447624     libspeex-i386-win32-vc8-release:vbr.obj
 0002:0000f628       __real@40a00000            00447628     libspeex-i386-win32-vc8-release:vbr.obj
 0002:0000f62c       __real@40b33334            0044762c     libspeex-i386-win32-vc8-release:vbr.obj
 0002:0000f630       __real@40b7700000000000    00447630     libspeex-i386-win32-vc8-release:vbr.obj
 0002:0000f638       __real@40c9999a            00447638     libspeex-i386-win32-vc8-release:vbr.obj
 0002:0000f63c       __real@40e00000            0044763c     libspeex-i386-win32-vc8-release:vbr.obj
 0002:0000f640       __real@40ed4c0000000000    00447640     libspeex-i386-win32-vc8-release:vbr.obj
 0002:0000f648       __real@43160000            00447648     libspeex-i386-win32-vc8-release:vbr.obj
 0002:0000f64c       __real@453b8000            0044764c     libspeex-i386-win32-vc8-release:vbr.obj
 0002:0000f650       __real@45bb8000            00447650     libspeex-i386-win32-vc8-release:vbr.obj
 0002:0000f654       __real@461c4000            00447654     libspeex-i386-win32-vc8-release:vbr.obj
 0002:0000f658       __real@46ea6000            00447658     libspeex-i386-win32-vc8-release:vbr.obj
 0002:0000f65c       __real@476a6000            0044765c     libspeex-i386-win32-vc8-release:vbr.obj
 0002:0000f660       __real@c0a00000            00447660     libspeex-i386-win32-vc8-release:vbr.obj
 0002:0000f668       _shift_filt                00447668     libspeex-i386-win32-vc8-release:filters.obj
 0002:0000f6c0       __real@3fb1eb851eb851ec    004476c0     libspeex-i386-win32-vc8-release:filters.obj
 0002:0000f6c8       __real@3ffb851eb851eb85    004476c8     libspeex-i386-win32-vc8-release:filters.obj
 0002:0000f6d0       __real@447a0000            004476d0     libspeex-i386-win32-vc8-release:filters.obj
 0002:0000f6e0       __xmm@3f76e6da3f74dfcebff4e0223f74dfce 004476e0     libspeex-i386-win32-vc8-release:filters.obj
 0002:0000f6f0       __xmm@3f792b80bffc73043f8000003f6f7ee5 004476f0     libspeex-i386-win32-vc8-release:filters.obj
 0002:0000f700       __xmm@3f7c87fdbffc83ba3f7c87fd3f779c63 00447700     libspeex-i386-win32-vc8-release:filters.obj
 0002:0000f710       __xmm@3f8000003f6a3c21bff4a2343f800000 00447710     libspeex-i386-win32-vc8-release:filters.obj
 0002:0000f720       __xmm@bff778ff3f8000003f6e4303bff6a25e 00447720     libspeex-i386-win32-vc8-release:filters.obj
 0002:0000f730       __xmm@bff79c0f3f779c633f76e6dabff6e297 00447730     libspeex-i386-win32-vc8-release:filters.obj
 0002:0000f740       __real@3f689374bc6a7efa    00447740     libspeex-i386-win32-vc8-release:lpc.obj
 0002:0000f748       __real@3aa69eb6            00447748     libspeex-i386-win32-vc8-release:lsp.obj
 0002:0000f74c       __real@3d29ef0e            0044774c     libspeex-i386-win32-vc8-release:lsp.obj
 0002:0000f750       __real@3efff486            00447750     libspeex-i386-win32-vc8-release:lsp.obj
 0002:0000f754       __real@3f7fff90            00447754     libspeex-i386-win32-vc8-release:lsp.obj
 0002:0000f758       __real@3ff921fb544486e0    00447758     libspeex-i386-win32-vc8-release:lsp.obj
 0002:0000f760       _lag_window                00447760     libspeex-i386-win32-vc8-release:window.obj
 0002:0000f790       _lpc_window                00447790     libspeex-i386-win32-vc8-release:window.obj
 0002:0000fab0       _cdbk_nb                   00447ab0     libspeex-i386-win32-vc8-release:lsp_tables_nb.obj
 0002:0000fd30       _cdbk_nb_low1              00447d30     libspeex-i386-win32-vc8-release:lsp_tables_nb.obj
 0002:0000fe70       _cdbk_nb_low2              00447e70     libspeex-i386-win32-vc8-release:lsp_tables_nb.obj
 0002:0000ffb0       _cdbk_nb_high1             00447fb0     libspeex-i386-win32-vc8-release:lsp_tables_nb.obj
 0002:000100f0       _cdbk_nb_high2             004480f0     libspeex-i386-win32-vc8-release:lsp_tables_nb.obj
 0002:00010230       _high_lsp_cdbk             00448230     libspeex-i386-win32-vc8-release:high_lsp_tables.obj
 0002:00010430       _high_lsp_cdbk2            00448430     libspeex-i386-win32-vc8-release:high_lsp_tables.obj
 0002:00010630       ??_C@_0O@MIKIJNFL@crypto?5kernel?$AA@ 00448630     libsrtp-i386-win32-vc8-release:crypto_kernel.obj
 0002:00010640       ??_C@_04DKFOEDJA@srtp?$AA@ 00448640     libsrtp-i386-win32-vc8-release:srtp.obj
 0002:00010648       ??_C@_0CD@KFGKPJOG@?$CFs?3?5cloning?5stream?5?$CISSRC?3?50x?$CF08x@ 00448648     libsrtp-i386-win32-vc8-release:srtp.obj
 0002:0001066c       ??_C@_0CE@KANLHMK@?$CFs?3?5found?5aes_icm?0?5generating?5sa@ 0044866c     libsrtp-i386-win32-vc8-release:srtp.obj
 0002:00010690       ??_C@_0BE@PGOGLMMP@?$CFs?3?5cipher?5key?3?5?$CFs?6?$AA@ 00448690     libsrtp-i386-win32-vc8-release:srtp.obj
 0002:000106a4       ??_C@_0BE@HGKFNAFC@?$CFs?3?5auth?5key?3?5?5?5?$CFs?6?$AA@ 004486a4     libsrtp-i386-win32-vc8-release:srtp.obj
 0002:000106b8       ??_C@_0CJ@BAADIODK@?$CFs?3?5found?5aes_icm?0?5generating?5rt@ 004486b8     libsrtp-i386-win32-vc8-release:srtp.obj
 0002:000106e4       ??_C@_0BJ@KAKGCCMO@?$CFs?3?5rtcp?5cipher?5key?3?5?$CFs?6?$AA@ 004486e4     libsrtp-i386-win32-vc8-release:srtp.obj
 0002:00010700       ??_C@_0BJ@CAOFEOFD@?$CFs?3?5rtcp?5auth?5key?3?5?5?5?$CFs?6?$AA@ 00448700     libsrtp-i386-win32-vc8-release:srtp.obj
 0002:0001071c       ??_C@_0CI@PDNDGOMA@?$CFs?3?5initializing?5stream?5?$CISSRC?3?50@ 0044871c     libsrtp-i386-win32-vc8-release:srtp.obj
 0002:00010744       ??_C@_0BH@GAKJJGLB@srtp?3?5in?5stream?50x?$CFx?3?5?$AA@ 00448744     libsrtp-i386-win32-vc8-release:srtp.obj
 0002:0001075c       ??_C@_0BB@PPFALDPP@?7SSRC?5collision?6?$AA@ 0044875c     libsrtp-i386-win32-vc8-release:srtp.obj
 0002:00010770       ??_C@_0BP@HOEKLBIN@?7key?5usage?5soft?5limit?5reached?6?$AA@ 00448770     libsrtp-i386-win32-vc8-release:srtp.obj
 0002:00010790       ??_C@_0BP@KNJIFCF@?7key?5usage?5hard?5limit?5reached?6?$AA@ 00448790     libsrtp-i386-win32-vc8-release:srtp.obj
 0002:000107b0       ??_C@_0BN@MKCGGAOP@?7packet?5index?5limit?5reached?6?$AA@ 004487b0     libsrtp-i386-win32-vc8-release:srtp.obj
 0002:000107d0       ??_C@_0CE@FFJEPPID@?7unknown?5event?5reported?5to?5handl@ 004487d0     libsrtp-i386-win32-vc8-release:srtp.obj
 0002:000107f4       ??_C@_0BL@MADNODBC@?$CFs?3?5function?5srtp_protect?6?$AA@ 004487f4     libsrtp-i386-win32-vc8-release:srtp.obj
 0002:00010810       ??_C@_0CF@PEPHCKJP@?$CFs?3?5estimated?5packet?5index?3?5?$CF016@ 00448810     libsrtp-i386-win32-vc8-release:srtp.obj
 0002:00010838       ??_C@_0BK@KLBGMJPP@?$CFs?3?5keystream?5prefix?3?5?$CFs?6?$AA@ 00448838     libsrtp-i386-win32-vc8-release:srtp.obj
 0002:00010854       ??_C@_0BK@GCKOFNLP@?$CFs?3?5srtp?5auth?5tag?3?5?5?5?5?$CFs?6?$AA@ 00448854     libsrtp-i386-win32-vc8-release:srtp.obj
 0002:00010870       ??_C@_0BN@LADOAJPP@?$CFs?3?5function?5srtp_unprotect?6?$AA@ 00448870     libsrtp-i386-win32-vc8-release:srtp.obj
 0002:00010890       ??_C@_0CN@PJAKIEAG@?$CFs?3?5using?5provisional?5stream?5?$CISS@ 00448890     libsrtp-i386-win32-vc8-release:srtp.obj
 0002:000108c0       ??_C@_0DC@MCOMJNFD@estimated?5u_packet?5index?3?5?$CF016ll@ 004488c0     libsrtp-i386-win32-vc8-release:srtp.obj
 0002:000108f4       ??_C@_02DPNLHKJD@a?$CL?$AA@ 004488f4     libsrtp-i386-win32-vc8-release:srtp.obj
 0002:000108f8       ??_C@_0BA@CKOOPFDP@d?3?2datafile?4txt?$AA@ 004488f8     libsrtp-i386-win32-vc8-release:srtp.obj
 0002:00010908       ??_C@_0BC@MBEPHPDP@File?5open?5error?$CB?6?$AA@ 00448908     libsrtp-i386-win32-vc8-release:srtp.obj
 0002:0001091c       ??_C@_0CH@MOHBLIMO@?$CFs?3?5estimated?5u_packet?5index?3?5?$CF0@ 0044891c     libsrtp-i386-win32-vc8-release:srtp.obj
 0002:00010944       ??_C@_0BO@BONEKIBH@?$CFs?3?5computed?5auth?5tag?3?5?5?5?5?$CFs?6?$AA@ 00448944     libsrtp-i386-win32-vc8-release:srtp.obj
 0002:00010964       ??_C@_0BO@KMHOFFAA@?$CFs?3?5packet?5auth?5tag?3?5?5?5?5?5?5?$CFs?6?$AA@ 00448964     libsrtp-i386-win32-vc8-release:srtp.obj
 0002:00010984       ??_C@_0BF@JBCKCIAJ@?$CFs?3?5srtcp?5index?3?5?$CFx?6?$AA@ 00448984     libsrtp-i386-win32-vc8-release:srtp.obj
 0002:0001099c       ??_C@_0BL@OBHAKLEH@?$CFs?3?5srtcp?5auth?5tag?3?5?5?5?5?$CFs?6?$AA@ 0044899c     libsrtp-i386-win32-vc8-release:srtp.obj
 0002:000109b8       ??_C@_0DD@HHOLLDKC@?$CFs?3?5srtcp?5using?5provisional?5stre@ 004489b8     libsrtp-i386-win32-vc8-release:srtp.obj
 0002:000109ec       ??_C@_0CC@IMKDPKDI@?$CFs?3?5srtcp?5computed?5tag?3?5?5?5?5?5?5?5?$CFs@ 004489ec     libsrtp-i386-win32-vc8-release:srtp.obj
 0002:00010a10       ??_C@_0CC@GFCANNPL@?$CFs?3?5srtcp?5tag?5from?5packet?3?5?5?5?5?$CFs@ 00448a10     libsrtp-i386-win32-vc8-release:srtp.obj
 0002:00010a34       ??_C@_05KNPMOECN@alloc?$AA@ 00448a34     libsrtp-i386-win32-vc8-release:alloc.obj
 0002:00010a3c       ??_C@_0BO@KJOGHNGM@?$CFs?3?5?$CIlocation?3?5?$CFp?$CJ?5allocated?6?$AA@ 00448a3c     libsrtp-i386-win32-vc8-release:alloc.obj
 0002:00010a5c       ??_C@_0CN@JJLNACEJ@?$CFs?3?5allocation?5failed?5?$CIasked?5for@ 00448a5c     libsrtp-i386-win32-vc8-release:alloc.obj
 0002:00010a8c       ??_C@_0BK@BNKOPMHD@?$CFs?3?5?$CIlocation?3?5?$CFp?$CJ?5freed?6?$AA@ 00448a8c     libsrtp-i386-win32-vc8-release:alloc.obj
 0002:00010aa8       ??_C@_07EFAIHJHH@libsrtp?$AA@ 00448aa8     libsrtp-i386-win32-vc8-release:srtp_err.obj
 0002:00010ab0       ??_C@_06KDGDAFPH@cipher?$AA@ 00448ab0     libsrtp-i386-win32-vc8-release:cipher.obj
 0002:00010ab8       ??_C@_09EJIBOKIO@auth?5func?$AA@ 00448ab8     libsrtp-i386-win32-vc8-release:auth.obj
 0002:00010ac4       ??_C@_09LCMAEBCF@stat?5test?$AA@ 00448ac4     libsrtp-i386-win32-vc8-release:stat.obj
 0002:00010ad0       ??_C@_0CK@DAFEFAPH@?$CFs?3?5allocating?5cipher?5with?5key?5l@ 00448ad0     libsrtp-i386-win32-vc8-release:null_cipher.obj
 0002:00010afc       ??_C@_0BO@HCJFKKEE@?$CFs?3?5initializing?5null?5cipher?6?$AA@ 00448afc     libsrtp-i386-win32-vc8-release:null_cipher.obj
 0002:00010b1c       ??_C@_07MPIJGLIA@aes?5icm?$AA@ 00448b1c     libsrtp-i386-win32-vc8-release:aes_icm.obj
 0002:00010b24       ??_C@_0O@GFBJNBAD@?$CFs?3?5key?3?5?5?$CFs?6?$AA@ 00448b24     libsrtp-i386-win32-vc8-release:aes_icm.obj
 0002:00010b34       ??_C@_0BA@ILFEGDEM@?$CFs?3?5offset?3?5?$CFs?6?$AA@ 00448b34     libsrtp-i386-win32-vc8-release:aes_icm.obj
 0002:00010b44       ??_C@_0BE@ENJPOLAG@?$CFs?3?5counter?3?5?5?5?5?$CFs?6?$AA@ 00448b44     libsrtp-i386-win32-vc8-release:aes_icm.obj
 0002:00010b58       ??_C@_0BE@ILCAEFF@?$CFs?3?5ciphertext?3?5?$CFs?6?$AA@ 00448b58     libsrtp-i386-win32-vc8-release:aes_icm.obj
 0002:00010b6c       ??_C@_0BE@ECIFEEKH@?$CFs?3?5setting?5iv?3?5?$CFs?6?$AA@ 00448b6c     libsrtp-i386-win32-vc8-release:aes_icm.obj
 0002:00010b80       ??_C@_0BF@OAOEHNDM@?$CFs?3?5set_counter?3?5?$CFs?6?$AA@ 00448b80     libsrtp-i386-win32-vc8-release:aes_icm.obj
 0002:00010b98       ??_C@_0BF@BLBMMINO@?$CFs?3?5block?5index?3?5?$CFd?6?$AA@ 00448b98     libsrtp-i386-win32-vc8-release:aes_icm.obj
 0002:00010bb0       ??_C@_07DPHFMMFN@aes?5cbc?$AA@ 00448bb0     libsrtp-i386-win32-vc8-release:aes_cbc.obj
 0002:00010bb8       ??_C@_0M@IBNAAFBJ@?$CFs?3?5iv?3?5?$CFs?6?$AA@ 00448bb8     libsrtp-i386-win32-vc8-release:aes_cbc.obj
 0002:00010bc4       ??_C@_0BC@OKGIACPM@?$CFs?3?5inblock?3?5?5?$CFs?6?$AA@ 00448bc4     libsrtp-i386-win32-vc8-release:aes_cbc.obj
 0002:00010bd8       ??_C@_0BC@JDOKDHF@?$CFs?3?5outblock?3?5?$CFs?6?$AA@ 00448bd8     libsrtp-i386-win32-vc8-release:aes_cbc.obj
 0002:00010bec       ??_C@_0CN@KBEHBKDH@?$CFs?3?5allocating?5auth?5func?5with?5ke@ 00448bec     libsrtp-i386-win32-vc8-release:null_auth.obj
 0002:00010c1c       ??_C@_0CN@FDNDBNFI@?$CFs?3?5?5?5?5?5?5?5?5?5?5?5?5?5?5?5?5?5?5?5?5?5?5?5?5?5?5?5ta@ 00448c1c     libsrtp-i386-win32-vc8-release:null_auth.obj
 0002:00010c4c       ??_C@_0L@NBBBLMAJ@hmac?5sha?91?$AA@ 00448c4c     libsrtp-i386-win32-vc8-release:hmac.obj
 0002:00010c58       ??_C@_0O@PJECJPIJ@?$CFs?3?5ipad?3?5?$CFs?6?$AA@ 00448c58     libsrtp-i386-win32-vc8-release:hmac.obj
 0002:00010c68       ??_C@_0P@JHGAOEEF@?$CFs?3?5input?3?5?$CFs?6?$AA@ 00448c68     libsrtp-i386-win32-vc8-release:hmac.obj
 0002:00010c78       ??_C@_0BM@JABNBLDM@?$CFs?3?5intermediate?5state?3?5?$CFs?6?$AA@ 00448c78     libsrtp-i386-win32-vc8-release:hmac.obj
 0002:00010c94       ??_C@_0BA@NKCNJNLN@?$CFs?3?5output?3?5?$CFs?6?$AA@ 00448c94     libsrtp-i386-win32-vc8-release:hmac.obj
 0002:00010cb0       __xmm@36363636363636363636363636363636 00448cb0     libsrtp-i386-win32-vc8-release:hmac.obj
 0002:00010cc0       __xmm@5c5c5c5c5c5c5c5c5c5c5c5c5c5c5c5c 00448cc0     libsrtp-i386-win32-vc8-release:hmac.obj
 0002:00010cd0       __xmm@66656463626139383736353433323130 00448cd0     libsrtp-i386-win32-vc8-release:datatypes.obj
 0002:00010ce0       ??_C@_05BPJLFPNI@sha?91?$AA@ 00448ce0     libsrtp-i386-win32-vc8-release:sha1.obj
 0002:00010ce8       ??_C@_0CC@GKOIIHOG@?$CFs?3?5?$CIupdate?$CJ?5running?5sha1_core?$CI?$CJ@ 00448ce8     libsrtp-i386-win32-vc8-release:sha1.obj
 0002:00010d0c       ??_C@_0CG@KGMPNKKF@?$CFs?3?5?$CIupdate?$CJ?5not?5running?5sha1_co@ 00448d0c     libsrtp-i386-win32-vc8-release:sha1.obj
 0002:00010d34       ??_C@_0CB@KIPIFMFH@?$CFs?3?5?$CIfinal?$CJ?5running?5sha1_core?$CI?$CJ?6@ 00448d34     libsrtp-i386-win32-vc8-release:sha1.obj
 0002:00010d58       ??_C@_0CH@HCINMGOM@?$CFs?3?5?$CIfinal?$CJ?5running?5sha1_core?$CI?$CJ?5@ 00448d58     libsrtp-i386-win32-vc8-release:sha1.obj
 0002:00010e14       ??_C@_07GBKCPIDJ@ext?9fmt?$AA@ 00448e14     pjmedia-audiodev-i386-win32-vc8-release:audiodev.obj
 0002:00010e1c       ??_C@_0BI@GGHCECPI@Extended?1non?9PCM?5format?$AA@ 00448e1c     pjmedia-audiodev-i386-win32-vc8-release:audiodev.obj
 0002:00010e34       ??_C@_0L@IKNMBADD@latency?9in?$AA@ 00448e34     pjmedia-audiodev-i386-win32-vc8-release:audiodev.obj
 0002:00010e40       ??_C@_0CC@LIGOHOJN@Input?5latency?1buffer?5size?5settin@ 00448e40     pjmedia-audiodev-i386-win32-vc8-release:audiodev.obj
 0002:00010e64       ??_C@_0M@MBBBBCLJ@latency?9out?$AA@ 00448e64     pjmedia-audiodev-i386-win32-vc8-release:audiodev.obj
 0002:00010e70       ??_C@_0CD@GAINMBC@Output?5latency?1buffer?5size?5setti@ 00448e70     pjmedia-audiodev-i386-win32-vc8-release:audiodev.obj
 0002:00010e94       ??_C@_06KGGLCDDG@vol?9in?$AA@ 00448e94     pjmedia-audiodev-i386-win32-vc8-release:audiodev.obj
 0002:00010e9c       ??_C@_0BF@CCEKOJAN@Input?5volume?5setting?$AA@ 00448e9c     pjmedia-audiodev-i386-win32-vc8-release:audiodev.obj
 0002:00010eb4       ??_C@_07LBFHFBAF@vol?9out?$AA@ 00448eb4     pjmedia-audiodev-i386-win32-vc8-release:audiodev.obj
 0002:00010ebc       ??_C@_0BG@IBEHJHAD@Output?5volume?5setting?$AA@ 00448ebc     pjmedia-audiodev-i386-win32-vc8-release:audiodev.obj
 0002:00010ed4       ??_C@_08BPNDLGG@meter?9in?$AA@ 00448ed4     pjmedia-audiodev-i386-win32-vc8-release:audiodev.obj
 0002:00010ee0       ??_C@_0M@NCGIGNPG@Input?5meter?$AA@ 00448ee0     pjmedia-audiodev-i386-win32-vc8-release:audiodev.obj
 0002:00010eec       ??_C@_09NKJLJGOJ@meter?9out?$AA@ 00448eec     pjmedia-audiodev-i386-win32-vc8-release:audiodev.obj
 0002:00010ef8       ??_C@_0N@GBEOEOEP@Output?5meter?$AA@ 00448ef8     pjmedia-audiodev-i386-win32-vc8-release:audiodev.obj
 0002:00010f08       ??_C@_08FPHJDLBG@route?9in?$AA@ 00448f08     pjmedia-audiodev-i386-win32-vc8-release:audiodev.obj
 0002:00010f14       ??_C@_0O@JDPFDDM@Input?5routing?$AA@ 00448f14     pjmedia-audiodev-i386-win32-vc8-release:audiodev.obj
 0002:00010f24       ??_C@_09IKMAGDNF@route?9out?$AA@ 00448f24     pjmedia-audiodev-i386-win32-vc8-release:audiodev.obj
 0002:00010f30       ??_C@_0P@JOFPIEJJ@Output?5routing?$AA@ 00448f30     pjmedia-audiodev-i386-win32-vc8-release:audiodev.obj
 0002:00010f40       ??_C@_03FNONIBCK@aec?$AA@  00448f40     pjmedia-audiodev-i386-win32-vc8-release:audiodev.obj
 0002:00010f44       ??_C@_0BM@HPDLGLFJ@Accoustic?5echo?5cancellation?$AA@ 00448f44     pjmedia-audiodev-i386-win32-vc8-release:audiodev.obj
 0002:00010f60       ??_C@_08MKAPJCJE@aec?9tail?$AA@ 00448f60     pjmedia-audiodev-i386-win32-vc8-release:audiodev.obj
 0002:00010f6c       ??_C@_0BM@PBLLADJD@Tail?5length?5setting?5for?5AEC?$AA@ 00448f6c     pjmedia-audiodev-i386-win32-vc8-release:audiodev.obj
 0002:00010f88       ??_C@_03NIGLNABH@vad?$AA@  00448f88     pjmedia-audiodev-i386-win32-vc8-release:audiodev.obj
 0002:00010f8c       ??_C@_0BJ@PEELNNPF@Voice?5activity?5detection?$AA@ 00448f8c     pjmedia-audiodev-i386-win32-vc8-release:audiodev.obj
 0002:00010fa8       ??_C@_03JPNNGDEE@cng?$AA@  00448fa8     pjmedia-audiodev-i386-win32-vc8-release:audiodev.obj
 0002:00010fac       ??_C@_0BJ@MNDOFJGN@Comfort?5noise?5generation?$AA@ 00448fac     pjmedia-audiodev-i386-win32-vc8-release:audiodev.obj
 0002:00010fc8       ??_C@_03NOPFEPFL@plg?$AA@  00448fc8     pjmedia-audiodev-i386-win32-vc8-release:audiodev.obj
 0002:00010fcc       ??_C@_0BI@OMEMKBHH@Packet?5loss?5concealment?$AA@ 00448fcc     pjmedia-audiodev-i386-win32-vc8-release:audiodev.obj
 0002:00010fe8       ??_C@_0EF@NLCNMHAD@?$CFd?5device?$CIs?$CJ?5cannot?5be?5registere@ 00448fe8     pjmedia-audiodev-i386-win32-vc8-release:audiodev.obj
 0002:00011030       ??_C@_0L@FGHHAHLM@audiodev?4c?$AA@ 00449030     pjmedia-audiodev-i386-win32-vc8-release:audiodev.obj
 0002:000110a0       ??_C@_0DC@MHBBCDGM@Unspecified?5audio?5device?5error?5?$CI@ 004490a0     pjmedia-audiodev-i386-win32-vc8-release:errno.obj
 0002:000110d4       ??_C@_0DG@FEDKLOFB@Unknown?5error?5from?5audio?5driver?5@ 004490d4     pjmedia-audiodev-i386-win32-vc8-release:errno.obj
 0002:0001110c       ??_C@_0DE@DOHCBKFK@Audio?5subsystem?5not?5initialized?5@ 0044910c     pjmedia-audiodev-i386-win32-vc8-release:errno.obj
 0002:00011140       ??_C@_0CL@NCBJPCNF@Invalid?5audio?5device?5?$CIPJMEDIA_EA@ 00449140     pjmedia-audiodev-i386-win32-vc8-release:errno.obj
 0002:0001116c       ??_C@_0CM@LOPLLMHO@Found?5no?5audio?5devices?5?$CIPJMEDIA_@ 0044916c     pjmedia-audiodev-i386-win32-vc8-release:errno.obj
 0002:00011198       ??_C@_0DM@DPDKGMIE@Unable?5to?5find?5default?5audio?5dev@ 00449198     pjmedia-audiodev-i386-win32-vc8-release:errno.obj
 0002:000111d4       ??_C@_0CP@JIPJOIMB@Audio?5device?5not?5ready?5?$CIPJMEDIA_@ 004491d4     pjmedia-audiodev-i386-win32-vc8-release:errno.obj
 0002:00011204       ??_C@_0DO@NMIGLFFA@Invalid?5or?5unsupported?5audio?5cap@ 00449204     pjmedia-audiodev-i386-win32-vc8-release:errno.obj
 0002:00011248       ??_C@_0ED@PLJALPOA@Invalid?5or?5unsupported?5audio?5dev@ 00449248     pjmedia-audiodev-i386-win32-vc8-release:errno.obj
 0002:0001128c       ??_C@_0DM@JKDJGBNG@Bad?5or?5invalid?5audio?5device?5form@ 0044928c     pjmedia-audiodev-i386-win32-vc8-release:errno.obj
 0002:000112c8       ??_C@_0DN@BLAJILEA@Invalid?5audio?5device?5sample?5form@ 004492c8     pjmedia-audiodev-i386-win32-vc8-release:errno.obj
 0002:00011308       ??_C@_0DE@LJJGJIEF@Bad?5audio?5latency?5setting?5?$CIPJMED@ 00449308     pjmedia-audiodev-i386-win32-vc8-release:errno.obj
 0002:0001133c       ??_C@_0BJ@GMHLEOAL@MMSYSTEM?5native?5error?5?$CFd?$AA@ 0044933c     pjmedia-audiodev-i386-win32-vc8-release:errno.obj
 0002:00011358       ??_C@_0CC@MFOJNIAN@Unknown?5pjmedia?9audiodev?5error?5?$CF@ 00449358     pjmedia-audiodev-i386-win32-vc8-release:errno.obj
 0002:0001137c       ??_C@_0M@KBHHDDLP@Wave?5mapper?$AA@ 0044937c     pjmedia-audiodev-i386-win32-vc8-release:wmme_dev.obj
 0002:00011388       ??_C@_04CPNMDOAK@WMME?$AA@ 00449388     pjmedia-audiodev-i386-win32-vc8-release:wmme_dev.obj
 0002:00011390       ??_C@_0BB@EOKKHGLD@WMME?5initialized?$AA@ 00449390     pjmedia-audiodev-i386-win32-vc8-release:wmme_dev.obj
 0002:000113a4       ??_C@_0L@HHCCMOGO@wmme_dev?4c?$AA@ 004493a4     pjmedia-audiodev-i386-win32-vc8-release:wmme_dev.obj
 0002:000113b0       ??_C@_0BM@OMJMEAMB@WMME?5found?5no?5sound?5devices?$AA@ 004493b0     pjmedia-audiodev-i386-win32-vc8-release:wmme_dev.obj
 0002:000113cc       ??_C@_11LOCGONAA@?$AA?$AA@ 004493cc     pjmedia-audiodev-i386-win32-vc8-release:wmme_dev.obj
 0002:000113d0       ??_C@_0BH@GEMAAOCL@WMME?5found?5?$CFd?5devices?3?$AA@ 004493d0     pjmedia-audiodev-i386-win32-vc8-release:wmme_dev.obj
 0002:000113e8       ??_C@_0CA@NLJGEGOG@?5dev_id?5?$CFd?3?5?$CFs?5?5?$CIin?$DN?$CFd?0?5out?$DN?$CFd?$CJ?$AA@ 004493e8     pjmedia-audiodev-i386-win32-vc8-release:wmme_dev.obj
 0002:00011408       ??_C@_03CCLNCNJA@PCM?$AA@  00449408     pjmedia-audiodev-i386-win32-vc8-release:wmme_dev.obj
 0002:00011410       ??_C@_0HB@MKIBCFPJ@?5WaveAPI?5Sound?5player?5?$CC?$CFs?$CC?5initi@ 00449410     pjmedia-audiodev-i386-win32-vc8-release:wmme_dev.obj
 0002:00011488       ??_C@_0HD@PIICIPL@?5WaveAPI?5Sound?5recorder?5?$CC?$CFs?$CC?5ini@ 00449488     pjmedia-audiodev-i386-win32-vc8-release:wmme_dev.obj
 0002:000114fc       ??_C@_0BI@BEJPJEBJ@WMME?3?5thread?5stopping?4?4?$AA@ 004494fc     pjmedia-audiodev-i386-win32-vc8-release:wmme_dev.obj
 0002:00011514       ??_C@_08MOOOBPLB@wmme?9dev?$AA@ 00449514     pjmedia-audiodev-i386-win32-vc8-release:wmme_dev.obj
 0002:00011520       ??_C@_04ODOGNMHC@wmme?$AA@ 00449520     pjmedia-audiodev-i386-win32-vc8-release:wmme_dev.obj
 0002:00011528       ??_C@_0BN@MNACKNIN@WMME?5playback?5stream?5started?$AA@ 00449528     pjmedia-audiodev-i386-win32-vc8-release:wmme_dev.obj
 0002:00011548       ??_C@_0BM@NKDLICNM@WMME?5capture?5stream?5started?$AA@ 00449548     pjmedia-audiodev-i386-win32-vc8-release:wmme_dev.obj
 0002:00011564       ??_C@_0BN@FMJNHCPG@Stopped?5WMME?5playback?5stream?$AA@ 00449564     pjmedia-audiodev-i386-win32-vc8-release:wmme_dev.obj
 0002:00011584       ??_C@_0BM@KCHDOGNE@Stopped?5WMME?5capture?5stream?$AA@ 00449584     pjmedia-audiodev-i386-win32-vc8-release:wmme_dev.obj
 0002:000115a0       ??_C@_09OFDCJLJM@WMME?5base?$AA@ 004495a0     pjmedia-audiodev-i386-win32-vc8-release:wmme_dev.obj
 0002:000115d0       __load_config_used         004495d0     MSVCRT:loadcfg.obj
 0002:00011630       ___safe_se_handler_table   00449630     <linker-defined>
 0002:00011884       ___rtc_iaa                 00449884     MSVCRT:_initsect_.obj
 0002:00011888       ___rtc_izz                 00449888     MSVCRT:_initsect_.obj
 0002:0001188c       ___rtc_taa                 0044988c     MSVCRT:_initsect_.obj
 0002:00011890       ___rtc_tzz                 00449890     MSVCRT:_initsect_.obj
 0002:000118d4       __IMPORT_DESCRIPTOR_ole32  004498d4     ole32:ole32.dll
 0002:000118e8       __IMPORT_DESCRIPTOR_WS2_32 004498e8     ws2_32:WS2_32.dll
 0002:000118fc       __IMPORT_DESCRIPTOR_KERNEL32 004498fc     kernel32:KERNEL32.dll
 0002:00011910       __IMPORT_DESCRIPTOR_VCRUNTIME140 00449910     vcruntime:VCRUNTIME140.dll
 0002:00011924       __IMPORT_DESCRIPTOR_api-ms-win-crt-stdio-l1-1-0 00449924     ucrt:api-ms-win-crt-stdio-l1-1-0.dll
 0002:00011938       __IMPORT_DESCRIPTOR_api-ms-win-crt-string-l1-1-0 00449938     ucrt:api-ms-win-crt-string-l1-1-0.dll
 0002:0001194c       __IMPORT_DESCRIPTOR_api-ms-win-crt-math-l1-1-0 0044994c     ucrt:api-ms-win-crt-math-l1-1-0.dll
 0002:00011960       __IMPORT_DESCRIPTOR_api-ms-win-crt-convert-l1-1-0 00449960     ucrt:api-ms-win-crt-convert-l1-1-0.dll
 0002:00011974       __IMPORT_DESCRIPTOR_api-ms-win-crt-utility-l1-1-0 00449974     ucrt:api-ms-win-crt-utility-l1-1-0.dll
 0002:00011988       __IMPORT_DESCRIPTOR_api-ms-win-crt-heap-l1-1-0 00449988     ucrt:api-ms-win-crt-heap-l1-1-0.dll
 0002:0001199c       __IMPORT_DESCRIPTOR_api-ms-win-crt-runtime-l1-1-0 0044999c     ucrt:api-ms-win-crt-runtime-l1-1-0.dll
 0002:000119b0       __IMPORT_DESCRIPTOR_api-ms-win-crt-locale-l1-1-0 004499b0     ucrt:api-ms-win-crt-locale-l1-1-0.dll
 0002:000119c4       __IMPORT_DESCRIPTOR_WINMM  004499c4     winmm:WINMM.dll
 0002:000119d8       __NULL_IMPORT_DESCRIPTOR   004499d8     ole32:ole32.dll
 0003:00000738       _pjmedia_add_rtpmap_for_static_pt 0044b738     pjmedia-i386-win32-vc8-release:endpoint.obj
 0003:0000073c       _pjmedia_add_bandwidth_tias_in_sdp 0044b73c     pjmedia-i386-win32-vc8-release:endpoint.obj
 0003:00000980       _PJ_VERSION                0044b980     pjlib-i386-win32-vc8-release:config.obj
 0003:0000098c       _pj_pool_factory_default_policy 0044b98c     pjlib-i386-win32-vc8-release:pool_policy_malloc.obj
 0003:0000099c       _gsm_A                     0044b99c     libgsmcodec-i386-win32-vc8-release:table.obj
 0003:000009ac       _gsm_B                     0044b9ac     libgsmcodec-i386-win32-vc8-release:table.obj
 0003:000009bc       _gsm_MIC                   0044b9bc     libgsmcodec-i386-win32-vc8-release:table.obj
 0003:000009cc       _gsm_MAC                   0044b9cc     libgsmcodec-i386-win32-vc8-release:table.obj
 0003:000009dc       _gsm_INVA                  0044b9dc     libgsmcodec-i386-win32-vc8-release:table.obj
 0003:000009ec       _gsm_DLB                   0044b9ec     libgsmcodec-i386-win32-vc8-release:table.obj
 0003:000009f4       _gsm_QLB                   0044b9f4     libgsmcodec-i386-win32-vc8-release:table.obj
 0003:000009fc       _gsm_H                     0044b9fc     libgsmcodec-i386-win32-vc8-release:table.obj
 0003:00000a14       _gsm_NRFAC                 0044ba14     libgsmcodec-i386-win32-vc8-release:table.obj
 0003:00000a24       _gsm_FAC                   0044ba24     libgsmcodec-i386-win32-vc8-release:table.obj
 0003:00000a38       _hpi_zero_coefsTbl         0044ba38     libilbccodec-i386-win32-vc8-release:constants.obj
 0003:00000a44       _hpi_pole_coefsTbl         0044ba44     libilbccodec-i386-win32-vc8-release:constants.obj
 0003:00000a50       _hpo_zero_coefsTbl         0044ba50     libilbccodec-i386-win32-vc8-release:constants.obj
 0003:00000a5c       _hpo_pole_coefsTbl         0044ba5c     libilbccodec-i386-win32-vc8-release:constants.obj
 0003:00000a68       _lpFilt_coefsTbl           0044ba68     libilbccodec-i386-win32-vc8-release:constants.obj
 0003:00000a84       _lpc_lagwinTbl             0044ba84     libilbccodec-i386-win32-vc8-release:constants.obj
 0003:00000ab0       _lpc_winTbl                0044bab0     libilbccodec-i386-win32-vc8-release:constants.obj
 0003:00000e70       _lpc_asymwinTbl            0044be70     libilbccodec-i386-win32-vc8-release:constants.obj
 0003:00001230       _lsfCbTbl                  0044c230     libilbccodec-i386-win32-vc8-release:constants.obj
 0003:00002330       _lsfmeanTbl                0044d330     libilbccodec-i386-win32-vc8-release:constants.obj
 0003:00002358       _dim_lsfCbTbl              0044d358     libilbccodec-i386-win32-vc8-release:constants.obj
 0003:00002364       _size_lsfCbTbl             0044d364     libilbccodec-i386-win32-vc8-release:constants.obj
 0003:00002370       _lsf_weightTbl_30ms        0044d370     libilbccodec-i386-win32-vc8-release:constants.obj
 0003:00002388       _lsf_weightTbl_20ms        0044d388     libilbccodec-i386-win32-vc8-release:constants.obj
 0003:00002398       _state_sq3Tbl              0044d398     libilbccodec-i386-win32-vc8-release:constants.obj
 0003:000023b8       _state_frgqTbl             0044d3b8     libilbccodec-i386-win32-vc8-release:constants.obj
 0003:000024b8       _gain_sq3Tbl               0044d4b8     libilbccodec-i386-win32-vc8-release:constants.obj
 0003:000024d8       _gain_sq4Tbl               0044d4d8     libilbccodec-i386-win32-vc8-release:constants.obj
 0003:00002518       _gain_sq5Tbl               0044d518     libilbccodec-i386-win32-vc8-release:constants.obj
 0003:00002598       _search_rangeTbl           0044d598     libilbccodec-i386-win32-vc8-release:constants.obj
 0003:000025d4       _memLfTbl                  0044d5d4     libilbccodec-i386-win32-vc8-release:constants.obj
 0003:000025e4       _stMemLTbl                 0044d5e4     libilbccodec-i386-win32-vc8-release:constants.obj
 0003:000025e8       _cbfiltersTbl              0044d5e8     libilbccodec-i386-win32-vc8-release:constants.obj
 0003:00002608       _polyphaserTbl             0044d608     libilbccodec-i386-win32-vc8-release:constants.obj
 0003:00002678       _enh_plocsTbl              0044d678     libilbccodec-i386-win32-vc8-release:constants.obj
 0003:000026a8       _mod_crypto_kernel         0044d6a8     libsrtp-i386-win32-vc8-release:crypto_kernel.obj
 0003:000026b0       _mod_srtp                  0044d6b0     libsrtp-i386-win32-vc8-release:srtp.obj
 0003:000026bc       _mod_alloc                 0044d6bc     libsrtp-i386-win32-vc8-release:alloc.obj
 0003:000026c4       _err_level                 0044d6c4     libsrtp-i386-win32-vc8-release:srtp_err.obj
 0003:000026cc       _mod_cipher                0044d6cc     libsrtp-i386-win32-vc8-release:cipher.obj
 0003:000026d4       _mod_auth                  0044d6d4     libsrtp-i386-win32-vc8-release:auth.obj
 0003:000026dc       _mod_stat                  0044d6dc     libsrtp-i386-win32-vc8-release:stat.obj
 0003:000026e4       _null_cipher_description   0044d6e4     libsrtp-i386-win32-vc8-release:null_cipher.obj
 0003:000026f0       _null_cipher               0044d6f0     libsrtp-i386-win32-vc8-release:null_cipher.obj
 0003:00002718       _mod_aes_icm               0044d718     libsrtp-i386-win32-vc8-release:aes_icm.obj
 0003:00002720       _aes_icm_description       0044d720     libsrtp-i386-win32-vc8-release:aes_icm.obj
 0003:0000273c       _aes_icm_test_case_0_key   0044d73c     libsrtp-i386-win32-vc8-release:aes_icm.obj
 0003:0000275c       _aes_icm_test_case_0_ciphertext 0044d75c     libsrtp-i386-win32-vc8-release:aes_icm.obj
 0003:0000277c       _aes_icm_test_case_0       0044d77c     libsrtp-i386-win32-vc8-release:aes_icm.obj
 0003:0000279c       _aes_icm                   0044d79c     libsrtp-i386-win32-vc8-release:aes_icm.obj
 0003:000027c8       _mod_aes_cbc               0044d7c8     libsrtp-i386-win32-vc8-release:aes_cbc.obj
 0003:000027d0       _aes_cbc_description       0044d7d0     libsrtp-i386-win32-vc8-release:aes_cbc.obj
 0003:000027f8       _aes_cbc_test_case_0_key   0044d7f8     libsrtp-i386-win32-vc8-release:aes_cbc.obj
 0003:00002808       _aes_cbc_test_case_0_plaintext 0044d808     libsrtp-i386-win32-vc8-release:aes_cbc.obj
 0003:00002848       _aes_cbc_test_case_0_ciphertext 0044d848     libsrtp-i386-win32-vc8-release:aes_cbc.obj
 0003:00002898       _aes_cbc_test_case_0       0044d898     libsrtp-i386-win32-vc8-release:aes_cbc.obj
 0003:000028b8       _aes_cbc_test_case_1_key   0044d8b8     libsrtp-i386-win32-vc8-release:aes_cbc.obj
 0003:000028c8       _aes_cbc_test_case_1_plaintext 0044d8c8     libsrtp-i386-win32-vc8-release:aes_cbc.obj
 0003:00002908       _aes_cbc_test_case_1_ciphertext 0044d908     libsrtp-i386-win32-vc8-release:aes_cbc.obj
 0003:00002958       _aes_cbc_test_case_1_iv    0044d958     libsrtp-i386-win32-vc8-release:aes_cbc.obj
 0003:00002968       _aes_cbc_test_case_1       0044d968     libsrtp-i386-win32-vc8-release:aes_cbc.obj
 0003:00002988       _aes_cbc                   0044d988     libsrtp-i386-win32-vc8-release:aes_cbc.obj
 0003:000029b0       _lpc_description           0044d9b0     libsrtp-i386-win32-vc8-release:lpc_algo.obj
 0003:000029cc       _lpc_algo                  0044d9cc     libsrtp-i386-win32-vc8-release:lpc_algo.obj
 0003:000029f4       _null_auth_description     0044d9f4     libsrtp-i386-win32-vc8-release:null_auth.obj
 0003:00002a14       _null_auth                 0044da14     libsrtp-i386-win32-vc8-release:null_auth.obj
 0003:00002a3c       _mod_hmac                  0044da3c     libsrtp-i386-win32-vc8-release:hmac.obj
 0003:00002a44       _hmac_test_case_0_key      0044da44     libsrtp-i386-win32-vc8-release:hmac.obj
 0003:00002a58       _hmac_test_case_0_data     0044da58     libsrtp-i386-win32-vc8-release:hmac.obj
 0003:00002a60       _hmac_test_case_0_tag      0044da60     libsrtp-i386-win32-vc8-release:hmac.obj
 0003:00002a74       _hmac_test_case_0          0044da74     libsrtp-i386-win32-vc8-release:hmac.obj
 0003:00002a90       _hmac_description          0044da90     libsrtp-i386-win32-vc8-release:hmac.obj
 0003:00002ab4       _hmac                      0044dab4     libsrtp-i386-win32-vc8-release:hmac.obj
 0003:00002ae0       _octet_weight              0044dae0     libsrtp-i386-win32-vc8-release:datatypes.obj
 0003:000050e0       _mod_sha1                  004500e0     libsrtp-i386-win32-vc8-release:sha1.obj
 0003:000050e8       _SHA_K0                    004500e8     libsrtp-i386-win32-vc8-release:sha1.obj
 0003:000050ec       _SHA_K1                    004500ec     libsrtp-i386-win32-vc8-release:sha1.obj
 0003:000050f0       _SHA_K2                    004500f0     libsrtp-i386-win32-vc8-release:sha1.obj
 0003:000050f4       _SHA_K3                    004500f4     libsrtp-i386-win32-vc8-release:sha1.obj
 0003:000050f8       ___security_cookie_complement 004500f8     MSVCRT:gs_cookie.obj
 0003:000050fc       ___security_cookie         004500fc     MSVCRT:gs_cookie.obj
 0003:00005100       __fltused                  00450100     MSVCRT:fltused.obj
 0003:00005110       ___isa_enabled             00450110     MSVCRT:_cpu_disp_.obj
 0003:00005114       ___scrt_native_dllmain_reason 00450114     MSVCRT:utility.obj
 0003:00005118       ___scrt_default_matherr    00450118     MSVCRT:matherr.obj
 0003:000051c4       ___scrt_ucrt_dll_is_in_use 004501c4     MSVCRT:ucrt_stubs.obj
 0003:00005b14       _crypto_kernel             00450b14     libsrtp-i386-win32-vc8-release:crypto_kernel.obj
 0003:00005b28       _slides_window             00450b28     libsrtp-i386-win32-vc8-release:srtp.obj
 0003:00005b78       _null_cipher_test_0        00450b78     libsrtp-i386-win32-vc8-release:null_cipher.obj
 0003:00005b98       _aes_icm_test_case_0_nonce 00450b98     libsrtp-i386-win32-vc8-release:aes_icm.obj
 0003:00005ba8       _aes_icm_test_case_0_plaintext 00450ba8     libsrtp-i386-win32-vc8-release:aes_icm.obj
 0003:00005bc8       _aes_cbc_test_case_0_iv    00450bc8     libsrtp-i386-win32-vc8-release:aes_cbc.obj
 0003:00005bd8       _lpc_algo_test_case_0      00450bd8     libsrtp-i386-win32-vc8-release:lpc_algo.obj
 0003:00005bf8       _null_auth_test_case_0     00450bf8     libsrtp-i386-win32-vc8-release:null_auth.obj
 0003:00005f34       ___isa_available           00450f34     MSVCRT:_cpu_disp_.obj
 0003:00005f38       ___favor                   00450f38     MSVCRT:_cpu_disp_.obj
 0003:00005f3c       ___scrt_current_native_startup_state 00450f3c     MSVCRT:utility.obj
 0003:00005f40       ___scrt_native_startup_lock 00450f40     MSVCRT:utility.obj
 0003:00005f60       ?__type_info_root_node@@3U__type_info_node@@A 00450f60     MSVCRT:tncleanup.obj
 0003:00005f68       ?_OptionsStorage@?1??__local_stdio_scanf_options@@9@4_KA 00450f68     MSVCRT:default_local_stdio_options.obj
 0003:00005f70       ___scrt_debugger_hook_flag 00450f70     MSVCRT:utility_desktop.obj
 0003:00006458       ?_OptionsStorage@?1??__local_stdio_printf_options@@9@9 00451458     <common>
 0003:00006460       _PJ_NO_MEMORY_EXCEPTION    00451460     <common>
 0003:00006480       _bit_string                00451480     <common>
 0003:00006880       _ctr_prng                  00451880     <common>
 0003:00006978       ___dyn_tls_dtor_callback   00451978     <common>
 0003:0000697c       ___dyn_tls_init_callback   0045197c     <common>

 entry point at        0001:00032b34

 Static symbols

 0002:fffc8000       .idata$6                   00400000     ucrt:api-ms-win-crt-time-l1-1-0.dll
 0001:00000000       _pj_cstr                   00401000 f   encdec.obj
 0001:00000030       _pjmedia_codec_init        00401030 f   encdec.obj
 0001:00000040       _pjmedia_codec_open        00401040 f   encdec.obj
 0001:00000050       _pjmedia_codec_close       00401050 f   encdec.obj
 0001:00000060       _pjmedia_codec_parse       00401060 f   encdec.obj
 0001:00000070       _pjmedia_codec_encode      00401070 f   encdec.obj
 0001:00000080       _pjmedia_codec_decode      00401080 f   encdec.obj
 0001:00000090       _pjmedia_codec_recover     00401090 f   encdec.obj
 0001:000000b0       _err                       004010b0 f   encdec.obj
 0001:00000110       _enc_dec_test              00401110 f   encdec.obj
 0001:00000960       _l16_test_alloc            00401960 f   pjmedia-codec-i386-win32-vc8-release:l16.obj
 0001:00000980       _l16_default_attr          00401980 f   pjmedia-codec-i386-win32-vc8-release:l16.obj
 0001:000009e0       _l16_enum_codecs           004019e0 f   pjmedia-codec-i386-win32-vc8-release:l16.obj
 0001:00000b50       _l16_alloc_codec           00401b50 f   pjmedia-codec-i386-win32-vc8-release:l16.obj
 0001:00000c70       _l16_dealloc_codec         00401c70 f   pjmedia-codec-i386-win32-vc8-release:l16.obj
 0001:00000cc0       _l16_open                  00401cc0 f   pjmedia-codec-i386-win32-vc8-release:l16.obj
 0001:00000d00       _l16_modify                00401d00 f   pjmedia-codec-i386-win32-vc8-release:l16.obj
 0001:00000d30       _l16_parse                 00401d30 f   pjmedia-codec-i386-win32-vc8-release:l16.obj
 0001:00000db0       _l16_encode                00401db0 f   pjmedia-codec-i386-win32-vc8-release:l16.obj
 0001:00000ec0       _l16_decode                00401ec0 f   pjmedia-codec-i386-win32-vc8-release:l16.obj
 0001:00000f70       _l16_recover               00401f70 f   pjmedia-codec-i386-win32-vc8-release:l16.obj
 0001:00001140       _gsm_test_alloc            00402140 f   pjmedia-codec-i386-win32-vc8-release:gsm.obj
 0001:00001160       _gsm_default_attr          00402160 f   pjmedia-codec-i386-win32-vc8-release:gsm.obj
 0001:000011b0       _gsm_enum_codecs           004021b0 f   pjmedia-codec-i386-win32-vc8-release:gsm.obj
 0001:00001220       _gsm_alloc_codec           00402220 f   pjmedia-codec-i386-win32-vc8-release:gsm.obj
 0001:00001340       _gsm_dealloc_codec         00402340 f   pjmedia-codec-i386-win32-vc8-release:gsm.obj
 0001:00001430       _gsm_codec_open            00402430 f   pjmedia-codec-i386-win32-vc8-release:gsm.obj
 0001:00001480       _gsm_codec_close           00402480 f   pjmedia-codec-i386-win32-vc8-release:gsm.obj
 0001:000014c0       _gsm_codec_modify          004024c0 f   pjmedia-codec-i386-win32-vc8-release:gsm.obj
 0001:000014f0       _gsm_codec_parse           004024f0 f   pjmedia-codec-i386-win32-vc8-release:gsm.obj
 0001:00001580       _gsm_codec_encode          00402580 f   pjmedia-codec-i386-win32-vc8-release:gsm.obj
 0001:000016b0       _gsm_codec_decode          004026b0 f   pjmedia-codec-i386-win32-vc8-release:gsm.obj
 0001:00001740       _gsm_codec_recover         00402740 f   pjmedia-codec-i386-win32-vc8-release:gsm.obj
 0001:00001980       _spx_test_alloc            00402980 f   pjmedia-codec-i386-win32-vc8-release:speex_codec.obj
 0001:000019e0       _spx_default_attr          004029e0 f   pjmedia-codec-i386-win32-vc8-release:speex_codec.obj
 0001:00001a90       _spx_enum_codecs           00402a90 f   pjmedia-codec-i386-win32-vc8-release:speex_codec.obj
 0001:00001b50       _spx_alloc_codec           00402b50 f   pjmedia-codec-i386-win32-vc8-release:speex_codec.obj
 0001:00001c40       _spx_dealloc_codec         00402c40 f   pjmedia-codec-i386-win32-vc8-release:speex_codec.obj
 0001:00001cb0       _spx_codec_open            00402cb0 f   pjmedia-codec-i386-win32-vc8-release:speex_codec.obj
 0001:00001dd0       _spx_codec_close           00402dd0 f   pjmedia-codec-i386-win32-vc8-release:speex_codec.obj
 0001:00001e20       _spx_codec_modify          00402e20 f   pjmedia-codec-i386-win32-vc8-release:speex_codec.obj
 0001:00001e80       _spx_codec_parse           00402e80 f   pjmedia-codec-i386-win32-vc8-release:speex_codec.obj
 0001:000020a0       _spx_codec_encode          004030a0 f   pjmedia-codec-i386-win32-vc8-release:speex_codec.obj
 0001:000021c0       _spx_codec_decode          004031c0 f   pjmedia-codec-i386-win32-vc8-release:speex_codec.obj
 0001:00002280       _spx_codec_recover         00403280 f   pjmedia-codec-i386-win32-vc8-release:speex_codec.obj
 0001:000022d0       _get_speex_info            004032d0 f   pjmedia-codec-i386-win32-vc8-release:speex_codec.obj
 0001:000025f0       _ilbc_test_alloc           004035f0 f   pjmedia-codec-i386-win32-vc8-release:ilbc.obj
 0001:00002660       _ilbc_default_attr         00403660 f   pjmedia-codec-i386-win32-vc8-release:ilbc.obj
 0001:00002720       _ilbc_enum_codecs          00403720 f   pjmedia-codec-i386-win32-vc8-release:ilbc.obj
 0001:000027a0       _ilbc_alloc_codec          004037a0 f   pjmedia-codec-i386-win32-vc8-release:ilbc.obj
 0001:00002840       _ilbc_dealloc_codec        00403840 f   pjmedia-codec-i386-win32-vc8-release:ilbc.obj
 0001:00002870       _ilbc_codec_open           00403870 f   pjmedia-codec-i386-win32-vc8-release:ilbc.obj
 0001:00002a60       _ilbc_codec_close          00403a60 f   pjmedia-codec-i386-win32-vc8-release:ilbc.obj
 0001:00002a90       _ilbc_codec_modify         00403a90 f   pjmedia-codec-i386-win32-vc8-release:ilbc.obj
 0001:00002ac0       _ilbc_codec_parse          00403ac0 f   pjmedia-codec-i386-win32-vc8-release:ilbc.obj
 0001:00002b50       _ilbc_codec_encode         00403b50 f   pjmedia-codec-i386-win32-vc8-release:ilbc.obj
 0001:00002cb0       _ilbc_codec_decode         00403cb0 f   pjmedia-codec-i386-win32-vc8-release:ilbc.obj
 0001:00002d70       _ilbc_codec_recover        00403d70 f   pjmedia-codec-i386-win32-vc8-release:ilbc.obj
 0001:00002f50       _g722_test_alloc           00403f50 f   pjmedia-codec-i386-win32-vc8-release:g722.obj
 0001:00002f70       _g722_default_attr         00403f70 f   pjmedia-codec-i386-win32-vc8-release:g722.obj
 0001:00002fc0       _g722_enum_codecs          00403fc0 f   pjmedia-codec-i386-win32-vc8-release:g722.obj
 0001:00003030       _g722_alloc_codec          00404030 f   pjmedia-codec-i386-win32-vc8-release:g722.obj
 0001:00003160       _g722_dealloc_codec        00404160 f   pjmedia-codec-i386-win32-vc8-release:g722.obj
 0001:00003230       _g722_codec_open           00404230 f   pjmedia-codec-i386-win32-vc8-release:g722.obj
 0001:000032f0       _g722_codec_modify         004042f0 f   pjmedia-codec-i386-win32-vc8-release:g722.obj
 0001:00003320       _g722_codec_parse          00404320 f   pjmedia-codec-i386-win32-vc8-release:g722.obj
 0001:000033b0       _g722_codec_encode         004043b0 f   pjmedia-codec-i386-win32-vc8-release:g722.obj
 0001:00003530       _g722_codec_decode         00404530 f   pjmedia-codec-i386-win32-vc8-release:g722.obj
 0001:00003640       _g722_codec_recover        00404640 f   pjmedia-codec-i386-win32-vc8-release:g722.obj
 0001:00003770       _block1h                   00404770 f   pjmedia-codec-i386-win32-vc8-release:g722_enc.obj
 0001:000037d0       _block1l                   004047d0 f   pjmedia-codec-i386-win32-vc8-release:g722_enc.obj
 0001:00003850       _block3h                   00404850 f   pjmedia-codec-i386-win32-vc8-release:g722_enc.obj
 0001:000038d0       _block3l                   004048d0 f   pjmedia-codec-i386-win32-vc8-release:g722_enc.obj
 0001:00003950       _block4h                   00404950 f   pjmedia-codec-i386-win32-vc8-release:g722_enc.obj
 0001:00003da0       _block4l                   00404da0 f   pjmedia-codec-i386-win32-vc8-release:g722_enc.obj
 0001:00003da0       _block4l                   00404da0 f   pjmedia-codec-i386-win32-vc8-release:g722_dec.obj
 0001:00004270       _tx_qmf                    00405270 f   pjmedia-codec-i386-win32-vc8-release:g722_enc.obj
 0001:00004380       _block3h                   00405380 f   pjmedia-codec-i386-win32-vc8-release:g722_dec.obj
 0001:00004400       _block3l                   00405400 f   pjmedia-codec-i386-win32-vc8-release:g722_dec.obj
 0001:00004480       _block4h                   00405480 f   pjmedia-codec-i386-win32-vc8-release:g722_dec.obj
 0001:00004b50       _rx_qmf                    00405b50 f   pjmedia-codec-i386-win32-vc8-release:g722_dec.obj
 0001:000054b0       _sort_codecs               004064b0 f   pjmedia-i386-win32-vc8-release:codec.obj
 0001:000058d0       _worker_proc               004068d0 f   pjmedia-i386-win32-vc8-release:endpoint.obj
 0001:00005920       _create_file_port          00406920 f   pjmedia-i386-win32-vc8-release:wav_player.obj
 0001:00005990       _file_get_frame            00406990 f   pjmedia-i386-win32-vc8-release:wav_player.obj
 0001:00005be0       _file_on_destroy           00406be0 f   pjmedia-i386-win32-vc8-release:wav_player.obj
 0001:00005c00       _fill_buffer               00406c00 f   pjmedia-i386-win32-vc8-release:wav_player.obj
 0001:00006200       _file_get_frame            00407200 f   pjmedia-i386-win32-vc8-release:wav_writer.obj
 0001:00006210       _file_on_destroy           00407210 f   pjmedia-i386-win32-vc8-release:wav_writer.obj
 0001:00006360       _file_put_frame            00407360 f   pjmedia-i386-win32-vc8-release:wav_writer.obj
 0001:00006770       _g711_test_alloc           00407770 f   pjmedia-i386-win32-vc8-release:g711.obj
 0001:00006790       _g711_default_attr         00407790 f   pjmedia-i386-win32-vc8-release:g711.obj
 0001:000067f0       _g711_enum_codecs          004077f0 f   pjmedia-i386-win32-vc8-release:g711.obj
 0001:00006880       _g711_alloc_codec          00407880 f   pjmedia-i386-win32-vc8-release:g711.obj
 0001:000069a0       _g711_dealloc_codec        004079a0 f   pjmedia-i386-win32-vc8-release:g711.obj
 0001:00006a70       _g711_open                 00407a70 f   pjmedia-i386-win32-vc8-release:g711.obj
 0001:00006aa0       _g711_modify               00407aa0 f   pjmedia-i386-win32-vc8-release:g711.obj
 0001:00006ae0       _g711_parse                00407ae0 f   pjmedia-i386-win32-vc8-release:g711.obj
 0001:00006b70       _g711_encode               00407b70 f   pjmedia-i386-win32-vc8-release:g711.obj
 0001:00006c90       _g711_decode               00407c90 f   pjmedia-i386-win32-vc8-release:g711.obj
 0001:00006d60       _g711_recover              00407d60 f   pjmedia-i386-win32-vc8-release:g711.obj
 0001:00006f40       _plc_wsola_create          00407f40 f   pjmedia-i386-win32-vc8-release:plc_common.obj
 0001:00006f80       _plc_wsola_save            00407f80 f   pjmedia-i386-win32-vc8-release:plc_common.obj
 0001:00006fb0       _plc_wsola_generate        00407fb0 f   pjmedia-i386-win32-vc8-release:plc_common.obj
 0001:000075c0       _create_win                004085c0 f   pjmedia-i386-win32-vc8-release:wsola.obj
 0001:00007750       _expand                    00408750 f   pjmedia-i386-win32-vc8-release:wsola.obj
 0001:000078d0       _fade_in                   004088d0 f   pjmedia-i386-win32-vc8-release:wsola.obj
 0001:00007990       _find_pitch                00408990 f   pjmedia-i386-win32-vc8-release:wsola.obj
 0001:00007c40       _overlapp_add_simple       00408c40 f   pjmedia-i386-win32-vc8-release:wsola.obj
 0001:00007cd0       _pjmedia_circ_buf_adv_read_ptr 00408cd0 f   pjmedia-i386-win32-vc8-release:wsola.obj
 0001:00007d20       _pjmedia_circ_buf_copy     00408d20 f   pjmedia-i386-win32-vc8-release:wsola.obj
 0001:00007dd0       _pjmedia_circ_buf_create   00408dd0 f   pjmedia-i386-win32-vc8-release:wsola.obj
 0001:00007e10       _pjmedia_circ_buf_get_read_regions 00408e10 f   pjmedia-i386-win32-vc8-release:wsola.obj
 0001:00007e80       _pjmedia_circ_buf_get_write_regions 00408e80 f   pjmedia-i386-win32-vc8-release:wsola.obj
 0001:00007f00       _pjmedia_circ_buf_pack_buffer 00408f00 f   pjmedia-i386-win32-vc8-release:wsola.obj
 0001:00007fe0       _pjmedia_circ_buf_write    00408fe0 f   pjmedia-i386-win32-vc8-release:wsola.obj
 0001:000085b0       _wsola_fade_out            004095b0 f   pjmedia-i386-win32-vc8-release:wsola.obj
 0001:000086d0       _transport_get_info        004096d0 f   pjmedia-i386-win32-vc8-release:transport_srtp.obj
 0001:000087c0       _transport_attach          004097c0 f   pjmedia-i386-win32-vc8-release:transport_srtp.obj
 0001:00008880       _transport_detach          00409880 f   pjmedia-i386-win32-vc8-release:transport_srtp.obj
 0001:000088e0       _transport_send_rtp        004098e0 f   pjmedia-i386-win32-vc8-release:transport_srtp.obj
 0001:000089a0       _transport_send_rtcp       004099a0 f   pjmedia-i386-win32-vc8-release:transport_srtp.obj
 0001:000089c0       _transport_send_rtcp2      004099c0 f   pjmedia-i386-win32-vc8-release:transport_srtp.obj
 0001:00008a90       _transport_media_create    00409a90 f   pjmedia-i386-win32-vc8-release:transport_srtp.obj
 0001:00008b80       _transport_encode_sdp      00409b80 f   pjmedia-i386-win32-vc8-release:transport_srtp.obj
 0001:000091a0       _transport_media_start     0040a1a0 f   pjmedia-i386-win32-vc8-release:transport_srtp.obj
 0001:00009510       _transport_media_stop      0040a510 f   pjmedia-i386-win32-vc8-release:transport_srtp.obj
 0001:00009570       _transport_simulate_lost   0040a570 f   pjmedia-i386-win32-vc8-release:transport_srtp.obj
 0001:000095a0       _transport_destroy         0040a5a0 f   pjmedia-i386-win32-vc8-release:transport_srtp.obj
 0001:00009610       _generate_crypto_attr_value 0040a610 f   pjmedia-i386-win32-vc8-release:transport_srtp.obj
 0001:000098b0       _get_crypto_idx            0040a8b0 f   pjmedia-i386-win32-vc8-release:transport_srtp.obj
 0001:00009930       _parse_attr_crypto         0040a930 f   pjmedia-i386-win32-vc8-release:transport_srtp.obj
 0001:0000a340       _srtp_crypto_cmp           0040b340 f   pjmedia-i386-win32-vc8-release:transport_srtp.obj
 0001:0000a380       _srtp_rtcp_cb              0040b380 f   pjmedia-i386-win32-vc8-release:transport_srtp.obj
 0001:0000a480       _srtp_rtp_cb               0040b480 f   pjmedia-i386-win32-vc8-release:transport_srtp.obj
 0001:0000a9e0       _init_mutex                0040b9e0 f   pjlib-i386-win32-vc8-release:os_core_win32.obj
 0001:0000b140       _pj_sem_wait_for           0040c140 f   pjlib-i386-win32-vc8-release:os_core_win32.obj
 0001:0000b990       _thread_main@4             0040c990 f   pjlib-i386-win32-vc8-release:os_core_win32.obj
 0001:0000bc70       _pjlib_error               0040cc70 f   pjlib-i386-win32-vc8-release:errno.obj
 0001:0000bcf0       _logging_shutdown          0040ccf0 f   pjlib-i386-win32-vc8-release:log.obj
 0001:0000c2fc       $LN14                      0040d2fc     pjlib-i386-win32-vc8-release:log.obj
 0001:0000c6b0       _pj_pool_create_block      0040d6b0 f   pjlib-i386-win32-vc8-release:pool.obj
 0001:0000c910       _reset_pool                0040d910 f   pjlib-i386-win32-vc8-release:pool.obj
 0001:0000c990       _cpool_create_pool         0040d990 f   pjlib-i386-win32-vc8-release:pool_caching.obj
 0001:0000cac0       _cpool_dump_status         0040dac0 f   pjlib-i386-win32-vc8-release:pool_caching.obj
 0001:0000cc10       _cpool_on_block_alloc      0040dc10 f   pjlib-i386-win32-vc8-release:pool_caching.obj
 0001:0000cc30       _cpool_on_block_free       0040dc30 f   pjlib-i386-win32-vc8-release:pool_caching.obj
 0001:0000cc40       _cpool_release_pool        0040dc40 f   pjlib-i386-win32-vc8-release:pool_caching.obj
 0001:0000d210       _pj_memcmp                 0040e210 f   pjlib-i386-win32-vc8-release:string.obj
 0001:0000d7c0       ?decrement_counter@@YAXPAUpj_ioqueue_key_t@@@Z 0040e7c0 f   pjlib-i386-win32-vc8-release:ioqueue_select.obj
 0001:0000d850       ?increment_counter@@YAXPAUpj_ioqueue_key_t@@@Z 0040e850 f   pjlib-i386-win32-vc8-release:ioqueue_select.obj
 0001:0000de90       ?scan_closing_keys@@YAXPAUpj_ioqueue_t@@@Z 0040ee90 f   pjlib-i386-win32-vc8-release:ioqueue_select.obj
 0001:0000ea10       _create_mutex_lock         0040fa10 f   pjlib-i386-win32-vc8-release:lock.obj
 0001:0000ea80       _grp_lock_acquire          0040fa80 f   pjlib-i386-win32-vc8-release:lock.obj
 0001:0000eaf0       _grp_lock_destroy          0040faf0 f   pjlib-i386-win32-vc8-release:lock.obj
 0001:0000eba0       _grp_lock_release          0040fba0 f   pjlib-i386-win32-vc8-release:lock.obj
 0001:0000ee00       _guid_to_str               0040fe00 f   pjlib-i386-win32-vc8-release:guid_win32.obj
 0001:0000f0f0       _pool_buf_cleanup          004100f0 f   pjlib-i386-win32-vc8-release:pool_buf.obj
 0001:0000f120       _stack_alloc               00410120 f   pjlib-i386-win32-vc8-release:pool_buf.obj
 0001:0000f160       _default_block_alloc       00410160 f   pjlib-i386-win32-vc8-release:pool_policy_malloc.obj
 0001:0000f1c0       _default_block_free        004101c0 f   pjlib-i386-win32-vc8-release:pool_policy_malloc.obj
 0001:0000f200       _default_pool_callback     00410200 f   pjlib-i386-win32-vc8-release:pool_policy_malloc.obj
 0001:000102e0       _Calculation_of_the_LTP_parameters 004112e0 f   libgsmcodec-i386-win32-vc8-release:long_term.obj
 0001:00010960       _Long_term_analysis_filtering 00411960 f   libgsmcodec-i386-win32-vc8-release:long_term.obj
 0001:00010bc0       $LN57                      00411bc0     libgsmcodec-i386-win32-vc8-release:long_term.obj
 0001:00010bd0       _Autocorrelation           00411bd0 f   libgsmcodec-i386-win32-vc8-release:lpc.obj
 0001:000112ac       $LN146                     004122ac     libgsmcodec-i386-win32-vc8-release:lpc.obj
 0001:00011310       _Quantization_and_coding   00412310 f   libgsmcodec-i386-win32-vc8-release:lpc.obj
 0001:00011860       _Reflection_coefficients   00412860 f   libgsmcodec-i386-win32-vc8-release:lpc.obj
 0001:00011ba0       _Transformation_to_Log_Area_Ratios 00412ba0 f   libgsmcodec-i386-win32-vc8-release:lpc.obj
 0001:00011de0       _Coefficients_0_12         00412de0 f   libgsmcodec-i386-win32-vc8-release:short_term.obj
 0001:00011ea0       _Coefficients_13_26        00412ea0 f   libgsmcodec-i386-win32-vc8-release:short_term.obj
 0001:00011f20       _Coefficients_27_39        00412f20 f   libgsmcodec-i386-win32-vc8-release:short_term.obj
 0001:00011fe0       _Decoding_of_the_coded_Log_Area_Ratios 00412fe0 f   libgsmcodec-i386-win32-vc8-release:short_term.obj
 0001:00012680       _LARp_to_rp                00413680 f   libgsmcodec-i386-win32-vc8-release:short_term.obj
 0001:00012770       _Short_term_analysis_filtering 00413770 f   libgsmcodec-i386-win32-vc8-release:short_term.obj
 0001:00012890       _Short_term_synthesis_filtering 00413890 f   libgsmcodec-i386-win32-vc8-release:short_term.obj
 0001:000129d0       _APCM_inverse_quantization 004139d0 f   libgsmcodec-i386-win32-vc8-release:rpe.obj
 0001:00012ab0       _APCM_quantization         00413ab0 f   libgsmcodec-i386-win32-vc8-release:rpe.obj
 0001:00012d80       _APCM_quantization_xmaxc_to_exp_mant 00413d80 f   libgsmcodec-i386-win32-vc8-release:rpe.obj
 0001:00012ee0       _RPE_grid_positioning      00413ee0 f   libgsmcodec-i386-win32-vc8-release:rpe.obj
 0001:00012f64       $LN26                      00413f64     libgsmcodec-i386-win32-vc8-release:rpe.obj
 0001:00012f80       _RPE_grid_selection        00413f80 f   libgsmcodec-i386-win32-vc8-release:rpe.obj
 0001:00013470       _Weighting_filter          00414470 f   libgsmcodec-i386-win32-vc8-release:rpe.obj
 0001:0001dfc0       __speex_fatal              0041efc0 f   libspeex-i386-win32-vc8-release:nb_celp.obj
 0001:0001eda0       _nb_decode_lost            0041fda0 f   libspeex-i386-win32-vc8-release:nb_celp.obj
 0001:0001f348       $LN68                      00420348     libspeex-i386-win32-vc8-release:nb_celp.obj
 0001:0001f3a8       $LN65                      004203a8     libspeex-i386-win32-vc8-release:nb_celp.obj
 0001:00020f78       $LN116                     00421f78     libspeex-i386-win32-vc8-release:nb_celp.obj
 0001:0002100c       $LN112                     0042200c     libspeex-i386-win32-vc8-release:nb_celp.obj
 0001:00021380       _speex_notify              00422380 f   libspeex-i386-win32-vc8-release:nb_celp.obj
 0001:00021dd0       _pitch_gain_search_3tap    00422dd0 f   libspeex-i386-win32-vc8-release:ltp.obj
 0001:00022ac0       _pitch_gain_search_3tap_vq 00423ac0 f   libspeex-i386-win32-vc8-release:ltp.obj
 0001:00023290       _compute_quant_weights     00424290 f   libspeex-i386-win32-vc8-release:quant_lsp.obj
 0001:00023330       _lsp_quant                 00424330 f   libspeex-i386-win32-vc8-release:quant_lsp.obj
 0001:000258e0       _lsp_weight_quant          004268e0 f   libspeex-i386-win32-vc8-release:quant_lsp.obj
 0001:00025a30       _compute_weighted_codebook 00426a30 f   libspeex-i386-win32-vc8-release:cb_search.obj
 0001:00026e10       _split_cb_search_shape_sign_N1 00427e10 f   libspeex-i386-win32-vc8-release:cb_search.obj
 0001:00027780       _target_update             00428780 f   libspeex-i386-win32-vc8-release:cb_search.obj
 0001:00027f80       _sb_decode_lost            00428f80 f   libspeex-i386-win32-vc8-release:sb_celp.obj
 0001:00028510       $LN114                     00429510     libspeex-i386-win32-vc8-release:sb_celp.obj
 0001:00028578       $LN94                      00429578     libspeex-i386-win32-vc8-release:sb_celp.obj
 0001:00029ca0       $LN165                     0042aca0     libspeex-i386-win32-vc8-release:sb_celp.obj
 0001:00029d3c       $LN144                     0042ad3c     libspeex-i386-win32-vc8-release:sb_celp.obj
 0001:0002dc60       _be64_to_cpu               0042ec60 f   libsrtp-i386-win32-vc8-release:srtp.obj
 0001:0002dfc0       $LN12                      0042efc0     libsrtp-i386-win32-vc8-release:srtp.obj
 0001:0002fd40       _aes_icm_advance_ismacryp  00430d40 f   libsrtp-i386-win32-vc8-release:aes_icm.obj
 0001:000318e0       _aes_final_round           004328e0 f   libsrtp-i386-win32-vc8-release:aes.obj
 0001:000319e0       _aes_inv_final_round       004329e0 f   libsrtp-i386-win32-vc8-release:aes.obj
 0001:00031ae0       _aes_inv_round             00432ae0 f   libsrtp-i386-win32-vc8-release:aes.obj
 0001:00031bd0       _aes_round                 00432bd0 f   libsrtp-i386-win32-vc8-release:aes.obj
 0001:000327cc       $LN111                     004337cc     libsrtp-i386-win32-vc8-release:sha1.obj
 0001:00032907       ?pre_c_initialization@@YAHXZ 00433907 f   MSVCRT:exe_main.obj
 0001:000329ab       ?post_pgo_initialization@@YAHXZ 004339ab f   MSVCRT:exe_main.obj
 0001:000329b3       ?pre_cpp_initialization@@YAXXZ 004339b3 f   MSVCRT:exe_main.obj
 0001:000329c5       ?__scrt_common_main_seh@@YAHXZ 004339c5 f   MSVCRT:exe_main.obj
 0001:00032b40       $$000000                   00433b40     MSVCRT:ulldiv.obj
 0001:00032bb0       $$000000                   00433bb0     MSVCRT:lldiv.obj
 0001:00032c60       $$000000                   00433c60     MSVCRT:_svml_dcos2_dispatch_.obj
 0001:00032e70       $$000000                   00433e70     MSVCRT:llmul.obj
 0001:00032eb0       $$000000                   00433eb0     MSVCRT:llshl.obj
 0001:00032ed0       $$000000                   00433ed0     MSVCRT:_ftol3_.obj
 0001:00033250       $$000000                   00434250     MSVCRT:chkstk.obj
 0001:00033280       $$000000                   00434280     MSVCRT:_ftol2_.obj
 0001:00033340       $$000000                   00434340     MSVCRT:alloca16.obj
 0001:00033506       ?find_pe_section@@YAPAU_IMAGE_SECTION_HEADER@@QAEI@Z 00434506 f   MSVCRT:utility.obj
 0001:00033810       _ilbc_codec_init           00434810 f   pjmedia-codec-i386-win32-vc8-release:ilbc.obj
 0001:00033810       _null_op                   00434810 f   pjlib-i386-win32-vc8-release:lock.obj
 0001:00033810       _l16_close                 00434810 f   pjmedia-codec-i386-win32-vc8-release:l16.obj
 0001:00033810       _g711_close                00434810 f   pjmedia-i386-win32-vc8-release:g711.obj
 0001:00033810       _l16_init                  00434810 f   pjmedia-codec-i386-win32-vc8-release:l16.obj
 0001:00033810       _g711_init                 00434810 f   pjmedia-i386-win32-vc8-release:g711.obj
 0001:00033810       _spx_codec_init            00434810 f   pjmedia-codec-i386-win32-vc8-release:speex_codec.obj
 0001:00033810       _g722_codec_close          00434810 f   pjmedia-codec-i386-win32-vc8-release:g722.obj
 0001:00033810       _g722_codec_init           00434810 f   pjmedia-codec-i386-win32-vc8-release:g722.obj
 0001:00033810       _gsm_codec_init            00434810 f   pjmedia-codec-i386-win32-vc8-release:gsm.obj
 0001:00033a90       $$000000                   00434a90     MSVCRT:_sehprolg4_.obj
 0001:00033b10       $$000000                   00434b10     MSVCRT:_svml_dcos2_sse2_.obj
 0001:00033cc0       $$000000                   00434cc0     MSVCRT:_svml_dtrig_.obj
 0001:00033fb0       ___common_srl              00434fb0 f   MSVCRT:_svml_dtrig_.obj
 0001:00033fe0       ___common_sll              00434fe0 f   MSVCRT:_svml_dtrig_.obj
 0001:00034780       _init_driver               00435780 f   pjmedia-audiodev-i386-win32-vc8-release:audiodev.obj
 0001:00034cb0       _factory_init              00435cb0 f   pjmedia-audiodev-i386-win32-vc8-release:wmme_dev.obj
 0001:00034cf0       _factory_destroy           00435cf0 f   pjmedia-audiodev-i386-win32-vc8-release:wmme_dev.obj
 0001:00034d20       _factory_refresh           00435d20 f   pjmedia-audiodev-i386-win32-vc8-release:wmme_dev.obj
 0001:00034fd0       _factory_get_dev_count     00435fd0 f   pjmedia-audiodev-i386-win32-vc8-release:wmme_dev.obj
 0001:00034fe0       _factory_get_dev_info      00435fe0 f   pjmedia-audiodev-i386-win32-vc8-release:wmme_dev.obj
 0001:00035020       _factory_default_param     00436020 f   pjmedia-audiodev-i386-win32-vc8-release:wmme_dev.obj
 0001:000350f0       _factory_create_stream     004360f0 f   pjmedia-audiodev-i386-win32-vc8-release:wmme_dev.obj
 0001:00035350       _stream_get_param          00436350 f   pjmedia-audiodev-i386-win32-vc8-release:wmme_dev.obj
 0001:000353d0       _stream_get_cap            004363d0 f   pjmedia-audiodev-i386-win32-vc8-release:wmme_dev.obj
 0001:00035460       _stream_set_cap            00436460 f   pjmedia-audiodev-i386-win32-vc8-release:wmme_dev.obj
 0001:000354f0       _stream_start              004364f0 f   pjmedia-audiodev-i386-win32-vc8-release:wmme_dev.obj
 0001:00035570       _stream_stop               00436570 f   pjmedia-audiodev-i386-win32-vc8-release:wmme_dev.obj
 0001:00035600       _stream_destroy            00436600 f   pjmedia-audiodev-i386-win32-vc8-release:wmme_dev.obj
 0001:00035770       _build_dev_info            00436770 f   pjmedia-audiodev-i386-win32-vc8-release:wmme_dev.obj
 0001:000358f0       _init_capture_stream       004368f0 f   pjmedia-audiodev-i386-win32-vc8-release:wmme_dev.obj
 0001:00035b10       _init_player_stream        00436b10 f   pjmedia-audiodev-i386-win32-vc8-release:wmme_dev.obj
 0001:00035d50       _init_waveformatex         00436d50 f   pjmedia-audiodev-i386-win32-vc8-release:wmme_dev.obj
 0001:00035e30       _pjmedia_frame_ext_append_subframe 00436e30 f   pjmedia-audiodev-i386-win32-vc8-release:wmme_dev.obj
 0001:00035e90       _pjmedia_frame_ext_copy_payload 00436e90 f   pjmedia-audiodev-i386-win32-vc8-release:wmme_dev.obj
 0001:00035f60       _wmme_dev_thread           00436f60 f   pjmedia-audiodev-i386-win32-vc8-release:wmme_dev.obj
 0002:00000284       ?pre_cpp_initializer@@3P6AXXZA 00438284     MSVCRT:exe_main.obj
 0002:00000290       ?pre_c_initializer@@3P6AHXZA 00438290     MSVCRT:exe_main.obj
 0002:00000294       ?post_pgo_initializer@@3P6AHXZA 00438294     MSVCRT:exe_main.obj
 0002:000002b0       _STR_L16                   004382b0     pjmedia-codec-i386-win32-vc8-release:l16.obj
 0002:000002c8       ?inband_skip_table@?1??speex_get_next_frame@@9@9 004382c8     pjmedia-codec-i386-win32-vc8-release:speex_codec.obj
 0002:00000308       ?wb_skip_table@?1??speex_get_next_frame@@9@9 00438308     pjmedia-codec-i386-win32-vc8-release:speex_codec.obj
 0002:00000458       ?q6@?1??block1l@@9@9       00438458     pjmedia-codec-i386-win32-vc8-release:g722_enc.obj
 0002:000004d8       ?iln@?1??block1l@@9@9      004384d8     pjmedia-codec-i386-win32-vc8-release:g722_enc.obj
 0002:00000558       ?ilp@?1??block1l@@9@9      00438558     pjmedia-codec-i386-win32-vc8-release:g722_enc.obj
 0002:000005d8       ?qm4@?1??block2l@@9@9      004385d8     pjmedia-codec-i386-win32-vc8-release:g722_enc.obj
 0002:00000618       ?wl@?1??block3l@@9@9       00438618     pjmedia-codec-i386-win32-vc8-release:g722_enc.obj
 0002:00000638       ?rl42@?1??block3l@@9@9     00438638     pjmedia-codec-i386-win32-vc8-release:g722_enc.obj
 0002:00000678       ?ilb@?1??block3l@@9@9      00438678     pjmedia-codec-i386-win32-vc8-release:g722_enc.obj
 0002:000006f8       ?ihn@?1??block1h@@9@9      004386f8     pjmedia-codec-i386-win32-vc8-release:g722_enc.obj
 0002:00000704       ?ihp@?1??block1h@@9@9      00438704     pjmedia-codec-i386-win32-vc8-release:g722_enc.obj
 0002:00000710       ?qm2@?1??block2h@@9@9      00438710     pjmedia-codec-i386-win32-vc8-release:g722_enc.obj
 0002:00000720       ?wh@?1??block3h@@9@9       00438720     pjmedia-codec-i386-win32-vc8-release:g722_enc.obj
 0002:0000072c       ?rh2@?1??block3h@@9@9      0043872c     pjmedia-codec-i386-win32-vc8-release:g722_enc.obj
 0002:00000740       ?ilb@?1??block3h@@9@9      00438740     pjmedia-codec-i386-win32-vc8-release:g722_enc.obj
 0002:000007c0       _qm4                       004387c0     pjmedia-codec-i386-win32-vc8-release:g722_dec.obj
 0002:00000800       _ilb                       00438800     pjmedia-codec-i386-win32-vc8-release:g722_dec.obj
 0002:00000880       ?wl@?1??block3l@@9@9       00438880     pjmedia-codec-i386-win32-vc8-release:g722_dec.obj
 0002:000008a0       ?rl42@?1??block3l@@9@9     004388a0     pjmedia-codec-i386-win32-vc8-release:g722_dec.obj
 0002:000008e0       ?qm6@?1??block5l@@9@9      004388e0     pjmedia-codec-i386-win32-vc8-release:g722_dec.obj
 0002:000009e0       ?qm2@?1??block2h@@9@9      004389e0     pjmedia-codec-i386-win32-vc8-release:g722_dec.obj
 0002:000009f0       ?wh@?1??block3h@@9@9       004389f0     pjmedia-codec-i386-win32-vc8-release:g722_dec.obj
 0002:000009fc       ?rh2@?1??block3h@@9@9      004389fc     pjmedia-codec-i386-win32-vc8-release:g722_dec.obj
 0002:00000a24       _STR_RTP_AVP               00438a24     pjmedia-i386-win32-vc8-release:endpoint.obj
 0002:00000a2c       _STR_IN                    00438a2c     pjmedia-i386-win32-vc8-release:endpoint.obj
 0002:00000a34       _STR_IP4                   00438a34     pjmedia-i386-win32-vc8-release:endpoint.obj
 0002:00000a3c       _STR_IP6                   00438a3c     pjmedia-i386-win32-vc8-release:endpoint.obj
 0002:00000a44       _STR_SDP_NAME              00438a44     pjmedia-i386-win32-vc8-release:endpoint.obj
 0002:00000a4c       _STR_SENDRECV              00438a4c     pjmedia-i386-win32-vc8-release:endpoint.obj
 0002:00000cec       ?ID_RTP_AVP@?1??pjmedia_sdp_transport_cmp@@9@9 00438cec     pjmedia-i386-win32-vc8-release:sdp.obj
 0002:00000cf4       ?ID_RTP_SAVP@?1??pjmedia_sdp_transport_cmp@@9@9 00438cf4     pjmedia-i386-win32-vc8-release:sdp.obj
 0002:00000d18       _err_str                   00438d18     pjmedia-i386-win32-vc8-release:errno.obj
 0002:0000abe8       _ID_RTP_AVP                00442be8     pjmedia-i386-win32-vc8-release:transport_srtp.obj
 0002:0000abf0       _ID_RTP_SAVP               00442bf0     pjmedia-i386-win32-vc8-release:transport_srtp.obj
 0002:0000abf8       _ID_INACTIVE               00442bf8     pjmedia-i386-win32-vc8-release:transport_srtp.obj
 0002:0000ac00       _ID_CRYPTO                 00442c00     pjmedia-i386-win32-vc8-release:transport_srtp.obj
 0002:0000b180       _base64_char               00443180     pjlib-util-i386-win32-vc8-release:base64.obj
 0002:0000b298       _err_str                   00443298     pjlib-i386-win32-vc8-release:errno.obj
 0002:0000ba18       _gaErrorList               00443a18     pjlib-i386-win32-vc8-release:os_error_win32.obj
 0002:0000c460       _bitoff                    00444460     libgsmcodec-i386-win32-vc8-release:add.obj
 0002:0000cf2c       _ltp_params_nb             00444f2c     libspeex-i386-win32-vc8-release:modes.obj
 0002:0000cf38       _ltp_params_vlbr           00444f38     libspeex-i386-win32-vc8-release:modes.obj
 0002:0000cf44       _ltp_params_lbr            00444f44     libspeex-i386-win32-vc8-release:modes.obj
 0002:0000cf50       _ltp_params_med            00444f50     libspeex-i386-win32-vc8-release:modes.obj
 0002:0000cf5c       _split_cb_nb_vlbr          00444f5c     libspeex-i386-win32-vc8-release:modes.obj
 0002:0000cf70       _split_cb_nb_ulbr          00444f70     libspeex-i386-win32-vc8-release:modes.obj
 0002:0000cf84       _split_cb_nb_lbr           00444f84     libspeex-i386-win32-vc8-release:modes.obj
 0002:0000cf98       _split_cb_nb               00444f98     libspeex-i386-win32-vc8-release:modes.obj
 0002:0000cfac       _split_cb_nb_med           00444fac     libspeex-i386-win32-vc8-release:modes.obj
 0002:0000cfc0       _split_cb_sb               00444fc0     libspeex-i386-win32-vc8-release:modes.obj
 0002:0000cfd4       _nb_submode1               00444fd4     libspeex-i386-win32-vc8-release:modes.obj
 0002:0000d00c       _nb_submode8               0044500c     libspeex-i386-win32-vc8-release:modes.obj
 0002:0000d044       _nb_submode2               00445044     libspeex-i386-win32-vc8-release:modes.obj
 0002:0000d07c       _nb_submode3               0044507c     libspeex-i386-win32-vc8-release:modes.obj
 0002:0000d0b4       _nb_submode4               004450b4     libspeex-i386-win32-vc8-release:modes.obj
 0002:0000d0ec       _nb_submode5               004450ec     libspeex-i386-win32-vc8-release:modes.obj
 0002:0000d124       _nb_submode6               00445124     libspeex-i386-win32-vc8-release:modes.obj
 0002:0000d15c       _nb_submode7               0044515c     libspeex-i386-win32-vc8-release:modes.obj
 0002:0000d198       _nb_mode                   00445198     libspeex-i386-win32-vc8-release:modes.obj
 0002:0000d3b0       _split_cb_high             004453b0     libspeex-i386-win32-vc8-release:modes_wb.obj
 0002:0000d3c4       _split_cb_high_lbr         004453c4     libspeex-i386-win32-vc8-release:modes_wb.obj
 0002:0000d3d8       _wb_submode1               004453d8     libspeex-i386-win32-vc8-release:modes_wb.obj
 0002:0000d410       _wb_submode2               00445410     libspeex-i386-win32-vc8-release:modes_wb.obj
 0002:0000d448       _wb_submode3               00445448     libspeex-i386-win32-vc8-release:modes_wb.obj
 0002:0000d480       _wb_submode4               00445480     libspeex-i386-win32-vc8-release:modes_wb.obj
 0002:0000d4b8       _sb_wb_mode                004454b8     libspeex-i386-win32-vc8-release:modes_wb.obj
 0002:0000d5d0       _sb_uwb_mode               004455d0     libspeex-i386-win32-vc8-release:modes_wb.obj
 0002:0000d720       _wb_skip_table             00445720     libspeex-i386-win32-vc8-release:nb_celp.obj
 0002:0000f108       _gc_quant_bound            00447108     libspeex-i386-win32-vc8-release:sb_celp.obj
 0002:0000f148       _fold_quant_bound          00447148     libspeex-i386-win32-vc8-release:sb_celp.obj
 0002:0000f1c8       _h0                        004471c8     libspeex-i386-win32-vc8-release:sb_celp.obj
 0002:00010d80       _GS_ExceptionPointers      00448d80     MSVCRT:gs_report.obj
 0002:00010d90       _Int32ToUInt32             00448d90     MSVCRT:_ftol3_.obj
 0002:00010d98       _DP2to32                   00448d98     MSVCRT:_ftol3_.obj
 0002:00010da0       _MantissaMask              00448da0     MSVCRT:_ftol3_.obj
 0002:00010da8       _IntegerBit                00448da8     MSVCRT:_ftol3_.obj
 0002:00010db0       _SignBit64                 00448db0     MSVCRT:_ftol3_.obj
 0002:00010db8       _MinFP64                   00448db8     MSVCRT:_ftol3_.obj
 0002:00010dc0       _MinInt64                  00448dc0     MSVCRT:_ftol3_.obj
 0002:00010dc8       _MaxInt64                  00448dc8     MSVCRT:_ftol3_.obj
 0002:00010dd0       _MaxUInt64                 00448dd0     MSVCRT:_ftol3_.obj
 0002:00010dd8       _MaxFP32                   00448dd8     MSVCRT:_ftol3_.obj
 0002:00010de0       _MinFP32                   00448de0     MSVCRT:_ftol3_.obj
 0002:00010de8       _MinSubInexact             00448de8     MSVCRT:_ftol3_.obj
 0002:00010df0       _FpExcptTable              00448df0     MSVCRT:_ftol3_.obj
 0002:00010e00       _i1075                     00448e00     MSVCRT:_ftol3_.obj
 0002:00010e04       _i1087                     00448e04     MSVCRT:_ftol3_.obj
 0002:00010e08       _x0800                     00448e08     MSVCRT:_ftol3_.obj
 0002:00010e0c       _x17FF                     00448e0c     MSVCRT:_ftol3_.obj
 0002:00010e10       _CWMask                    00448e10     MSVCRT:_ftol3_.obj
 0002:00011040       _err_str                   00449040     pjmedia-audiodev-i386-win32-vc8-release:errno.obj
 0002:00011898       __sehtable$?__scrt_common_main_seh@@YAHXZ 00449898     MSVCRT:exe_main.obj
 0002:000118b8       __sehtable$___scrt_is_nonwritable_in_current_image 004498b8     MSVCRT:utility.obj
 0002:00011c78       .idata$6                   00449c78     ole32:ole32.dll
 0002:00011c82       .idata$6                   00449c82     ws2_32:WS2_32.dll
 0002:00011fdc       .idata$6                   00449fdc     kernel32:KERNEL32.dll
 0002:00012036       .idata$6                   0044a036     vcruntime:VCRUNTIME140.dll
 0002:000123d2       .idata$6                   0044a3d2     ucrt:api-ms-win-crt-stdio-l1-1-0.dll
 0002:000123f2       .idata$6                   0044a3f2     ucrt:api-ms-win-crt-string-l1-1-0.dll
 0002:00012414       .idata$6                   0044a414     ucrt:api-ms-win-crt-math-l1-1-0.dll
 0002:00012434       .idata$6                   0044a434     ucrt:api-ms-win-crt-convert-l1-1-0.dll
 0002:00012456       .idata$6                   0044a456     ucrt:api-ms-win-crt-utility-l1-1-0.dll
 0002:00012478       .idata$6                   0044a478     ucrt:api-ms-win-crt-heap-l1-1-0.dll
 0002:00012498       .idata$6                   0044a498     ucrt:api-ms-win-crt-runtime-l1-1-0.dll
 0002:000124ba       .idata$6                   0044a4ba     ucrt:api-ms-win-crt-locale-l1-1-0.dll
 0002:000126b6       .idata$6                   0044a6b6     winmm:WINMM.dll
 0003:00000000       _desc                      0044b000     encdec.obj
 0003:00000004       $SG19856                   0044b004     encdec.obj
 0003:00000028       $SG19749                   0044b028     encdec.obj
 0003:000001d8       $SG19761                   0044b1d8     encdec.obj
 0003:000001e8       $SG19842                   0044b1e8     encdec.obj
 0003:000001f0       $SG19844                   0044b1f0     encdec.obj
 0003:00000244       $SG19846                   0044b244     encdec.obj
 0003:0000027c       $SG19852                   0044b27c     encdec.obj
 0003:000002b0       $SG19848                   0044b2b0     encdec.obj
 0003:00000318       $SG19850                   0044b318     encdec.obj
 0003:0000039c       $SG19854                   0044b39c     encdec.obj
 0003:000003c0       $SG19860                   0044b3c0     encdec.obj
 0003:00000404       $SG19864                   0044b404     encdec.obj
 0003:00000430       $SG19866                   0044b430     encdec.obj
 0003:00000478       $SG19868                   0044b478     encdec.obj
 0003:00000494       $SG19872                   0044b494     encdec.obj
 0003:000004d0       $SG19874                   0044b4d0     encdec.obj
 0003:00000514       $SG19876                   0044b514     encdec.obj
 0003:00000540       $SG19904                   0044b540     encdec.obj
 0003:0000054c       $SG19906                   0044b54c     encdec.obj
 0003:00000580       $SG19908                   0044b580     encdec.obj
 0003:000005b0       $SG19911                   0044b5b0     encdec.obj
 0003:000005b8       $SG19912                   0044b5b8     encdec.obj
 0003:000005cc       $SG19913                   0044b5cc     encdec.obj
 0003:000005e0       $SG17133                   0044b5e0     encdec.obj
 0003:000005f0       $SG2889                    0044b5f0     encdec.obj
 0003:00000604       $SG2890                    0044b604     encdec.obj
 0003:00000618       _l16_op                    0044b618     pjmedia-codec-i386-win32-vc8-release:l16.obj
 0003:00000638       _l16_factory_op            0044b638     pjmedia-codec-i386-win32-vc8-release:l16.obj
 0003:00000650       _gsm_op                    0044b650     pjmedia-codec-i386-win32-vc8-release:gsm.obj
 0003:00000670       _gsm_factory_op            0044b670     pjmedia-codec-i386-win32-vc8-release:gsm.obj
 0003:00000688       _spx_op                    0044b688     pjmedia-codec-i386-win32-vc8-release:speex_codec.obj
 0003:000006a8       _spx_factory_op            0044b6a8     pjmedia-codec-i386-win32-vc8-release:speex_codec.obj
 0003:000006c0       _ilbc_op                   0044b6c0     pjmedia-codec-i386-win32-vc8-release:ilbc.obj
 0003:000006e0       _ilbc_factory_op           0044b6e0     pjmedia-codec-i386-win32-vc8-release:ilbc.obj
 0003:000006f8       _STR_MODE                  0044b6f8     pjmedia-codec-i386-win32-vc8-release:ilbc.obj
 0003:00000700       _g722_op                   0044b700     pjmedia-codec-i386-win32-vc8-release:g722.obj
 0003:00000720       _g722_factory_op           0044b720     pjmedia-codec-i386-win32-vc8-release:g722.obj
 0003:00000740       _g711_op                   0044b740     pjmedia-i386-win32-vc8-release:g711.obj
 0003:00000760       _g711_factory_op           0044b760     pjmedia-i386-win32-vc8-release:g711.obj
 0003:00000778       _plc_wsola                 0044b778     pjmedia-i386-win32-vc8-release:plc_common.obj
 0003:00000788       _crypto_suites             0044b788     pjmedia-i386-win32-vc8-release:transport_srtp.obj
 0003:000007e8       _transport_srtp_op         0044b7e8     pjmedia-i386-win32-vc8-release:transport_srtp.obj
 0003:00000818       ?liberr@?1??get_libsrtp_errstr@@9@9 0044b818     pjmedia-i386-win32-vc8-release:transport_srtp.obj
 0003:0000087c       _thread_tls_id             0044b87c     pjlib-i386-win32-vc8-release:os_core_win32.obj
 0003:00000880       _thread_suspended_tls_id   0044b880     pjlib-i386-win32-vc8-release:log.obj
 0003:00000884       _thread_indent_tls_id      0044b884     pjlib-i386-win32-vc8-release:log.obj
 0003:00000888       _pj_log_max_level          0044b888     pjlib-i386-win32-vc8-release:log.obj
 0003:0000088c       _log_writer                0044b88c     pjlib-i386-win32-vc8-release:log.obj
 0003:00000890       _log_decor                 0044b890     pjlib-i386-win32-vc8-release:log.obj
 0003:00000894       _PJ_LOG_COLOR_0            0044b894     pjlib-i386-win32-vc8-release:log.obj
 0003:00000898       _PJ_LOG_COLOR_1            0044b898     pjlib-i386-win32-vc8-release:log.obj
 0003:0000089c       _PJ_LOG_COLOR_2            0044b89c     pjlib-i386-win32-vc8-release:log.obj
 0003:000008a0       _PJ_LOG_COLOR_3            0044b8a0     pjlib-i386-win32-vc8-release:log.obj
 0003:000008a4       _PJ_LOG_COLOR_4            0044b8a4     pjlib-i386-win32-vc8-release:log.obj
 0003:000008a8       _PJ_LOG_COLOR_5            0044b8a8     pjlib-i386-win32-vc8-release:log.obj
 0003:000008ac       _PJ_LOG_COLOR_6            0044b8ac     pjlib-i386-win32-vc8-release:log.obj
 0003:000008b0       _PJ_LOG_COLOR_77           0044b8b0     pjlib-i386-win32-vc8-release:log.obj
 0003:000008b4       ?ltexts@?2??pj_log@@9@9    0044b8b4     pjlib-i386-win32-vc8-release:log.obj
 0003:000008d0       ?wdays@?3??pj_log@@9@9     0044b8d0     pjlib-i386-win32-vc8-release:log.obj
 0003:000008f0       _pool_sizes                0044b8f0     pjlib-i386-win32-vc8-release:pool_caching.obj
 0003:00000930       _thread_local_id           0044b930     pjlib-i386-win32-vc8-release:except.obj
 0003:00000934       _null_lock_template        0044b934     pjlib-i386-win32-vc8-release:lock.obj
 0003:00000948       _sem_lock_template         0044b948     pjlib-i386-win32-vc8-release:lock.obj
 0003:0000095c       _mutex_lock_template       0044b95c     pjlib-i386-win32-vc8-release:lock.obj
 0003:00000970       ?hex@?1??hex2digit@@9@9    0044b970     pjlib-i386-win32-vc8-release:guid_win32.obj
 0003:00000984       _id                        0044b984     pjlib-i386-win32-vc8-release:config.obj
 0003:00000988       _tls                       0044b988     pjlib-i386-win32-vc8-release:pool_buf.obj
 0003:00002698       ?eps@?1??LSF_check@@9@9    0044d698     libilbccodec-i386-win32-vc8-release:helpfun.obj
 0003:0000269c       ?eps2@?1??LSF_check@@9@9   0044d69c     libilbccodec-i386-win32-vc8-release:helpfun.obj
 0003:000026a0       ?maxlsf@?1??LSF_check@@9@9 0044d6a0     libilbccodec-i386-win32-vc8-release:helpfun.obj
 0003:000026a4       ?minlsf@?1??LSF_check@@9@9 0044d6a4     libilbccodec-i386-win32-vc8-release:helpfun.obj
 0003:000026b8       _srtp_event_handler        0044d6b8     libsrtp-i386-win32-vc8-release:srtp.obj
 0003:000026c8       _dev_random_fdes           0044d6c8     libsrtp-i386-win32-vc8-release:rand_source.obj
 0003:00002ee0       _T0                        0044dee0     libsrtp-i386-win32-vc8-release:aes.obj
 0003:000032e0       _T1                        0044e2e0     libsrtp-i386-win32-vc8-release:aes.obj
 0003:000036e0       _T2                        0044e6e0     libsrtp-i386-win32-vc8-release:aes.obj
 0003:00003ae0       _T3                        0044eae0     libsrtp-i386-win32-vc8-release:aes.obj
 0003:00003ee0       _U0                        0044eee0     libsrtp-i386-win32-vc8-release:aes.obj
 0003:000042e0       _U1                        0044f2e0     libsrtp-i386-win32-vc8-release:aes.obj
 0003:000046e0       _U2                        0044f6e0     libsrtp-i386-win32-vc8-release:aes.obj
 0003:00004ae0       _U3                        0044fae0     libsrtp-i386-win32-vc8-release:aes.obj
 0003:00004ee0       _aes_sbox                  0044fee0     libsrtp-i386-win32-vc8-release:aes.obj
 0003:00004fe0       _aes_inv_sbox              0044ffe0     libsrtp-i386-win32-vc8-release:aes.obj
 0003:00005120       _cap_infos                 00450120     pjmedia-audiodev-i386-win32-vc8-release:audiodev.obj
 0003:00005190       _factory_op                00450190     pjmedia-audiodev-i386-win32-vc8-release:wmme_dev.obj
 0003:000051ac       _stream_op                 004501ac     pjmedia-audiodev-i386-win32-vc8-release:wmme_dev.obj
 0003:000051e0       $SG19762                   004501e0     encdec.obj
 0003:000051e1       $SG19910                   004501e1     encdec.obj
 0003:000051e4       _mept                      004501e4     encdec.obj
 0003:000051e8       _file_msec_duration        004501e8     encdec.obj
 0003:000051ec       _l16_factory               004501ec     pjmedia-codec-i386-win32-vc8-release:l16.obj
 0003:00005208       _gsm_codec_factory         00450208     pjmedia-codec-i386-win32-vc8-release:gsm.obj
 0003:00005238       _spx_factory               00450238     pjmedia-codec-i386-win32-vc8-release:speex_codec.obj
 0003:000052e0       _ilbc_factory              004502e0     pjmedia-codec-i386-win32-vc8-release:ilbc.obj
 0003:000052fc       _g722_codec_factory        004502fc     pjmedia-codec-i386-win32-vc8-release:g722.obj
 0003:00005330       _g711_factory              00450330     pjmedia-i386-win32-vc8-release:g711.obj
 0003:00005360       _is_initialized            00450360     pjmedia-i386-win32-vc8-release:sdp.obj
 0003:00005368       _cis_buf                   00450368     pjmedia-i386-win32-vc8-release:sdp.obj
 0003:0000576c       _cs_digit                  0045076c     pjmedia-i386-win32-vc8-release:sdp.obj
 0003:00005774       _cs_token                  00450774     pjmedia-i386-win32-vc8-release:sdp.obj
 0003:0000577c       ?msg@?3??get_libsrtp_errstr@@9@9 0045077c     pjmedia-i386-win32-vc8-release:transport_srtp.obj
 0003:0000579c       _libsrtp_initialized       0045079c     pjmedia-i386-win32-vc8-release:transport_srtp.obj
 0003:000057a0       _initialized               004507a0     pjlib-i386-win32-vc8-release:os_core_win32.obj
 0003:000057a4       _atexit_count              004507a4     pjlib-i386-win32-vc8-release:os_core_win32.obj
 0003:000057a8       _main_thread               004507a8     pjlib-i386-win32-vc8-release:os_core_win32.obj
 0003:000058a8       _critical_section_mutex    004508a8     pjlib-i386-win32-vc8-release:os_core_win32.obj
 0003:000058e0       _atexit_func               004508e0     pjlib-i386-win32-vc8-release:os_core_win32.obj
 0003:00005960       _err_msg_hnd_cnt           00450960     pjlib-i386-win32-vc8-release:errno.obj
 0003:00005968       _err_msg_hnd               00450968     pjlib-i386-win32-vc8-release:errno.obj
 0003:000059e0       _g_last_thread             004509e0     pjlib-i386-win32-vc8-release:log.obj
 0003:000059e8       _base_time                 004509e8     pjlib-i386-win32-vc8-release:os_time_win32.obj
 0003:000059f0       ?buf@?1??pj_gethostname@@9@9 004509f0     pjlib-i386-win32-vc8-release:sock_bsd.obj
 0003:00005a70       ?hostname@?1??pj_gethostname@@9@9 00450a70     pjlib-i386-win32-vc8-release:sock_bsd.obj
 0003:00005a78       _exception_id_names        00450a78     pjlib-i386-win32-vc8-release:except.obj
 0003:00005ab8       ?unknown_name@?1??pj_exception_id_name@@9@9 00450ab8     pjlib-i386-win32-vc8-release:except.obj
 0003:00005ad8       _stack_based_factory       00450ad8     pjlib-i386-win32-vc8-release:pool_buf.obj
 0003:00005afc       _is_initialized            00450afc     pjlib-i386-win32-vc8-release:pool_buf.obj
 0003:00005b00       _s_hDLL                    00450b00     pjlib-i386-win32-vc8-release:ip_helper_win32.obj
 0003:00005b04       _s_pfnGetIpAddrTable       00450b04     pjlib-i386-win32-vc8-release:ip_helper_win32.obj
 0003:00005b08       _s_pfnGetAdapterAddresses  00450b08     pjlib-i386-win32-vc8-release:ip_helper_win32.obj
 0003:00005b0c       _s_pfnGetIpForwardTable    00450b0c     pjlib-i386-win32-vc8-release:ip_helper_win32.obj
 0003:00005b10       _s_pfnGetIfEntry           00450b10     pjlib-i386-win32-vc8-release:ip_helper_win32.obj
 0003:00005c18       _GS_ExceptionRecord        00450c18     MSVCRT:gs_report.obj
 0003:00005c68       _GS_ContextRecord          00450c68     MSVCRT:gs_report.obj
 0003:00005f44       ?module_local_atexit_table@@3U_onexit_table_t@@A 00450f44     MSVCRT:utility.obj
 0003:00005f50       ?module_local_at_quick_exit_table@@3U_onexit_table_t@@A 00450f50     MSVCRT:utility.obj
 0003:00005f5c       ?is_initialized_as_dll@@3_NA 00450f5c     MSVCRT:utility.obj
 0003:00005f78       _aud_subsys                00450f78     pjmedia-audiodev-i386-win32-vc8-release:audiodev.obj
 0003:00006448       ?name@?1??get_fmt_name@@9@9 00451448     pjmedia-audiodev-i386-win32-vc8-release:wmme_dev.obj
 0003:00006450       ?rec_cnt@?1??wmme_dev_thread@@9@9 00451450     pjmedia-audiodev-i386-win32-vc8-release:wmme_dev.obj
 0003:00006454       ?play_cnt@?1??wmme_dev_thread@@9@9 00451454     pjmedia-audiodev-i386-win32-vc8-release:wmme_dev.obj
 0004:00000000       __guard_fids__             00452000     MSVCRT:exe_main.obj
 0004:00000004       __guard_fids__             00452004     MSVCRT:exe_main.obj
 0004:00000008       __guard_fids__             00452008     MSVCRT:exe_main.obj
 0004:0000000c       __guard_fids_?pre_c_initialization@@YAHXZ 0045200c     MSVCRT:exe_main.obj
 0004:00000014       __guard_fids____scrt_set_unhandled_exception_filter 00452014     MSVCRT:utility_desktop.obj
 0004:00000018       __guard_fids___except_handler4 00452018     MSVCRT:_chandler4gs_.obj
 0004:0000001c       __guard_fids__             0045201c     MSVCRT:guard_support.obj
 0005:00000000       _static_const_table        00453000     MSVCRT:_svml_dcos2_sse2_.obj
 0005:00000200       __e02PI                    00453200     MSVCRT:_svml_dtrig_.obj
 0005:000003a0       __e04PI                    004533a0     MSVCRT:_svml_dtrig_.obj
 0005:00000530       _2il0floatpacket_2         00453530     MSVCRT:_svml_dtrig_.obj
 0005:00000540       _2il0floatpacket_9         00453540     MSVCRT:_svml_dtrig_.obj
 0005:00000550       _2il0floatpacket_12        00453550     MSVCRT:_svml_dtrig_.obj
 0005:00000560       __dPI02                    00453560     MSVCRT:_svml_dtrig_.obj
 0005:00000570       __d02PI                    00453570     MSVCRT:_svml_dtrig_.obj
 0005:00000580       __DP4                      00453580     MSVCRT:_svml_dtrig_.obj
 0005:000005a0       __dPI04                    004535a0     MSVCRT:_svml_dtrig_.obj
 0005:000005b0       __d04PI                    004535b0     MSVCRT:_svml_dtrig_.obj
 0005:000005c0       __QP4                      004535c0     MSVCRT:_svml_dtrig_.obj
