 icedemo

 Timestamp is 597aac6d (Fri Jul 28 11:15:57 2017)

 Preferred load address is 00400000

 Start         Length     Name                   Class
 0001:00000000 00021c37H .text$mn                CODE
 0002:00000000 00000218H .idata$5                DATA
 0002:00000218 00000004H .00cfg                  DATA
 0002:0000021c 00000004H .CRT$XCA                DATA
 0002:00000220 00000004H .CRT$XCAA               DATA
 0002:00000224 00000004H .CRT$XCZ                DATA
 0002:00000228 00000004H .CRT$XIA                DATA
 0002:0000022c 00000004H .CRT$XIAA               DATA
 0002:00000230 00000004H .CRT$XIAC               DATA
 0002:00000234 00000004H .CRT$XIZ                DATA
 0002:00000238 00000004H .CRT$XPA                DATA
 0002:0000023c 00000004H .CRT$XPZ                DATA
 0002:00000240 00000004H .CRT$XTA                DATA
 0002:00000244 0000000cH .CRT$XTZ                DATA
 0002:00000250 00005780H .rdata                  DATA
 0002:000059d0 00000004H .rdata$sxdata           DATA
 0002:000059d4 00000240H .rdata$zzzdbg           DATA
 0002:00005c14 00000004H .rtc$IAA                DATA
 0002:00005c18 00000004H .rtc$IZZ                DATA
 0002:00005c1c 00000004H .rtc$TAA                DATA
 0002:00005c20 00000008H .rtc$TZZ                DATA
 0002:00005c28 0000003cH .xdata$x                DATA
 0002:00005c64 00000000H .edata                  DATA
 0002:00005c64 000000f0H .idata$2                DATA
 0002:00005d54 00000014H .idata$3                DATA
 0002:00005d68 00000218H .idata$4                DATA
 0002:00005f80 000007ceH .idata$6                DATA
 0003:00000000 00002338H .data                   DATA
 0003:00002338 00001304H .bss                    DATA
 0004:00000000 00000020H .gfids$y                DATA

  Address         Publics by Value              Rva+Base       Lib:Object

 0000:00000000       ___guard_longjmp_count     00000000     <absolute>
 0000:00000000       ___guard_fids_table        00000000     <absolute>
 0000:00000000       ___guard_fids_count        00000000     <absolute>
 0000:00000000       ___guard_iat_table         00000000     <absolute>
 0000:00000000       ___dynamic_value_reloc_table 00000000     <absolute>
 0000:00000000       ___guard_iat_count         00000000     <absolute>
 0000:00000000       ___guard_longjmp_table     00000000     <absolute>
 0000:00000001       ___safe_se_handler_count   00000001     <absolute>
 0000:00000100       ___guard_flags             00000100     <absolute>
 0000:00000000       ___ImageBase               00400000     <linker-defined>
 0001:00002270       _main                      00403270 f   icedemo.obj
 0001:000026b0       ___local_stdio_printf_options 004036b0 f i icedemo.obj
 0001:000026c0       ___local_stdio_scanf_options 004036c0 f i icedemo.obj
 0001:000026d0       __snprintf                 004036d0 f i icedemo.obj
 0001:00002710       _printf                    00403710 f i icedemo.obj
 0001:00002740       _sscanf                    00403740 f i icedemo.obj
 0001:00002770       _pjnath_init               00403770 f   pjnath-i386-win32-vc8-release:errno.obj
 0001:000027a0       _pjnath_perror             004037a0 f   pjnath-i386-win32-vc8-release:errno.obj
 0001:00004590       _pj_ice_calc_foundation    00405590 f   pjnath-i386-win32-vc8-release:ice_session.obj
 0001:00004660       _pj_ice_get_cand_type_name 00405660 f   pjnath-i386-win32-vc8-release:ice_session.obj
 0001:00004680       _pj_ice_sess_add_cand      00405680 f   pjnath-i386-win32-vc8-release:ice_session.obj
 0001:000048a0       _pj_ice_sess_change_role   004058a0 f   pjnath-i386-win32-vc8-release:ice_session.obj
 0001:000048f0       _pj_ice_sess_create        004058f0 f   pjnath-i386-win32-vc8-release:ice_session.obj
 0001:00004b90       _pj_ice_sess_create_check_list 00405b90 f   pjnath-i386-win32-vc8-release:ice_session.obj
 0001:00004ff0       _pj_ice_sess_destroy       00405ff0 f   pjnath-i386-win32-vc8-release:ice_session.obj
 0001:00005010       _pj_ice_sess_on_rx_pkt     00406010 f   pjnath-i386-win32-vc8-release:ice_session.obj
 0001:00005150       _pj_ice_sess_options_default 00406150 f   pjnath-i386-win32-vc8-release:ice_session.obj
 0001:00005170       _pj_ice_sess_send_data     00406170 f   pjnath-i386-win32-vc8-release:ice_session.obj
 0001:000052b0       _pj_ice_sess_set_options   004062b0 f   pjnath-i386-win32-vc8-release:ice_session.obj
 0001:00005310       _pj_ice_sess_set_prefs     00406310 f   pjnath-i386-win32-vc8-release:ice_session.obj
 0001:00005370       _pj_ice_sess_start_check   00406370 f   pjnath-i386-win32-vc8-release:ice_session.obj
 0001:00006840       _pj_ice_strans_cfg_copy    00407840 f   pjnath-i386-win32-vc8-release:ice_strans.obj
 0001:000068c0       _pj_ice_strans_cfg_default 004078c0 f   pjnath-i386-win32-vc8-release:ice_strans.obj
 0001:00006980       _pj_ice_strans_create      00407980 f   pjnath-i386-win32-vc8-release:ice_strans.obj
 0001:00006b60       _pj_ice_strans_destroy     00407b60 f   pjnath-i386-win32-vc8-release:ice_strans.obj
 0001:00006b80       _pj_ice_strans_enum_cands  00407b80 f   pjnath-i386-win32-vc8-release:ice_strans.obj
 0001:00006c30       _pj_ice_strans_get_def_cand 00407c30 f   pjnath-i386-win32-vc8-release:ice_strans.obj
 0001:00006cb0       _pj_ice_strans_get_role    00407cb0 f   pjnath-i386-win32-vc8-release:ice_strans.obj
 0001:00006cd0       _pj_ice_strans_get_running_comp_cnt 00407cd0 f   pjnath-i386-win32-vc8-release:ice_strans.obj
 0001:00006d10       _pj_ice_strans_get_ufrag_pwd 00407d10 f   pjnath-i386-win32-vc8-release:ice_strans.obj
 0001:00006dd0       _pj_ice_strans_has_sess    00407dd0 f   pjnath-i386-win32-vc8-release:ice_strans.obj
 0001:00006df0       _pj_ice_strans_init_ice    00407df0 f   pjnath-i386-win32-vc8-release:ice_strans.obj
 0001:00006ff0       _pj_ice_strans_sendto      00407ff0 f   pjnath-i386-win32-vc8-release:ice_strans.obj
 0001:00007150       _pj_ice_strans_sess_is_complete 00408150 f   pjnath-i386-win32-vc8-release:ice_strans.obj
 0001:00007180       _pj_ice_strans_sess_is_running 00408180 f   pjnath-i386-win32-vc8-release:ice_strans.obj
 0001:000071b0       _pj_ice_strans_start_ice   004081b0 f   pjnath-i386-win32-vc8-release:ice_strans.obj
 0001:000073c0       _pj_ice_strans_stop_ice    004083c0 f   pjnath-i386-win32-vc8-release:ice_strans.obj
 0001:00008ab0       _pj_stun_attr_clone        00409ab0 f   pjnath-i386-win32-vc8-release:stun_msg.obj
 0001:00008b10       _pj_stun_binary_attr_init  00409b10 f   pjnath-i386-win32-vc8-release:stun_msg.obj
 0001:00008b80       _pj_stun_errcode_attr_create 00409b80 f   pjnath-i386-win32-vc8-release:stun_msg.obj
 0001:00008c60       _pj_stun_get_attr_name     00409c60 f   pjnath-i386-win32-vc8-release:stun_msg.obj
 0001:00008cb0       _pj_stun_get_class_name    00409cb0 f   pjnath-i386-win32-vc8-release:stun_msg.obj
 0001:00008d00       _pj_stun_get_err_reason    00409d00 f   pjnath-i386-win32-vc8-release:stun_msg.obj
 0001:00008d70       _pj_stun_get_method_name   00409d70 f   pjnath-i386-win32-vc8-release:stun_msg.obj
 0001:00008d90       _pj_stun_msg_add_attr      00409d90 f   pjnath-i386-win32-vc8-release:stun_msg.obj
 0001:00008dd0       _pj_stun_msg_add_binary_attr 00409dd0 f   pjnath-i386-win32-vc8-release:stun_msg.obj
 0001:00008e40       _pj_stun_msg_add_empty_attr 00409e40 f   pjnath-i386-win32-vc8-release:stun_msg.obj
 0001:00008e90       _pj_stun_msg_add_errcode_attr 00409e90 f   pjnath-i386-win32-vc8-release:stun_msg.obj
 0001:00008ef0       _pj_stun_msg_add_msgint_attr 00409ef0 f   pjnath-i386-win32-vc8-release:stun_msg.obj
 0001:00008f40       _pj_stun_msg_add_sockaddr_attr 00409f40 f   pjnath-i386-win32-vc8-release:stun_msg.obj
 0001:00008fa0       _pj_stun_msg_add_string_attr 00409fa0 f   pjnath-i386-win32-vc8-release:stun_msg.obj
 0001:00009010       _pj_stun_msg_add_uint64_attr 0040a010 f   pjnath-i386-win32-vc8-release:stun_msg.obj
 0001:00009080       _pj_stun_msg_add_uint_attr 0040a080 f   pjnath-i386-win32-vc8-release:stun_msg.obj
 0001:000090e0       _pj_stun_msg_add_unknown_attr 0040a0e0 f   pjnath-i386-win32-vc8-release:stun_msg.obj
 0001:00009140       _pj_stun_msg_check         0040a140 f   pjnath-i386-win32-vc8-release:stun_msg.obj
 0001:00009240       _pj_stun_msg_create        0040a240 f   pjnath-i386-win32-vc8-release:stun_msg.obj
 0001:00009290       _pj_stun_msg_create_response 0040a290 f   pjnath-i386-win32-vc8-release:stun_msg.obj
 0001:00009330       _pj_stun_msg_decode        0040a330 f   pjnath-i386-win32-vc8-release:stun_msg.obj
 0001:00009960       _pj_stun_msg_encode        0040a960 f   pjnath-i386-win32-vc8-release:stun_msg.obj
 0001:00009d90       _pj_stun_msg_find_attr     0040ad90 f   pjnath-i386-win32-vc8-release:stun_msg.obj
 0001:00009de0       _pj_stun_msg_init          0040ade0 f   pjnath-i386-win32-vc8-release:stun_msg.obj
 0001:00009e80       _pj_stun_sockaddr_attr_init 0040ae80 f   pjnath-i386-win32-vc8-release:stun_msg.obj
 0001:00009ee0       _pj_stun_string_attr_init  0040aee0 f   pjnath-i386-win32-vc8-release:stun_msg.obj
 0001:00009f30       _pj_stun_unknown_attr_create 0040af30 f   pjnath-i386-win32-vc8-release:stun_msg.obj
 0001:0000ac50       _pj_stun_msg_destroy_tdata 0040bc50 f   pjnath-i386-win32-vc8-release:stun_session.obj
 0001:0000ace0       _pj_stun_session_cancel_req 0040bce0 f   pjnath-i386-win32-vc8-release:stun_session.obj
 0001:0000ad70       _pj_stun_session_create    0040bd70 f   pjnath-i386-win32-vc8-release:stun_session.obj
 0001:0000aeb0       _pj_stun_session_create_ind 0040beb0 f   pjnath-i386-win32-vc8-release:stun_session.obj
 0001:0000af90       _pj_stun_session_create_req 0040bf90 f   pjnath-i386-win32-vc8-release:stun_session.obj
 0001:0000b0e0       _pj_stun_session_create_res 0040c0e0 f   pjnath-i386-win32-vc8-release:stun_session.obj
 0001:0000b1d0       _pj_stun_session_destroy   0040c1d0 f   pjnath-i386-win32-vc8-release:stun_session.obj
 0001:0000b2b0       _pj_stun_session_get_user_data 0040c2b0 f   pjnath-i386-win32-vc8-release:stun_session.obj
 0001:0000b2d0       _pj_stun_session_on_rx_pkt 0040c2d0 f   pjnath-i386-win32-vc8-release:stun_session.obj
 0001:0000b480       _pj_stun_session_respond   0040c480 f   pjnath-i386-win32-vc8-release:stun_session.obj
 0001:0000b530       _pj_stun_session_retransmit_req 0040c530 f   pjnath-i386-win32-vc8-release:stun_session.obj
 0001:0000b5a0       _pj_stun_session_send_msg  0040c5a0 f   pjnath-i386-win32-vc8-release:stun_session.obj
 0001:0000b830       _pj_stun_session_set_credential 0040c830 f   pjnath-i386-win32-vc8-release:stun_session.obj
 0001:0000b8c0       _pj_stun_session_set_log   0040c8c0 f   pjnath-i386-win32-vc8-release:stun_session.obj
 0001:0000b8e0       _pj_stun_session_set_software_name 0040c8e0 f   pjnath-i386-win32-vc8-release:stun_session.obj
 0001:0000b950       _pj_stun_session_set_user_data 0040c950 f   pjnath-i386-win32-vc8-release:stun_session.obj
 0001:0000b990       _pj_stun_session_use_fingerprint 0040c990 f   pjnath-i386-win32-vc8-release:stun_session.obj
 0001:0000bdb0       _pj_stun_auth_cred_dup     0040cdb0 f   pjnath-i386-win32-vc8-release:stun_auth.obj
 0001:0000be30       _pj_stun_auth_valid_for_msg 0040ce30 f   pjnath-i386-win32-vc8-release:stun_auth.obj
 0001:0000bee0       _pj_stun_authenticate_request 0040cee0 f   pjnath-i386-win32-vc8-release:stun_auth.obj
 0001:0000c400       _pj_stun_authenticate_response 0040d400 f   pjnath-i386-win32-vc8-release:stun_auth.obj
 0001:0000c5b0       _pj_stun_create_key        0040d5b0 f   pjnath-i386-win32-vc8-release:stun_auth.obj
 0001:0000c620       _pj_stun_req_cred_info_dup 0040d620 f   pjnath-i386-win32-vc8-release:stun_auth.obj
 0001:0000c9e0       _pj_stun_sock_cfg_default  0040d9e0 f   pjnath-i386-win32-vc8-release:stun_sock.obj
 0001:0000ca40       _pj_stun_sock_create       0040da40 f   pjnath-i386-win32-vc8-release:stun_sock.obj
 0001:0000cf70       _pj_stun_sock_destroy      0040df70 f   pjnath-i386-win32-vc8-release:stun_sock.obj
 0001:0000d050       _pj_stun_sock_get_info     0040e050 f   pjnath-i386-win32-vc8-release:stun_sock.obj
 0001:0000d260       _pj_stun_sock_get_user_data 0040e260 f   pjnath-i386-win32-vc8-release:stun_sock.obj
 0001:0000d280       _pj_stun_sock_op_name      0040e280 f   pjnath-i386-win32-vc8-release:stun_sock.obj
 0001:0000d2e0       _pj_stun_sock_sendto       0040e2e0 f   pjnath-i386-win32-vc8-release:stun_sock.obj
 0001:0000d380       _pj_stun_sock_start        0040e380 f   pjnath-i386-win32-vc8-release:stun_sock.obj
 0001:0000e190       _pj_turn_alloc_param_copy  0040f190 f   pjnath-i386-win32-vc8-release:turn_session.obj
 0001:0000e1b0       _pj_turn_alloc_param_default 0040f1b0 f   pjnath-i386-win32-vc8-release:turn_session.obj
 0001:0000e1d0       _pj_turn_session_alloc     0040f1d0 f   pjnath-i386-win32-vc8-release:turn_session.obj
 0001:0000e350       _pj_turn_session_bind_channel 0040f350 f   pjnath-i386-win32-vc8-release:turn_session.obj
 0001:0000e510       _pj_turn_session_create    0040f510 f   pjnath-i386-win32-vc8-release:turn_session.obj
 0001:0000e6c0       _pj_turn_session_destroy   0040f6c0 f   pjnath-i386-win32-vc8-release:turn_session.obj
 0001:0000e740       _pj_turn_session_get_info  0040f740 f   pjnath-i386-win32-vc8-release:turn_session.obj
 0001:0000e7f0       _pj_turn_session_get_user_data 0040f7f0 f   pjnath-i386-win32-vc8-release:turn_session.obj
 0001:0000e800       _pj_turn_session_on_rx_pkt 0040f800 f   pjnath-i386-win32-vc8-release:turn_session.obj
 0001:0000e970       _pj_turn_session_sendto    0040f970 f   pjnath-i386-win32-vc8-release:turn_session.obj
 0001:0000eca0       _pj_turn_session_set_credential 0040fca0 f   pjnath-i386-win32-vc8-release:turn_session.obj
 0001:0000ecf0       _pj_turn_session_set_log   0040fcf0 f   pjnath-i386-win32-vc8-release:turn_session.obj
 0001:0000ed10       _pj_turn_session_set_perm  0040fd10 f   pjnath-i386-win32-vc8-release:turn_session.obj
 0001:0000eef0       _pj_turn_session_set_server 0040fef0 f   pjnath-i386-win32-vc8-release:turn_session.obj
 0001:0000f1e0       _pj_turn_session_set_user_data 004101e0 f   pjnath-i386-win32-vc8-release:turn_session.obj
 0001:0000f1f0       _pj_turn_session_shutdown  004101f0 f   pjnath-i386-win32-vc8-release:turn_session.obj
 0001:0000f230       _pj_turn_state_name        00410230 f   pjnath-i386-win32-vc8-release:turn_session.obj
 0001:0000ff80       _pj_turn_sock_alloc        00410f80 f   pjnath-i386-win32-vc8-release:turn_sock.obj
 0001:00010050       _pj_turn_sock_bind_channel 00411050 f   pjnath-i386-win32-vc8-release:turn_sock.obj
 0001:00010090       _pj_turn_sock_cfg_default  00411090 f   pjnath-i386-win32-vc8-release:turn_sock.obj
 0001:000100c0       _pj_turn_sock_create       004110c0 f   pjnath-i386-win32-vc8-release:turn_sock.obj
 0001:000102c0       _pj_turn_sock_destroy      004112c0 f   pjnath-i386-win32-vc8-release:turn_sock.obj
 0001:00010310       _pj_turn_sock_get_info     00411310 f   pjnath-i386-win32-vc8-release:turn_sock.obj
 0001:00010360       _pj_turn_sock_get_user_data 00411360 f   pjnath-i386-win32-vc8-release:turn_sock.obj
 0001:00010380       _pj_turn_sock_lock         00411380 f   pjnath-i386-win32-vc8-release:turn_sock.obj
 0001:000103a0       _pj_turn_sock_sendto       004113a0 f   pjnath-i386-win32-vc8-release:turn_sock.obj
 0001:000103e0       _pj_turn_sock_set_log      004113e0 f   pjnath-i386-win32-vc8-release:turn_sock.obj
 0001:00010400       _pj_turn_sock_set_perm     00411400 f   pjnath-i386-win32-vc8-release:turn_sock.obj
 0001:00010420       _pj_turn_sock_set_user_data 00411420 f   pjnath-i386-win32-vc8-release:turn_sock.obj
 0001:00010440       _pj_turn_sock_unlock       00411440 f   pjnath-i386-win32-vc8-release:turn_sock.obj
 0001:000109f0       _pj_stun_msg_dump          004119f0 f   pjnath-i386-win32-vc8-release:stun_msg_dump.obj
 0001:00010ee0       _sprintf                   00411ee0 f i pjnath-i386-win32-vc8-release:stun_msg_dump.obj
 0001:00010f40       _pj_stun_client_tsx_create 00411f40 f   pjnath-i386-win32-vc8-release:stun_transaction.obj
 0001:00010ff0       _pj_stun_client_tsx_get_data 00411ff0 f   pjnath-i386-win32-vc8-release:stun_transaction.obj
 0001:00011010       _pj_stun_client_tsx_on_rx_msg 00412010 f   pjnath-i386-win32-vc8-release:stun_transaction.obj
 0001:000110e0       _pj_stun_client_tsx_retransmit 004120e0 f   pjnath-i386-win32-vc8-release:stun_transaction.obj
 0001:00011120       _pj_stun_client_tsx_schedule_destroy 00412120 f   pjnath-i386-win32-vc8-release:stun_transaction.obj
 0001:000111c0       _pj_stun_client_tsx_send_msg 004121c0 f   pjnath-i386-win32-vc8-release:stun_transaction.obj
 0001:000112c0       _pj_stun_client_tsx_set_data 004122c0 f   pjnath-i386-win32-vc8-release:stun_transaction.obj
 0001:000112e0       _pj_stun_client_tsx_stop   004122e0 f   pjnath-i386-win32-vc8-release:stun_transaction.obj
 0001:00011520       _pjlib_util_init           00412520 f   pjlib-util-i386-win32-vc8-release:errno.obj
 0001:00011540       _pjlib_util_strerror       00412540 f   pjlib-util-i386-win32-vc8-release:errno.obj
 0001:00011ee0       _pj_getopt_long            00412ee0 f   pjlib-util-i386-win32-vc8-release:getopt.obj
 0001:000127d0       _pj_dns_parse_a_response   004137d0 f   pjlib-util-i386-win32-vc8-release:resolver.obj
 0001:00012a30       _pj_dns_resolver_cancel_query 00413a30 f   pjlib-util-i386-win32-vc8-release:resolver.obj
 0001:00012a90       _pj_dns_resolver_create    00413a90 f   pjlib-util-i386-win32-vc8-release:resolver.obj
 0001:00012bf0       _pj_dns_resolver_destroy   00413bf0 f   pjlib-util-i386-win32-vc8-release:resolver.obj
 0001:00012d90       _pj_dns_resolver_set_ns    00413d90 f   pjlib-util-i386-win32-vc8-release:resolver.obj
 0001:00012e90       _pj_dns_resolver_start_query 00413e90 f   pjlib-util-i386-win32-vc8-release:resolver.obj
 0001:00013210       _pj_dns_settings_default   00414210 f   pjlib-util-i386-win32-vc8-release:resolver.obj
 0001:00013ba0       _pj_crc32_calc             00414ba0 f   pjlib-util-i386-win32-vc8-release:crc32.obj
 0001:00013bd0       _pj_crc32_update           00414bd0 f   pjlib-util-i386-win32-vc8-release:crc32.obj
 0001:00013c80       _pj_hmac_sha1_final        00414c80 f   pjlib-util-i386-win32-vc8-release:hmac_sha1.obj
 0001:00013cc0       _pj_hmac_sha1_init         00414cc0 f   pjlib-util-i386-win32-vc8-release:hmac_sha1.obj
 0001:00013da0       _pj_hmac_sha1_update       00414da0 f   pjlib-util-i386-win32-vc8-release:hmac_sha1.obj
 0001:00014430       _pj_md5_final              00415430 f   pjlib-util-i386-win32-vc8-release:md5.obj
 0001:000144c0       _pj_md5_init               004154c0 f   pjlib-util-i386-win32-vc8-release:md5.obj
 0001:00014500       _pj_md5_update             00415500 f   pjlib-util-i386-win32-vc8-release:md5.obj
 0001:00014f90       _pj_dns_srv_cancel_query   00415f90 f   pjlib-util-i386-win32-vc8-release:srv_resolver.obj
 0001:00015040       _pj_dns_srv_resolve        00416040 f   pjlib-util-i386-win32-vc8-release:srv_resolver.obj
 0001:00015890       _pj_dns_get_type_name      00416890 f   pjlib-util-i386-win32-vc8-release:dns.obj
 0001:00015940       _pj_dns_make_query         00416940 f   pjlib-util-i386-win32-vc8-release:dns.obj
 0001:00015a30       _pj_dns_packet_dup         00416a30 f   pjlib-util-i386-win32-vc8-release:dns.obj
 0001:00015d00       _pj_dns_parse_packet       00416d00 f   pjlib-util-i386-win32-vc8-release:dns.obj
 0001:00017210       _pj_sha1_final             00418210 f   pjlib-util-i386-win32-vc8-release:sha1.obj
 0001:000173b0       _pj_sha1_init              004183b0 f   pjlib-util-i386-win32-vc8-release:sha1.obj
 0001:000173f0       _pj_sha1_update            004183f0 f   pjlib-util-i386-win32-vc8-release:sha1.obj
 0001:000174d0       _pj_get_version            004184d0 f   pjlib-i386-win32-vc8-release:config.obj
 0001:00017580       _pj_atexit                 00418580 f   pjlib-i386-win32-vc8-release:os_core_win32.obj
 0001:000175b0       _pj_atomic_create          004185b0 f   pjlib-i386-win32-vc8-release:os_core_win32.obj
 0001:000175e0       _pj_atomic_dec_and_get     004185e0 f   pjlib-i386-win32-vc8-release:os_core_win32.obj
 0001:00017630       _pj_atomic_destroy         00418630 f   pjlib-i386-win32-vc8-release:os_core_win32.obj
 0001:00017650       _pj_atomic_get             00418650 f   pjlib-i386-win32-vc8-release:os_core_win32.obj
 0001:000176a0       _pj_atomic_inc             004186a0 f   pjlib-i386-win32-vc8-release:os_core_win32.obj
 0001:000176f0       _pj_enter_critical_section 004186f0 f   pjlib-i386-win32-vc8-release:os_core_win32.obj
 0001:00017700       _pj_getpid                 00418700 f   pjlib-i386-win32-vc8-release:os_core_win32.obj
 0001:00017750       _pj_init                   00418750 f   pjlib-i386-win32-vc8-release:os_core_win32.obj
 0001:00017890       _pj_leave_critical_section 00418890 f   pjlib-i386-win32-vc8-release:os_core_win32.obj
 0001:000178e0       _pj_mutex_create           004188e0 f   pjlib-i386-win32-vc8-release:os_core_win32.obj
 0001:00017930       _pj_mutex_create_recursive 00418930 f   pjlib-i386-win32-vc8-release:os_core_win32.obj
 0001:00017930       _pj_mutex_create_simple    00418930 f   pjlib-i386-win32-vc8-release:os_core_win32.obj
 0001:00017980       _pj_mutex_destroy          00418980 f   pjlib-i386-win32-vc8-release:os_core_win32.obj
 0001:000179e0       _pj_mutex_lock             004189e0 f   pjlib-i386-win32-vc8-release:os_core_win32.obj
 0001:00017a50       _pj_mutex_trylock          00418a50 f   pjlib-i386-win32-vc8-release:os_core_win32.obj
 0001:00017ad0       _pj_mutex_unlock           00418ad0 f   pjlib-i386-win32-vc8-release:os_core_win32.obj
 0001:00017b30       _pj_sem_destroy            00418b30 f   pjlib-i386-win32-vc8-release:os_core_win32.obj
 0001:00017bc0       _pj_sem_post               00418bc0 f   pjlib-i386-win32-vc8-release:os_core_win32.obj
 0001:00017c50       _pj_sem_trywait            00418c50 f   pjlib-i386-win32-vc8-release:os_core_win32.obj
 0001:00017cb0       _pj_sem_wait               00418cb0 f   pjlib-i386-win32-vc8-release:os_core_win32.obj
 0001:00017dc0       _pj_shutdown               00418dc0 f   pjlib-i386-win32-vc8-release:os_core_win32.obj
 0001:00017f00       _pj_term_set_color         00418f00 f   pjlib-i386-win32-vc8-release:os_core_win32.obj
 0001:00017fd0       _pj_thread_check_stack     00418fd0 f   pjlib-i386-win32-vc8-release:os_core_win32.obj
 0001:00018010       _pj_thread_create          00419010 f   pjlib-i386-win32-vc8-release:os_core_win32.obj
 0001:00018150       _pj_thread_destroy         00419150 f   pjlib-i386-win32-vc8-release:os_core_win32.obj
 0001:000181e0       _pj_thread_get_name        004191e0 f   pjlib-i386-win32-vc8-release:os_core_win32.obj
 0001:00018230       _pj_thread_init            00419230 f   pjlib-i386-win32-vc8-release:os_core_win32.obj
 0001:00018290       _pj_thread_join            00419290 f   pjlib-i386-win32-vc8-release:os_core_win32.obj
 0001:00018350       _pj_thread_local_alloc     00419350 f   pjlib-i386-win32-vc8-release:os_core_win32.obj
 0001:000183a0       _pj_thread_local_free      004193a0 f   pjlib-i386-win32-vc8-release:os_core_win32.obj
 0001:000183f0       _pj_thread_local_get       004193f0 f   pjlib-i386-win32-vc8-release:os_core_win32.obj
 0001:00018400       _pj_thread_local_set       00419400 f   pjlib-i386-win32-vc8-release:os_core_win32.obj
 0001:00018440       _pj_thread_register        00419440 f   pjlib-i386-win32-vc8-release:os_core_win32.obj
 0001:00018500       _pj_thread_sleep           00419500 f   pjlib-i386-win32-vc8-release:os_core_win32.obj
 0001:00018550       _pj_thread_this            00419550 f   pjlib-i386-win32-vc8-release:os_core_win32.obj
 0001:000186a0       ?ioqueue_dispatch_exception_event@@YAXPAUpj_ioqueue_t@@PAUpj_ioqueue_key_t@@@Z 004196a0 f   pjlib-i386-win32-vc8-release:ioqueue_select.obj
 0001:000187d0       ?ioqueue_dispatch_read_event@@YAXPAUpj_ioqueue_t@@PAUpj_ioqueue_key_t@@@Z 004197d0 f   pjlib-i386-win32-vc8-release:ioqueue_select.obj
 0001:000189f0       ?ioqueue_dispatch_write_event@@YAXPAUpj_ioqueue_t@@PAUpj_ioqueue_key_t@@@Z 004199f0 f   pjlib-i386-win32-vc8-release:ioqueue_select.obj
 0001:00018df0       _pj_ioqueue_accept         00419df0 f   pjlib-i386-win32-vc8-release:ioqueue_select.obj
 0001:00018f40       _pj_ioqueue_connect        00419f40 f   pjlib-i386-win32-vc8-release:ioqueue_select.obj
 0001:00019020       _pj_ioqueue_create         0041a020 f   pjlib-i386-win32-vc8-release:ioqueue_select.obj
 0001:000191c0       _pj_ioqueue_destroy        0041a1c0 f   pjlib-i386-win32-vc8-release:ioqueue_select.obj
 0001:00019280       _pj_ioqueue_get_user_data  0041a280 f   pjlib-i386-win32-vc8-release:ioqueue_select.obj
 0001:000192a0       _pj_ioqueue_is_pending     0041a2a0 f   pjlib-i386-win32-vc8-release:ioqueue_select.obj
 0001:000192b0       _pj_ioqueue_lock_key       0041a2b0 f   pjlib-i386-win32-vc8-release:ioqueue_select.obj
 0001:000192e0       _pj_ioqueue_op_key_init    0041a2e0 f   pjlib-i386-win32-vc8-release:ioqueue_select.obj
 0001:00019300       _pj_ioqueue_poll           0041a300 f   pjlib-i386-win32-vc8-release:ioqueue_select.obj
 0001:00019630       _pj_ioqueue_recv           0041a630 f   pjlib-i386-win32-vc8-release:ioqueue_select.obj
 0001:00019750       _pj_ioqueue_recvfrom       0041a750 f   pjlib-i386-win32-vc8-release:ioqueue_select.obj
 0001:00019880       _pj_ioqueue_register_sock  0041a880 f   pjlib-i386-win32-vc8-release:ioqueue_select.obj
 0001:000198b0       _pj_ioqueue_register_sock2 0041a8b0 f   pjlib-i386-win32-vc8-release:ioqueue_select.obj
 0001:000199d0       _pj_ioqueue_send           0041a9d0 f   pjlib-i386-win32-vc8-release:ioqueue_select.obj
 0001:00019b70       _pj_ioqueue_sendto         0041ab70 f   pjlib-i386-win32-vc8-release:ioqueue_select.obj
 0001:00019d10       _pj_ioqueue_set_concurrency 0041ad10 f   pjlib-i386-win32-vc8-release:ioqueue_select.obj
 0001:00019d30       _pj_ioqueue_set_lock       0041ad30 f   pjlib-i386-win32-vc8-release:ioqueue_select.obj
 0001:00019d70       _pj_ioqueue_unlock_key     0041ad70 f   pjlib-i386-win32-vc8-release:ioqueue_select.obj
 0001:00019da0       _pj_ioqueue_unregister     0041ada0 f   pjlib-i386-win32-vc8-release:ioqueue_select.obj
 0001:00019e80       _pj_gethostip              0041ae80 f   pjlib-i386-win32-vc8-release:sock_common.obj
 0001:0001a810       _pj_getipinterface         0041b810 f   pjlib-i386-win32-vc8-release:sock_common.obj
 0001:0001a9f0       _pj_sock_bind_random       0041b9f0 f   pjlib-i386-win32-vc8-release:sock_common.obj
 0001:0001ab90       _pj_sock_setsockopt_sobuf  0041bb90 f   pjlib-i386-win32-vc8-release:sock_common.obj
 0001:0001acd0       _pj_sockaddr_cmp           0041bcd0 f   pjlib-i386-win32-vc8-release:sock_common.obj
 0001:0001adf0       _pj_sockaddr_cp            0041bdf0 f   pjlib-i386-win32-vc8-release:sock_common.obj
 0001:0001ae50       _pj_sockaddr_get_addr      0041be50 f   pjlib-i386-win32-vc8-release:sock_common.obj
 0001:0001ae90       _pj_sockaddr_get_addr_len  0041be90 f   pjlib-i386-win32-vc8-release:sock_common.obj
 0001:0001aed0       _pj_sockaddr_get_len       0041bed0 f   pjlib-i386-win32-vc8-release:sock_common.obj
 0001:0001af10       _pj_sockaddr_get_port      0041bf10 f   pjlib-i386-win32-vc8-release:sock_common.obj
 0001:0001af40       _pj_sockaddr_has_addr      0041bf40 f   pjlib-i386-win32-vc8-release:sock_common.obj
 0001:0001aff0       _pj_sockaddr_in_init       0041bff0 f   pjlib-i386-win32-vc8-release:sock_common.obj
 0001:0001b040       _pj_sockaddr_in_set_str_addr 0041c040 f   pjlib-i386-win32-vc8-release:sock_common.obj
 0001:0001b0f0       _pj_sockaddr_init          0041c0f0 f   pjlib-i386-win32-vc8-release:sock_common.obj
 0001:0001b1a0       _pj_sockaddr_print         0041c1a0 f   pjlib-i386-win32-vc8-release:sock_common.obj
 0001:0001b2b0       _pj_sockaddr_set_port      0041c2b0 f   pjlib-i386-win32-vc8-release:sock_common.obj
 0001:0001b300       _pj_sockaddr_set_str_addr  0041c300 f   pjlib-i386-win32-vc8-release:sock_common.obj
 0001:0001b400       _pj_get_netos_error        0041c400 f   pjlib-i386-win32-vc8-release:os_error_win32.obj
 0001:0001b420       _platform_strerror         0041c420 f   pjlib-i386-win32-vc8-release:os_error_win32.obj
 0001:0001b520       _pj_errno_clear_handlers   0041c520 f   pjlib-i386-win32-vc8-release:errno.obj
 0001:0001b540       _pj_perror                 0041c540 f   pjlib-i386-win32-vc8-release:errno.obj
 0001:0001b560       _pj_perror_2               0041c560 f   pjlib-i386-win32-vc8-release:errno.obj
 0001:0001b580       _pj_perror_3               0041c580 f   pjlib-i386-win32-vc8-release:errno.obj
 0001:0001b5a0       _pj_perror_4               0041c5a0 f   pjlib-i386-win32-vc8-release:errno.obj
 0001:0001b660       _pj_register_strerror      0041c660 f   pjlib-i386-win32-vc8-release:errno.obj
 0001:0001b740       _pj_strerror               0041c740 f   pjlib-i386-win32-vc8-release:errno.obj
 0001:0001b890       _pj_log_write              0041c890 f   pjlib-i386-win32-vc8-release:log_writer_stdout.obj
 0001:0001b930       _pj_log                    0041c930 f   pjlib-i386-win32-vc8-release:log.obj
 0001:0001be30       _pj_log_1                  0041ce30 f   pjlib-i386-win32-vc8-release:log.obj
 0001:0001be50       _pj_log_3                  0041ce50 f   pjlib-i386-win32-vc8-release:log.obj
 0001:0001be70       _pj_log_4                  0041ce70 f   pjlib-i386-win32-vc8-release:log.obj
 0001:0001be90       _pj_log_5                  0041ce90 f   pjlib-i386-win32-vc8-release:log.obj
 0001:0001beb0       _pj_log_get_color          0041ceb0 f   pjlib-i386-win32-vc8-release:log.obj
 0001:0001bf20       _pj_log_get_decor          0041cf20 f   pjlib-i386-win32-vc8-release:log.obj
 0001:0001bf30       _pj_log_get_level          0041cf30 f   pjlib-i386-win32-vc8-release:log.obj
 0001:0001bf40       _pj_log_init               0041cf40 f   pjlib-i386-win32-vc8-release:log.obj
 0001:0001bfb0       _pj_log_pop_indent         0041cfb0 f   pjlib-i386-win32-vc8-release:log.obj
 0001:0001bfe0       _pj_log_push_indent        0041cfe0 f   pjlib-i386-win32-vc8-release:log.obj
 0001:0001c010       _pj_log_set_log_func       0041d010 f   pjlib-i386-win32-vc8-release:log.obj
 0001:0001c020       _pj_create_random_string   0041d020 f   pjlib-i386-win32-vc8-release:string.obj
 0001:0001c130       _pj_str                    0041d130 f   pjlib-i386-win32-vc8-release:string.obj
 0001:0001c150       _pj_strcat                 0041d150 f   pjlib-i386-win32-vc8-release:string.obj
 0001:0001c180       _pj_strcat2                0041d180 f   pjlib-i386-win32-vc8-release:string.obj
 0001:0001c1c0       _pj_strcmp                 0041d1c0 f   pjlib-i386-win32-vc8-release:string.obj
 0001:0001c220       _pj_strcpy                 0041d220 f   pjlib-i386-win32-vc8-release:string.obj
 0001:0001c250       _pj_strdup                 0041d250 f   pjlib-i386-win32-vc8-release:string.obj
 0001:0001c290       _pj_strdup2                0041d290 f   pjlib-i386-win32-vc8-release:string.obj
 0001:0001c2f0       _pj_strdup2_with_null      0041d2f0 f   pjlib-i386-win32-vc8-release:string.obj
 0001:0001c350       _pj_stricmp                0041d350 f   pjlib-i386-win32-vc8-release:string.obj
 0001:0001c3c0       _pj_strncpy                0041d3c0 f   pjlib-i386-win32-vc8-release:string.obj
 0001:0001c3f0       _pj_strncpy_with_null      0041d3f0 f   pjlib-i386-win32-vc8-release:string.obj
 0001:0001c430       _pj_utoa                   0041d430 f   pjlib-i386-win32-vc8-release:string.obj
 0001:0001c450       _pj_utoa_pad               0041d450 f   pjlib-i386-win32-vc8-release:string.obj
 0001:0001c4f0       _pj_pool_alloc             0041d4f0 f   pjlib-i386-win32-vc8-release:pool.obj
 0001:0001c540       _pj_pool_allocate_find     0041d540 f   pjlib-i386-win32-vc8-release:pool.obj
 0001:0001c620       _pj_pool_calloc            0041d620 f   pjlib-i386-win32-vc8-release:pool.obj
 0001:0001c680       _pj_pool_create            0041d680 f   pjlib-i386-win32-vc8-release:pool.obj
 0001:0001c710       _pj_pool_create_int        0041d710 f   pjlib-i386-win32-vc8-release:pool.obj
 0001:0001c7c0       _pj_pool_destroy_int       0041d7c0 f   pjlib-i386-win32-vc8-release:pool.obj
 0001:0001c800       _pj_pool_get_capacity      0041d800 f   pjlib-i386-win32-vc8-release:pool.obj
 0001:0001c810       _pj_pool_get_used_size     0041d810 f   pjlib-i386-win32-vc8-release:pool.obj
 0001:0001c840       _pj_pool_getobjname        0041d840 f   pjlib-i386-win32-vc8-release:pool.obj
 0001:0001c850       _pj_pool_init_int          0041d850 f   pjlib-i386-win32-vc8-release:pool.obj
 0001:0001c8c0       _pj_pool_release           0041d8c0 f   pjlib-i386-win32-vc8-release:pool.obj
 0001:0001c8e0       _pj_pool_reset             0041d8e0 f   pjlib-i386-win32-vc8-release:pool.obj
 0001:0001ccf0       _pj_caching_pool_destroy   0041dcf0 f   pjlib-i386-win32-vc8-release:pool_caching.obj
 0001:0001cdd0       _pj_caching_pool_init      0041ddd0 f   pjlib-i386-win32-vc8-release:pool_caching.obj
 0001:0001cf80       _pj_timer_entry_init       0041df80 f   pjlib-i386-win32-vc8-release:timer.obj
 0001:0001cfb0       _pj_timer_heap_cancel      0041dfb0 f   pjlib-i386-win32-vc8-release:timer.obj
 0001:0001d020       _pj_timer_heap_cancel_if_active 0041e020 f   pjlib-i386-win32-vc8-release:timer.obj
 0001:0001d090       _pj_timer_heap_create      0041e090 f   pjlib-i386-win32-vc8-release:timer.obj
 0001:0001d1d0       _pj_timer_heap_destroy     0041e1d0 f   pjlib-i386-win32-vc8-release:timer.obj
 0001:0001d200       _pj_timer_heap_poll        0041e200 f   pjlib-i386-win32-vc8-release:timer.obj
 0001:0001d370       _pj_timer_heap_schedule    0041e370 f   pjlib-i386-win32-vc8-release:timer.obj
 0001:0001d390       _pj_timer_heap_schedule_w_grp_lock 0041e390 f   pjlib-i386-win32-vc8-release:timer.obj
 0001:0001d7c0       _pj_gethostname            0041e7c0 f   pjlib-i386-win32-vc8-release:sock_bsd.obj
 0001:0001d840       _pj_htonl                  0041e840 f   pjlib-i386-win32-vc8-release:sock_bsd.obj
 0001:0001d850       _pj_htons                  0041e850 f   pjlib-i386-win32-vc8-release:sock_bsd.obj
 0001:0001d860       _pj_inet_aton              0041e860 f   pjlib-i386-win32-vc8-release:sock_bsd.obj
 0001:0001d8f0       _pj_inet_ntoa              0041e8f0 f   pjlib-i386-win32-vc8-release:sock_bsd.obj
 0001:0001d900       _pj_inet_ntop              0041e900 f   pjlib-i386-win32-vc8-release:sock_bsd.obj
 0001:0001da10       _pj_inet_pton              0041ea10 f   pjlib-i386-win32-vc8-release:sock_bsd.obj
 0001:0001db70       _pj_ntohl                  0041eb70 f   pjlib-i386-win32-vc8-release:sock_bsd.obj
 0001:0001db80       _pj_ntohs                  0041eb80 f   pjlib-i386-win32-vc8-release:sock_bsd.obj
 0001:0001db90       _pj_sock_accept            0041eb90 f   pjlib-i386-win32-vc8-release:sock_bsd.obj
 0001:0001dc00       _pj_sock_bind              0041ec00 f   pjlib-i386-win32-vc8-release:sock_bsd.obj
 0001:0001dc70       _pj_sock_bind_in           0041ec70 f   pjlib-i386-win32-vc8-release:sock_bsd.obj
 0001:0001dd40       _pj_sock_close             0041ed40 f   pjlib-i386-win32-vc8-release:sock_bsd.obj
 0001:0001dd90       _pj_sock_connect           0041ed90 f   pjlib-i386-win32-vc8-release:sock_bsd.obj
 0001:0001ddf0       _pj_sock_getsockname       0041edf0 f   pjlib-i386-win32-vc8-release:sock_bsd.obj
 0001:0001de50       _pj_sock_getsockopt        0041ee50 f   pjlib-i386-win32-vc8-release:sock_bsd.obj
 0001:0001dec0       _pj_sock_recv              0041eec0 f   pjlib-i386-win32-vc8-release:sock_bsd.obj
 0001:0001df30       _pj_sock_recvfrom          0041ef30 f   pjlib-i386-win32-vc8-release:sock_bsd.obj
 0001:0001dfa0       _pj_sock_send              0041efa0 f   pjlib-i386-win32-vc8-release:sock_bsd.obj
 0001:0001e010       _pj_sock_sendto            0041f010 f   pjlib-i386-win32-vc8-release:sock_bsd.obj
 0001:0001e080       _pj_sock_setsockopt        0041f080 f   pjlib-i386-win32-vc8-release:sock_bsd.obj
 0001:0001e100       _pj_sock_socket            0041f100 f   pjlib-i386-win32-vc8-release:sock_bsd.obj
 0001:0001e1b0       _pj_time_val_normalize     0041f1b0 f   pjlib-i386-win32-vc8-release:types.obj
 0001:0001e4f0       _pj_grp_lock_acquire       0041f4f0 f   pjlib-i386-win32-vc8-release:lock.obj
 0001:0001e500       _pj_grp_lock_add_handler   0041f500 f   pjlib-i386-win32-vc8-release:lock.obj
 0001:0001e550       _pj_grp_lock_add_ref       0041f550 f   pjlib-i386-win32-vc8-release:lock.obj
 0001:0001e570       _pj_grp_lock_create        0041f570 f   pjlib-i386-win32-vc8-release:lock.obj
 0001:0001e660       _pj_grp_lock_dec_ref       0041f660 f   pjlib-i386-win32-vc8-release:lock.obj
 0001:0001e690       _pj_grp_lock_get_ref       0041f690 f   pjlib-i386-win32-vc8-release:lock.obj
 0001:0001e6b0       _pj_grp_lock_release       0041f6b0 f   pjlib-i386-win32-vc8-release:lock.obj
 0001:0001e6c0       _pj_lock_acquire           0041f6c0 f   pjlib-i386-win32-vc8-release:lock.obj
 0001:0001e6e0       _pj_lock_create_null_mutex 0041f6e0 f   pjlib-i386-win32-vc8-release:lock.obj
 0001:0001e700       _pj_lock_create_recursive_mutex 0041f700 f   pjlib-i386-win32-vc8-release:lock.obj
 0001:0001e720       _pj_lock_create_simple_mutex 0041f720 f   pjlib-i386-win32-vc8-release:lock.obj
 0001:0001e740       _pj_lock_destroy           0041f740 f   pjlib-i386-win32-vc8-release:lock.obj
 0001:0001e760       _pj_lock_release           0041f760 f   pjlib-i386-win32-vc8-release:lock.obj
 0001:0001e780       _pj_list_erase             0041f780 f   pjlib-i386-win32-vc8-release:list.obj
 0001:0001e7a0       _pj_list_insert_after      0041f7a0 f   pjlib-i386-win32-vc8-release:list.obj
 0001:0001e7c0       _pj_list_insert_before     0041f7c0 f   pjlib-i386-win32-vc8-release:list.obj
 0001:0001e7e0       _pj_array_erase            0041f7e0 f   pjlib-i386-win32-vc8-release:array.obj
 0001:0001ea40       _pj_hash_calc              0041fa40 f   pjlib-i386-win32-vc8-release:hash.obj
 0001:0001ead0       _pj_hash_create            0041fad0 f   pjlib-i386-win32-vc8-release:hash.obj
 0001:0001eb20       _pj_hash_first             0041fb20 f   pjlib-i386-win32-vc8-release:hash.obj
 0001:0001eb60       _pj_hash_get               0041fb60 f   pjlib-i386-win32-vc8-release:hash.obj
 0001:0001eb90       _pj_hash_next              0041fb90 f   pjlib-i386-win32-vc8-release:hash.obj
 0001:0001ebe0       _pj_hash_set               0041fbe0 f   pjlib-i386-win32-vc8-release:hash.obj
 0001:0001ec40       _pj_hash_set_np            0041fc40 f   pjlib-i386-win32-vc8-release:hash.obj
 0001:0001eca0       _pj_hash_this              0041fca0 f   pjlib-i386-win32-vc8-release:hash.obj
 0001:0001ecc0       _pj_rand                   0041fcc0 f   pjlib-i386-win32-vc8-release:rand.obj
 0001:0001ecf0       _pj_gettimeofday           0041fcf0 f   pjlib-i386-win32-vc8-release:os_time_win32.obj
 0001:0001eda0       _pj_time_decode            0041fda0 f   pjlib-i386-win32-vc8-release:os_time_win32.obj
 0001:0001ee50       _pj_qos_get_params         0041fe50 f   pjlib-i386-win32-vc8-release:sock_qos_common.obj
 0001:0001ee80       _pj_sock_apply_qos         0041fe80 f   pjlib-i386-win32-vc8-release:sock_qos_common.obj
 0001:0001ef40       _pj_sock_apply_qos2        0041ff40 f   pjlib-i386-win32-vc8-release:sock_qos_common.obj
 0001:0001f380       _pj_activesock_cfg_default 00420380 f   pjlib-i386-win32-vc8-release:activesock.obj
 0001:0001f3b0       _pj_activesock_close       004203b0 f   pjlib-i386-win32-vc8-release:activesock.obj
 0001:0001f3f0       _pj_activesock_create      004203f0 f   pjlib-i386-win32-vc8-release:activesock.obj
 0001:0001f570       _pj_activesock_get_user_data 00420570 f   pjlib-i386-win32-vc8-release:activesock.obj
 0001:0001f590       _pj_activesock_send        00420590 f   pjlib-i386-win32-vc8-release:activesock.obj
 0001:0001f660       _pj_activesock_sendto      00420660 f   pjlib-i386-win32-vc8-release:activesock.obj
 0001:0001f6c0       _pj_activesock_start_connect 004206c0 f   pjlib-i386-win32-vc8-release:activesock.obj
 0001:0001f6f0       _pj_activesock_start_read  004206f0 f   pjlib-i386-win32-vc8-release:activesock.obj
 0001:0001f800       _pj_activesock_start_recvfrom 00420800 f   pjlib-i386-win32-vc8-release:activesock.obj
 0001:0001f990       _pj_getaddrinfo            00420990 f   pjlib-i386-win32-vc8-release:addr_resolv_sock.obj
 0001:0001fb60       _pj_gethostbyname          00420b60 f   pjlib-i386-win32-vc8-release:addr_resolv_sock.obj
 0001:00020120       _pj_enum_ip_interface      00421120 f   pjlib-i386-win32-vc8-release:ip_helper_win32.obj
 0001:00020220       _pj_exception_id_alloc     00421220 f   pjlib-i386-win32-vc8-release:except.obj
 0001:00020270       _pj_exception_id_free      00421270 f   pjlib-i386-win32-vc8-release:except.obj
 0001:000202b0       _pj_pop_exception_handler_ 004212b0 f   pjlib-i386-win32-vc8-release:except.obj
 0001:000202e0       _pj_push_exception_handler_ 004212e0 f   pjlib-i386-win32-vc8-release:except.obj
 0001:00020330       _pj_throw_exception_       00421330 f   pjlib-i386-win32-vc8-release:except.obj
 0001:000203d0       _pj_pool_create_on_buf     004213d0 f   pjlib-i386-win32-vc8-release:pool_buf.obj
 0001:000204e0       _pj_get_timestamp          004214e0 f   pjlib-i386-win32-vc8-release:os_timestamp_win32.obj
 0001:00020540       _pj_get_timestamp_freq     00421540 f   pjlib-i386-win32-vc8-release:os_timestamp_win32.obj
 0001:00020620       _pj_generate_unique_string 00421620 f   pjlib-i386-win32-vc8-release:guid_win32.obj
 0001:00020670       _pj_elapsed_time           00421670 f   pjlib-i386-win32-vc8-release:os_timestamp_common.obj
 0001:00020720       _pj_gettickcount           00421720 f   pjlib-i386-win32-vc8-release:os_timestamp_common.obj
 0001:00020760       _PJ_FD_CLR                 00421760 f   pjlib-i386-win32-vc8-release:sock_select.obj
 0001:000207e0       _PJ_FD_COUNT               004217e0 f   pjlib-i386-win32-vc8-release:sock_select.obj
 0001:000207f0       _PJ_FD_ISSET               004217f0 f   pjlib-i386-win32-vc8-release:sock_select.obj
 0001:00020820       _PJ_FD_SET                 00421820 f   pjlib-i386-win32-vc8-release:sock_select.obj
 0001:00020890       _PJ_FD_ZERO                00421890 f   pjlib-i386-win32-vc8-release:sock_select.obj
 0001:000208c0       _pj_sock_select            004218c0 f   pjlib-i386-win32-vc8-release:sock_select.obj
 0001:000209f0       _pj_sock_set_qos_params    004219f0 f   pjlib-i386-win32-vc8-release:sock_qos_bsd.obj
 0001:00020a90       _pj_sock_set_qos_type      00421a90 f   pjlib-i386-win32-vc8-release:sock_qos_bsd.obj
 0001:00020abc       ___WSAFDIsSet@8            00421abc f   ws2_32:WS2_32.dll
 0001:00020ac2       ___raise_securityfailure   00421ac2 f   MSVCRT:gs_report.obj
 0001:00020aea       ___report_gsfailure        00421aea f   MSVCRT:gs_report.obj
 0001:00020be5       ___report_rangecheckfailure 00421be5 f   MSVCRT:gs_report.obj
 0001:00020bf1       ___report_securityfailure  00421bf1 f   MSVCRT:gs_report.obj
 0001:00020cc1       @__security_check_cookie@4 00421cc1 f   MSVCRT:_secchk_.obj
 0001:00020eff       _mainCRTStartup            00421eff f   MSVCRT:exe_main.obj
 0001:00020f09       ___isa_available_init      00421f09 f   MSVCRT:_cpu_disp_.obj
 0001:000210b0       __alldiv                   004220b0 f   MSVCRT:lldiv.obj
 0001:00021160       __allmul                   00422160 f   MSVCRT:llmul.obj
 0001:000211a0       __ftoui3                   004221a0 f   MSVCRT:_ftol3_.obj
 0001:000211af       __ftoul3                   004221af f   MSVCRT:_ftol3_.obj
 0001:000211be       __ftol3                    004221be f   MSVCRT:_ftol3_.obj
 0001:000211cb       __ftol3_NaN                004221cb f   MSVCRT:_ftol3_.obj
 0001:000211e3       __ftol3_work               004221e3 f   MSVCRT:_ftol3_.obj
 0001:00021269       __ftol3_common             00422269 f   MSVCRT:_ftol3_.obj
 0001:0002132b       __ftol3_arg_error          0042232b f   MSVCRT:_ftol3_.obj
 0001:0002133d       __ftol3_except             0042233d f   MSVCRT:_ftol3_.obj
 0001:00021381       __dtoui3                   00422381 f   MSVCRT:_ftol3_.obj
 0001:00021390       __dtoul3                   00422390 f   MSVCRT:_ftol3_.obj
 0001:0002139f       __dtol3                    0042239f f   MSVCRT:_ftol3_.obj
 0001:000213ac       __dtol3_NaN                004223ac f   MSVCRT:_ftol3_.obj
 0001:000213c9       __dtol3_work               004223c9 f   MSVCRT:_ftol3_.obj
 0001:000214b0       __ultod3                   004224b0 f   MSVCRT:_ftol3_.obj
 0001:000214f0       __ltod3                    004224f0 f   MSVCRT:_ftol3_.obj
 0001:0002155b       ___scrt_acquire_startup_lock 0042255b f   MSVCRT:utility.obj
 0001:00021590       ___scrt_initialize_crt     00422590 f   MSVCRT:utility.obj
 0001:000215c9       ___scrt_initialize_onexit_tables 004225c9 f   MSVCRT:utility.obj
 0001:00021660       ___scrt_is_nonwritable_in_current_image 00422660 f   MSVCRT:utility.obj
 0001:000216ea       ___scrt_release_startup_lock 004226ea f   MSVCRT:utility.obj
 0001:00021707       ___scrt_uninitialize_crt   00422707 f   MSVCRT:utility.obj
 0001:0002172f       __onexit                   0042272f f   MSVCRT:utility.obj
 0001:0002176a       _atexit                    0042276a f   MSVCRT:utility.obj
 0001:0002177f       ___security_init_cookie    0042277f f   MSVCRT:gs_support.obj
 0001:0002181b       __get_startup_argv_mode    0042281b f   MSVCRT:argv_mode.obj
 0001:00021820       __get_startup_thread_locale_mode 00422820 f   MSVCRT:thread_locale.obj
 0001:00021820       __get_startup_new_mode     00422820 f   MSVCRT:new_mode.obj
 0001:00021820       __get_startup_commit_mode  00422820 f   MSVCRT:commit_mode.obj
 0001:00021820       ___scrt_initialize_winrt   00422820 f   MSVCRT:utility_desktop.obj
 0001:00021820       _pj_stun_client_tsx_destroy 00422820 f   pjnath-i386-win32-vc8-release:stun_transaction.obj
 0001:00021820       __matherr                  00422820 f   MSVCRT:matherr.obj
 0001:00021823       __get_startup_file_mode    00422823 f   MSVCRT:file_mode.obj
 0001:00021829       ?__scrt_initialize_type_info@@YAXXZ 00422829 f   MSVCRT:tncleanup.obj
 0001:00021835       __initialize_default_precision 00422835 f   MSVCRT:default_precision.obj
 0001:00021856       ___scrt_initialize_default_local_stdio_options 00422856 f   MSVCRT:default_local_stdio_options.obj
 0001:00021873       ___scrt_is_user_matherr_present 00422873 f   MSVCRT:matherr_detection.obj
 0001:0002187f       ___scrt_get_dyn_tls_init_callback 0042287f f   MSVCRT:dyn_tls_init.obj
 0001:00021885       ___scrt_get_dyn_tls_dtor_callback 00422885 f   MSVCRT:dyn_tls_dtor.obj
 0001:0002188b       ___scrt_fastfail           0042288b f   MSVCRT:utility_desktop.obj
 0001:000219a6       ___scrt_is_managed_app     004229a6 f   MSVCRT:utility_desktop.obj
 0001:000219ea       ___scrt_set_unhandled_exception_filter 004229ea f   MSVCRT:utility_desktop.obj
 0001:000219f6       ___scrt_unhandled_exception_filter@4 004229f6 f   MSVCRT:utility_desktop.obj
 0001:00021a37       __RTC_Initialize           00422a37 f   MSVCRT:_initsect_.obj
 0001:00021a62       __RTC_Terminate            00422a62 f   MSVCRT:_initsect_.obj
 0001:00021a8d       @_guard_check_icall@4      00422a8d f i MSVCRT:checkcfg.obj
 0001:00021aa0       __SEH_prolog4              00422aa0 f   MSVCRT:_sehprolg4_.obj
 0001:00021ae6       __SEH_epilog4              00422ae6 f   MSVCRT:_sehprolg4_.obj
 0001:00021afb       __except_handler4          00422afb f   MSVCRT:_chandler4gs_.obj
 0001:00021b1e       ___scrt_is_ucrt_dll_in_use 00422b1e f   MSVCRT:ucrt_detection.obj
 0001:00021b30       __initialize_denormal_control 00422b30 f i MSVCRT:denormal_control.obj
 0001:00021b30       @_guard_check_icall_nop@4  00422b30 f i MSVCRT:guard_support.obj
 0001:00021b30       __initialize_invalid_parameter_handler 00422b30 f i MSVCRT:invalid_parameter_handler.obj
 0001:00021b32       _IsProcessorFeaturePresent@4 00422b32 f   kernel32:KERNEL32.dll
 0001:00021b38       _memchr                    00422b38 f   vcruntime:VCRUNTIME140.dll
 0001:00021b3e       _strchr                    00422b3e f   vcruntime:VCRUNTIME140.dll
 0001:00021b44       _memset                    00422b44 f   vcruntime:VCRUNTIME140.dll
 0001:00021b4a       _memcpy                    00422b4a f   vcruntime:VCRUNTIME140.dll
 0001:00021b50       _memmove                   00422b50 f   vcruntime:VCRUNTIME140.dll
 0001:00021b56       __setjmp3                  00422b56 f   vcruntime:VCRUNTIME140.dll
 0001:00021b5c       _longjmp                   00422b5c f   vcruntime:VCRUNTIME140.dll
 0001:00021b62       __except_handler4_common   00422b62 f   vcruntime:VCRUNTIME140.dll
 0001:00021b68       ___stdio_common_vsprintf   00422b68 f   ucrt:api-ms-win-crt-stdio-l1-1-0.dll
 0001:00021b6e       _exit                      00422b6e f   ucrt:api-ms-win-crt-runtime-l1-1-0.dll
 0001:00021b74       _tolower                   00422b74 f   ucrt:api-ms-win-crt-string-l1-1-0.dll
 0001:00021b7a       _strncmp                   00422b7a f   ucrt:api-ms-win-crt-string-l1-1-0.dll
 0001:00021b80       _strncpy                   00422b80 f   ucrt:api-ms-win-crt-string-l1-1-0.dll
 0001:00021b86       __strnicmp                 00422b86 f   ucrt:api-ms-win-crt-string-l1-1-0.dll
 0001:00021b8c       _rand                      00422b8c f   ucrt:api-ms-win-crt-utility-l1-1-0.dll
 0001:00021b92       _free                      00422b92 f   ucrt:api-ms-win-crt-heap-l1-1-0.dll
 0001:00021b98       _malloc                    00422b98 f   ucrt:api-ms-win-crt-heap-l1-1-0.dll
 0001:00021b9e       __CIfmod                   00422b9e f   ucrt:api-ms-win-crt-math-l1-1-0.dll
 0001:00021ba4       __seh_filter_exe           00422ba4 f   ucrt:api-ms-win-crt-runtime-l1-1-0.dll
 0001:00021baa       __set_app_type             00422baa f   ucrt:api-ms-win-crt-runtime-l1-1-0.dll
 0001:00021bb0       ___setusermatherr          00422bb0 f   ucrt:api-ms-win-crt-math-l1-1-0.dll
 0001:00021bb6       __configure_narrow_argv    00422bb6 f   ucrt:api-ms-win-crt-runtime-l1-1-0.dll
 0001:00021bbc       __initialize_narrow_environment 00422bbc f   ucrt:api-ms-win-crt-runtime-l1-1-0.dll
 0001:00021bc2       __get_initial_narrow_environment 00422bc2 f   ucrt:api-ms-win-crt-runtime-l1-1-0.dll
 0001:00021bc8       __initterm                 00422bc8 f   ucrt:api-ms-win-crt-runtime-l1-1-0.dll
 0001:00021bce       __initterm_e               00422bce f   ucrt:api-ms-win-crt-runtime-l1-1-0.dll
 0001:00021bd4       __exit                     00422bd4 f   ucrt:api-ms-win-crt-runtime-l1-1-0.dll
 0001:00021bda       __set_fmode                00422bda f   ucrt:api-ms-win-crt-stdio-l1-1-0.dll
 0001:00021be0       ___p___argc                00422be0 f   ucrt:api-ms-win-crt-runtime-l1-1-0.dll
 0001:00021be6       ___p___argv                00422be6 f   ucrt:api-ms-win-crt-runtime-l1-1-0.dll
 0001:00021bec       __cexit                    00422bec f   ucrt:api-ms-win-crt-runtime-l1-1-0.dll
 0001:00021bf2       __c_exit                   00422bf2 f   ucrt:api-ms-win-crt-runtime-l1-1-0.dll
 0001:00021bf8       __register_thread_local_exe_atexit_callback 00422bf8 f   ucrt:api-ms-win-crt-runtime-l1-1-0.dll
 0001:00021bfe       __configthreadlocale       00422bfe f   ucrt:api-ms-win-crt-locale-l1-1-0.dll
 0001:00021c04       __set_new_mode             00422c04 f   ucrt:api-ms-win-crt-heap-l1-1-0.dll
 0001:00021c0a       ___p__commode              00422c0a f   ucrt:api-ms-win-crt-stdio-l1-1-0.dll
 0001:00021c10       __except1                  00422c10 f   ucrt:api-ms-win-crt-math-l1-1-0.dll
 0001:00021c16       __initialize_onexit_table  00422c16 f   ucrt:api-ms-win-crt-runtime-l1-1-0.dll
 0001:00021c1c       __register_onexit_function 00422c1c f   ucrt:api-ms-win-crt-runtime-l1-1-0.dll
 0001:00021c22       __crt_atexit               00422c22 f   ucrt:api-ms-win-crt-runtime-l1-1-0.dll
 0001:00021c28       __controlfp_s              00422c28 f   ucrt:api-ms-win-crt-runtime-l1-1-0.dll
 0001:00021c2e       _terminate                 00422c2e f   ucrt:api-ms-win-crt-runtime-l1-1-0.dll
 0001:00021c34       ___acrt_uninitialize       00422c34 f   MSVCRT:ucrt_stubs.obj
 0001:00021c34       ___vcrt_initialize         00422c34 f   MSVCRT:ucrt_stubs.obj
 0001:00021c34       ___scrt_stub_for_acrt_uninitialize 00422c34 f   MSVCRT:ucrt_stubs.obj
 0001:00021c34       __should_initialize_environment 00422c34 f   MSVCRT:env_mode.obj
 0001:00021c34       ___vcrt_uninitialize       00422c34 f   MSVCRT:ucrt_stubs.obj
 0001:00021c34       ___scrt_stub_for_acrt_initialize 00422c34 f   MSVCRT:ucrt_stubs.obj
 0001:00021c34       ___acrt_initialize         00422c34 f   MSVCRT:ucrt_stubs.obj
 0002:00000000       __imp__TerminateProcess@8  00423000     kernel32:KERNEL32.dll
 0002:00000004       __imp__GetModuleHandleW@4  00423004     kernel32:KERNEL32.dll
 0002:00000008       __imp__IsDebuggerPresent@0 00423008     kernel32:KERNEL32.dll
 0002:0000000c       __imp__InitializeSListHead@4 0042300c     kernel32:KERNEL32.dll
 0002:00000010       __imp__GetSystemTimeAsFileTime@4 00423010     kernel32:KERNEL32.dll
 0002:00000014       __imp__IsProcessorFeaturePresent@4 00423014     kernel32:KERNEL32.dll
 0002:00000018       __imp__GetCurrentProcess@0 00423018     kernel32:KERNEL32.dll
 0002:0000001c       __imp__SetUnhandledExceptionFilter@4 0042301c     kernel32:KERNEL32.dll
 0002:00000020       __imp__UnhandledExceptionFilter@4 00423020     kernel32:KERNEL32.dll
 0002:00000024       __imp__QueryPerformanceFrequency@4 00423024     kernel32:KERNEL32.dll
 0002:00000028       __imp__QueryPerformanceCounter@4 00423028     kernel32:KERNEL32.dll
 0002:0000002c       __imp__LoadLibraryA@4      0042302c     kernel32:KERNEL32.dll
 0002:00000030       __imp__GetProcAddress@8    00423030     kernel32:KERNEL32.dll
 0002:00000034       __imp__FreeLibrary@4       00423034     kernel32:KERNEL32.dll
 0002:00000038       __imp__SystemTimeToFileTime@8 00423038     kernel32:KERNEL32.dll
 0002:0000003c       __imp__FileTimeToSystemTime@8 0042303c     kernel32:KERNEL32.dll
 0002:00000040       __imp__GetLocalTime@4      00423040     kernel32:KERNEL32.dll
 0002:00000044       __imp__FormatMessageA@28   00423044     kernel32:KERNEL32.dll
 0002:00000048       __imp__SetConsoleTextAttribute@8 00423048     kernel32:KERNEL32.dll
 0002:0000004c       __imp__TlsFree@4           0042304c     kernel32:KERNEL32.dll
 0002:00000050       __imp__TlsSetValue@8       00423050     kernel32:KERNEL32.dll
 0002:00000054       __imp__TlsGetValue@4       00423054     kernel32:KERNEL32.dll
 0002:00000058       __imp__TlsAlloc@0          00423058     kernel32:KERNEL32.dll
 0002:0000005c       __imp__GetCurrentThreadId@0 0042305c     kernel32:KERNEL32.dll
 0002:00000060       __imp__GetCurrentThread@0  00423060     kernel32:KERNEL32.dll
 0002:00000064       __imp__CreateThread@24     00423064     kernel32:KERNEL32.dll
 0002:00000068       __imp__GetCurrentProcessId@0 00423068     kernel32:KERNEL32.dll
 0002:0000006c       __imp__GetStdHandle@4      0042306c     kernel32:KERNEL32.dll
 0002:00000070       __imp__CloseHandle@4       00423070     kernel32:KERNEL32.dll
 0002:00000074       __imp__GetLastError@0      00423074     kernel32:KERNEL32.dll
 0002:00000078       __imp__InitializeCriticalSection@4 00423078     kernel32:KERNEL32.dll
 0002:0000007c       __imp__EnterCriticalSection@4 0042307c     kernel32:KERNEL32.dll
 0002:00000080       __imp__LeaveCriticalSection@4 00423080     kernel32:KERNEL32.dll
 0002:00000084       __imp__TryEnterCriticalSection@4 00423084     kernel32:KERNEL32.dll
 0002:00000088       __imp__DeleteCriticalSection@4 00423088     kernel32:KERNEL32.dll
 0002:0000008c       __imp__ReleaseSemaphore@12 0042308c     kernel32:KERNEL32.dll
 0002:00000090       __imp__WaitForSingleObject@8 00423090     kernel32:KERNEL32.dll
 0002:00000094       __imp__Sleep@4             00423094     kernel32:KERNEL32.dll
 0002:00000098       \177KERNEL32_NULL_THUNK_DATA 00423098     kernel32:KERNEL32.dll
 0002:0000009c       __imp___setjmp3            0042309c     vcruntime:VCRUNTIME140.dll
 0002:000000a0       __imp__memmove             004230a0     vcruntime:VCRUNTIME140.dll
 0002:000000a4       __imp__memcpy              004230a4     vcruntime:VCRUNTIME140.dll
 0002:000000a8       __imp__memset              004230a8     vcruntime:VCRUNTIME140.dll
 0002:000000ac       __imp__strchr              004230ac     vcruntime:VCRUNTIME140.dll
 0002:000000b0       __imp__memchr              004230b0     vcruntime:VCRUNTIME140.dll
 0002:000000b4       __imp___except_handler4_common 004230b4     vcruntime:VCRUNTIME140.dll
 0002:000000b8       __imp__longjmp             004230b8     vcruntime:VCRUNTIME140.dll
 0002:000000bc       \177VCRUNTIME140_NULL_THUNK_DATA 004230bc     vcruntime:VCRUNTIME140.dll
 0002:000000c0       __imp__setsockopt@20       004230c0     ws2_32:WS2_32.dll
 0002:000000c4       __imp__sendto@24           004230c4     ws2_32:WS2_32.dll
 0002:000000c8       __imp__send@16             004230c8     ws2_32:WS2_32.dll
 0002:000000cc       __imp__recvfrom@24         004230cc     ws2_32:WS2_32.dll
 0002:000000d0       __imp__recv@16             004230d0     ws2_32:WS2_32.dll
 0002:000000d4       __imp__ntohs@4             004230d4     ws2_32:WS2_32.dll
 0002:000000d8       __imp__ntohl@4             004230d8     ws2_32:WS2_32.dll
 0002:000000dc       __imp__inet_ntoa@4         004230dc     ws2_32:WS2_32.dll
 0002:000000e0       __imp__inet_addr@4         004230e0     ws2_32:WS2_32.dll
 0002:000000e4       __imp__htons@4             004230e4     ws2_32:WS2_32.dll
 0002:000000e8       __imp__getsockopt@20       004230e8     ws2_32:WS2_32.dll
 0002:000000ec       __imp__getsockname@12      004230ec     ws2_32:WS2_32.dll
 0002:000000f0       __imp__connect@12          004230f0     ws2_32:WS2_32.dll
 0002:000000f4       __imp__closesocket@4       004230f4     ws2_32:WS2_32.dll
 0002:000000f8       __imp__bind@12             004230f8     ws2_32:WS2_32.dll
 0002:000000fc       __imp__gethostname@8       004230fc     ws2_32:WS2_32.dll
 0002:00000100       __imp__accept@12           00423100     ws2_32:WS2_32.dll
 0002:00000104       __imp__ioctlsocket@12      00423104     ws2_32:WS2_32.dll
 0002:00000108       __imp__WSAGetLastError@0   00423108     ws2_32:WS2_32.dll
 0002:0000010c       __imp__WSACleanup@0        0042310c     ws2_32:WS2_32.dll
 0002:00000110       __imp__WSAStartup@8        00423110     ws2_32:WS2_32.dll
 0002:00000114       __imp__WSAIoctl@36         00423114     ws2_32:WS2_32.dll
 0002:00000118       __imp__WSASocketA@24       00423118     ws2_32:WS2_32.dll
 0002:0000011c       __imp__WSAAddressToStringA@20 0042311c     ws2_32:WS2_32.dll
 0002:00000120       __imp__WSAStringToAddressA@20 00423120     ws2_32:WS2_32.dll
 0002:00000124       __imp__gethostbyname@4     00423124     ws2_32:WS2_32.dll
 0002:00000128       __imp____WSAFDIsSet@8      00423128     ws2_32:WS2_32.dll
 0002:0000012c       __imp__select@20           0042312c     ws2_32:WS2_32.dll
 0002:00000130       __imp__htonl@4             00423130     ws2_32:WS2_32.dll
 0002:00000134       \177WS2_32_NULL_THUNK_DATA 00423134     ws2_32:WS2_32.dll
 0002:00000138       __imp__atoi                00423138     ucrt:api-ms-win-crt-convert-l1-1-0.dll
 0002:0000013c       \177api-ms-win-crt-convert-l1-1-0_NULL_THUNK_DATA 0042313c     ucrt:api-ms-win-crt-convert-l1-1-0.dll
 0002:00000140       __imp___set_new_mode       00423140     ucrt:api-ms-win-crt-heap-l1-1-0.dll
 0002:00000144       __imp__free                00423144     ucrt:api-ms-win-crt-heap-l1-1-0.dll
 0002:00000148       __imp__malloc              00423148     ucrt:api-ms-win-crt-heap-l1-1-0.dll
 0002:0000014c       \177api-ms-win-crt-heap-l1-1-0_NULL_THUNK_DATA 0042314c     ucrt:api-ms-win-crt-heap-l1-1-0.dll
 0002:00000150       __imp___configthreadlocale 00423150     ucrt:api-ms-win-crt-locale-l1-1-0.dll
 0002:00000154       \177api-ms-win-crt-locale-l1-1-0_NULL_THUNK_DATA 00423154     ucrt:api-ms-win-crt-locale-l1-1-0.dll
 0002:00000158       __imp____setusermatherr    00423158     ucrt:api-ms-win-crt-math-l1-1-0.dll
 0002:0000015c       __imp___CIfmod             0042315c     ucrt:api-ms-win-crt-math-l1-1-0.dll
 0002:00000160       __imp___except1            00423160     ucrt:api-ms-win-crt-math-l1-1-0.dll
 0002:00000164       \177api-ms-win-crt-math-l1-1-0_NULL_THUNK_DATA 00423164     ucrt:api-ms-win-crt-math-l1-1-0.dll
 0002:00000168       __imp__exit                00423168     ucrt:api-ms-win-crt-runtime-l1-1-0.dll
 0002:0000016c       __imp___c_exit             0042316c     ucrt:api-ms-win-crt-runtime-l1-1-0.dll
 0002:00000170       __imp___register_thread_local_exe_atexit_callback 00423170     ucrt:api-ms-win-crt-runtime-l1-1-0.dll
 0002:00000174       __imp___cexit              00423174     ucrt:api-ms-win-crt-runtime-l1-1-0.dll
 0002:00000178       __imp__terminate           00423178     ucrt:api-ms-win-crt-runtime-l1-1-0.dll
 0002:0000017c       __imp___controlfp_s        0042317c     ucrt:api-ms-win-crt-runtime-l1-1-0.dll
 0002:00000180       __imp___crt_atexit         00423180     ucrt:api-ms-win-crt-runtime-l1-1-0.dll
 0002:00000184       __imp___register_onexit_function 00423184     ucrt:api-ms-win-crt-runtime-l1-1-0.dll
 0002:00000188       __imp____p___argc          00423188     ucrt:api-ms-win-crt-runtime-l1-1-0.dll
 0002:0000018c       __imp___initterm_e         0042318c     ucrt:api-ms-win-crt-runtime-l1-1-0.dll
 0002:00000190       __imp____p___argv          00423190     ucrt:api-ms-win-crt-runtime-l1-1-0.dll
 0002:00000194       __imp___seh_filter_exe     00423194     ucrt:api-ms-win-crt-runtime-l1-1-0.dll
 0002:00000198       __imp___set_app_type       00423198     ucrt:api-ms-win-crt-runtime-l1-1-0.dll
 0002:0000019c       __imp___exit               0042319c     ucrt:api-ms-win-crt-runtime-l1-1-0.dll
 0002:000001a0       __imp___configure_narrow_argv 004231a0     ucrt:api-ms-win-crt-runtime-l1-1-0.dll
 0002:000001a4       __imp___initialize_narrow_environment 004231a4     ucrt:api-ms-win-crt-runtime-l1-1-0.dll
 0002:000001a8       __imp___get_initial_narrow_environment 004231a8     ucrt:api-ms-win-crt-runtime-l1-1-0.dll
 0002:000001ac       __imp___initterm           004231ac     ucrt:api-ms-win-crt-runtime-l1-1-0.dll
 0002:000001b0       __imp___initialize_onexit_table 004231b0     ucrt:api-ms-win-crt-runtime-l1-1-0.dll
 0002:000001b4       \177api-ms-win-crt-runtime-l1-1-0_NULL_THUNK_DATA 004231b4     ucrt:api-ms-win-crt-runtime-l1-1-0.dll
 0002:000001b8       __imp__puts                004231b8     ucrt:api-ms-win-crt-stdio-l1-1-0.dll
 0002:000001bc       __imp___set_fmode          004231bc     ucrt:api-ms-win-crt-stdio-l1-1-0.dll
 0002:000001c0       __imp__fopen               004231c0     ucrt:api-ms-win-crt-stdio-l1-1-0.dll
 0002:000001c4       __imp____acrt_iob_func     004231c4     ucrt:api-ms-win-crt-stdio-l1-1-0.dll
 0002:000001c8       __imp__fwrite              004231c8     ucrt:api-ms-win-crt-stdio-l1-1-0.dll
 0002:000001cc       __imp____stdio_common_vsscanf 004231cc     ucrt:api-ms-win-crt-stdio-l1-1-0.dll
 0002:000001d0       __imp__fflush              004231d0     ucrt:api-ms-win-crt-stdio-l1-1-0.dll
 0002:000001d4       __imp__fclose              004231d4     ucrt:api-ms-win-crt-stdio-l1-1-0.dll
 0002:000001d8       __imp____p__commode        004231d8     ucrt:api-ms-win-crt-stdio-l1-1-0.dll
 0002:000001dc       __imp____stdio_common_vsprintf 004231dc     ucrt:api-ms-win-crt-stdio-l1-1-0.dll
 0002:000001e0       __imp____stdio_common_vfprintf 004231e0     ucrt:api-ms-win-crt-stdio-l1-1-0.dll
 0002:000001e4       __imp__fgets               004231e4     ucrt:api-ms-win-crt-stdio-l1-1-0.dll
 0002:000001e8       \177api-ms-win-crt-stdio-l1-1-0_NULL_THUNK_DATA 004231e8     ucrt:api-ms-win-crt-stdio-l1-1-0.dll
 0002:000001ec       __imp__strtok              004231ec     ucrt:api-ms-win-crt-string-l1-1-0.dll
 0002:000001f0       __imp___strnicmp           004231f0     ucrt:api-ms-win-crt-string-l1-1-0.dll
 0002:000001f4       __imp__strncpy             004231f4     ucrt:api-ms-win-crt-string-l1-1-0.dll
 0002:000001f8       __imp__strncmp             004231f8     ucrt:api-ms-win-crt-string-l1-1-0.dll
 0002:000001fc       __imp__tolower             004231fc     ucrt:api-ms-win-crt-string-l1-1-0.dll
 0002:00000200       __imp__isspace             00423200     ucrt:api-ms-win-crt-string-l1-1-0.dll
 0002:00000204       \177api-ms-win-crt-string-l1-1-0_NULL_THUNK_DATA 00423204     ucrt:api-ms-win-crt-string-l1-1-0.dll
 0002:00000208       __imp__rand                00423208     ucrt:api-ms-win-crt-utility-l1-1-0.dll
 0002:0000020c       \177api-ms-win-crt-utility-l1-1-0_NULL_THUNK_DATA 0042320c     ucrt:api-ms-win-crt-utility-l1-1-0.dll
 0002:00000210       __imp__CoCreateGuid@4      00423210     ole32:ole32.dll
 0002:00000214       \177ole32_NULL_THUNK_DATA  00423214     ole32:ole32.dll
 0002:00000218       ___guard_check_icall_fptr  00423218     MSVCRT:guard_support.obj
 0002:0000021c       ___xc_a                    0042321c     MSVCRT:initializers.obj
 0002:00000224       ___xc_z                    00423224     MSVCRT:initializers.obj
 0002:00000228       ___xi_a                    00423228     MSVCRT:initializers.obj
 0002:00000234       ___xi_z                    00423234     MSVCRT:initializers.obj
 0002:00000238       ___xp_a                    00423238     MSVCRT:initializers.obj
 0002:0000023c       ___xp_z                    0042323c     MSVCRT:initializers.obj
 0002:00000240       ___xt_a                    00423240     MSVCRT:initializers.obj
 0002:00000244       ___xt_z                    00423244     MSVCRT:initializers.obj
 0002:00000328       ??_C@_0CJ@GKFBHIPI@Invalid?5STUN?5message?5?$CIPJNATH_EIN@ 00423328     pjnath-i386-win32-vc8-release:errno.obj
 0002:00000354       ??_C@_0DD@EDOPFABO@Invalid?5STUN?5message?5length?5?$CIPJN@ 00423354     pjnath-i386-win32-vc8-release:errno.obj
 0002:00000388       ??_C@_0EA@DFHBMLHL@Invalid?5or?5unexpected?5STUN?5messa@ 00423388     pjnath-i386-win32-vc8-release:errno.obj
 0002:000003c8       ??_C@_0DG@KPHKFJAB@STUN?5transaction?5has?5timed?5out?5?$CI@ 004233c8     pjnath-i386-win32-vc8-release:errno.obj
 0002:00000400       ??_C@_0DD@OHEENKIB@Too?5many?5STUN?5attributes?5?$CIPJNATH@ 00423400     pjnath-i386-win32-vc8-release:errno.obj
 0002:00000434       ??_C@_0DG@BPOIAHEF@Invalid?5STUN?5attribute?5length?5?$CIP@ 00423434     pjnath-i386-win32-vc8-release:errno.obj
 0002:0000046c       ??_C@_0DF@BKFKBCGF@Found?5duplicate?5STUN?5attribute?5?$CI@ 0042346c     pjnath-i386-win32-vc8-release:errno.obj
 0002:000004a4       ??_C@_0DP@ENOHKACM@STUN?5FINGERPRINT?5verification?5fa@ 004234a4     pjnath-i386-win32-vc8-release:errno.obj
 0002:000004e8       ??_C@_0EH@EPGNFFEB@Invalid?5STUN?5attribute?5after?5MES@ 004234e8     pjnath-i386-win32-vc8-release:errno.obj
 0002:00000530       ??_C@_0EB@DAIGGIDN@Invalid?5STUN?5attribute?5after?5FIN@ 00423530     pjnath-i386-win32-vc8-release:errno.obj
 0002:00000578       ??_C@_0EJ@JLJGOHGB@STUN?5?$CIXOR?9?$CJMAPPED?9ADDRESS?5attrib@ 00423578     pjnath-i386-win32-vc8-release:errno.obj
 0002:000005c4       ??_C@_0DM@IEAEKGHC@STUN?5IPv6?5attribute?5not?5supporte@ 004235c4     pjnath-i386-win32-vc8-release:errno.obj
 0002:00000600       ??_C@_0DC@EGLMCOFO@Invalid?5STUN?5address?5family?5valu@ 00423600     pjnath-i386-win32-vc8-release:errno.obj
 0002:00000638       ??_C@_0EE@HCGFHPNA@Invalid?5STUN?5server?5or?5server?5no@ 00423638     pjnath-i386-win32-vc8-release:errno.obj
 0002:0000067c       ??_C@_0DG@FKMKCCEE@STUN?5object?5has?5been?5destoyed?5?$CIP@ 0042367c     pjnath-i386-win32-vc8-release:errno.obj
 0002:000006b4       ??_C@_0CK@OFPAPMME@ICE?5session?5not?5available?5?$CIPJNAT@ 004236b4     pjnath-i386-win32-vc8-release:errno.obj
 0002:000006e0       ??_C@_0DB@PAOLMMAD@ICE?5check?5is?5in?5progress?5?$CIPJNATH@ 004236e0     pjnath-i386-win32-vc8-release:errno.obj
 0002:00000714       ??_C@_0CO@LKKAIKIM@All?5ICE?5checklists?5failed?5?$CIPJNAT@ 00423714     pjnath-i386-win32-vc8-release:errno.obj
 0002:00000748       ??_C@_0EG@MFEBLALG@Default?5target?5doesn?8t?5match?5any@ 00423748     pjnath-i386-win32-vc8-release:errno.obj
 0002:00000790       ??_C@_0CP@DPHDFCDB@Invalid?5ICE?5component?5ID?5?$CIPJNATH@ 00423790     pjnath-i386-win32-vc8-release:errno.obj
 0002:000007c0       ??_C@_0CP@HLPIHNCD@Invalid?5ICE?5candidate?5ID?5?$CIPJNATH@ 004237c0     pjnath-i386-win32-vc8-release:errno.obj
 0002:000007f0       ??_C@_0CP@EDCECICF@Source?5address?5mismatch?5?$CIPJNATH_@ 004237f0     pjnath-i386-win32-vc8-release:errno.obj
 0002:00000820       ??_C@_0DC@PHBGNIPK@Missing?5ICE?5SDP?5attribute?5?$CIPJNAT@ 00423820     pjnath-i386-win32-vc8-release:errno.obj
 0002:00000854       ??_C@_0DJ@KABJLAFL@Invalid?5SDP?5?$CCcandidate?$CC?5attribut@ 00423854     pjnath-i386-win32-vc8-release:errno.obj
 0002:00000890       ??_C@_0EA@EDMJLPFH@No?5host?5candidate?5associated?5wit@ 00423890     pjnath-i386-win32-vc8-release:errno.obj
 0002:000008d0       ??_C@_0EK@PIKHJBD@Controlled?5agent?5timed?5out?5waiti@ 004238d0     pjnath-i386-win32-vc8-release:errno.obj
 0002:0000091c       ??_C@_0DB@PGNALPFC@Invalid?1unsupported?5transport?5?$CIP@ 0042391c     pjnath-i386-win32-vc8-release:errno.obj
 0002:00000950       ??_C@_0BI@EOEFPHGO@Unknown?5pjnath?5error?5?$CFd?$AA@ 00423950     pjnath-i386-win32-vc8-release:errno.obj
 0002:00000968       ??_C@_0BJ@CCAJIKCJ@Unknown?5STUN?5err?9code?5?$CFd?$AA@ 00423968     pjnath-i386-win32-vc8-release:errno.obj
 0002:00000984       ??_C@_06DJHOIPC@?$CFs?3?5?$CFs?$AA@ 00423984     pjnath-i386-win32-vc8-release:errno.obj
 0002:0000098c       ??_C@_04OODOLJMA@host?$AA@ 0042398c     pjnath-i386-win32-vc8-release:ice_session.obj
 0002:00000994       ??_C@_05PIPPPLPJ@srflx?$AA@ 00423994     pjnath-i386-win32-vc8-release:ice_session.obj
 0002:0000099c       ??_C@_05HOGLIJFH@prflx?$AA@ 0042399c     pjnath-i386-win32-vc8-release:ice_session.obj
 0002:000009a4       ??_C@_05JPBNCBLI@relay?$AA@ 004239a4     pjnath-i386-win32-vc8-release:ice_session.obj
 0002:000009ac       ??_C@_06KJCACDIO@Frozen?$AA@ 004239ac     pjnath-i386-win32-vc8-release:ice_session.obj
 0002:000009b4       ??_C@_07OFINCGEG@Waiting?$AA@ 004239b4     pjnath-i386-win32-vc8-release:ice_session.obj
 0002:000009bc       ??_C@_0M@ENHIJGMI@In?5Progress?$AA@ 004239bc     pjnath-i386-win32-vc8-release:ice_session.obj
 0002:000009c8       ??_C@_09OCHKHMJA@Succeeded?$AA@ 004239c8     pjnath-i386-win32-vc8-release:ice_session.obj
 0002:000009d4       ??_C@_06CMLPEGNC@Failed?$AA@ 004239d4     pjnath-i386-win32-vc8-release:ice_session.obj
 0002:000009dc       ??_C@_04IBDNPPCI@Idle?$AA@ 004239dc     pjnath-i386-win32-vc8-release:ice_session.obj
 0002:000009e4       ??_C@_07JKJCPGE@Running?$AA@ 004239e4     pjnath-i386-win32-vc8-release:ice_session.obj
 0002:000009ec       ??_C@_09MIJAKHKB@Completed?$AA@ 004239ec     pjnath-i386-win32-vc8-release:ice_session.obj
 0002:000009f8       ??_C@_07NBCGADJA@Unknown?$AA@ 004239f8     pjnath-i386-win32-vc8-release:ice_session.obj
 0002:00000a00       ??_C@_0L@KHGPKCEO@Controlled?$AA@ 00423a00     pjnath-i386-win32-vc8-release:ice_session.obj
 0002:00000a0c       ??_C@_0M@PMDOMEDL@Controlling?$AA@ 00423a0c     pjnath-i386-win32-vc8-release:ice_session.obj
 0002:00000a18       ??_C@_03BBKEAIF@?$DP?$DP?$DP?$AA@ 00423a18     pjnath-i386-win32-vc8-release:ice_session.obj
 0002:00000a1c       ??_C@_04MAAPIHIO@?$CFc?$CFx?$AA@ 00423a1c     pjnath-i386-win32-vc8-release:ice_session.obj
 0002:00000a24       ??_C@_07GBFPDLAH@icess?$CFp?$AA@ 00423a24     pjnath-i386-win32-vc8-release:ice_session.obj
 0002:00000a2c       ??_C@_0DD@KKPCGINH@ICE?5session?5created?0?5comp_cnt?$DN?$CFd@ 00423a2c     pjnath-i386-win32-vc8-release:ice_session.obj
 0002:00000a60       ??_C@_0L@EPMNHNJ@aggressive?$AA@ 00423a60     pjnath-i386-win32-vc8-release:ice_session.obj
 0002:00000a6c       ??_C@_07KMAJHHLM@regular?$AA@ 00423a6c     pjnath-i386-win32-vc8-release:ice_session.obj
 0002:00000a74       ??_C@_0BO@JMOAKFOG@ICE?5nomination?5type?5set?5to?5?$CFs?$AA@ 00423a74     pjnath-i386-win32-vc8-release:ice_session.obj
 0002:00000a94       ??_C@_0BJ@NIGKKAOP@ICE?5session?5?$CFp?5destroyed?$AA@ 00423a94     pjnath-i386-win32-vc8-release:ice_session.obj
 0002:00000ab0       ??_C@_0O@IDPHLJDO@ice_session?4c?$AA@ 00423ab0     pjnath-i386-win32-vc8-release:ice_session.obj
 0002:00000ac0       ??_C@_0BK@DCHLELMI@Destroying?5ICE?5session?5?$CFp?$AA@ 00423ac0     pjnath-i386-win32-vc8-release:ice_session.obj
 0002:00000adc       ??_C@_0BD@IJCAAGMH@Role?5changed?5to?5?$CFs?$AA@ 00423adc     pjnath-i386-win32-vc8-release:ice_session.obj
 0002:00000af0       ??_C@_0GB@IJEEDFAM@Candidate?5?$CFd?5added?3?5comp_id?$DN?$CFd?0?5@ 00423af0     pjnath-i386-win32-vc8-release:ice_session.obj
 0002:00000b54       ??_C@_0BM@OBJDMFGB@?4?4?2src?2pjnath?2ice_session?4c?$AA@ 00423b54     pjnath-i386-win32-vc8-release:ice_session.obj
 0002:00000b70       ??_C@_0BH@DGBKCPGB@?$CFd?3?5?$FL?$CFd?$FN?5?$CFs?3?$CFd?9?9?$DO?$CFs?3?$CFd?$AA@ 00423b70     pjnath-i386-win32-vc8-release:ice_session.obj
 0002:00000b88       ??_C@_02DKCKIIND@?$CFs?$AA@ 00423b88     pjnath-i386-win32-vc8-release:ice_session.obj
 0002:00000b8c       ??_C@_09DIDNPBBH@nominated?$AA@ 00423b8c     pjnath-i386-win32-vc8-release:ice_session.obj
 0002:00000b98       ??_C@_0O@MFBJAADI@not?5nominated?$AA@ 00423b98     pjnath-i386-win32-vc8-release:ice_session.obj
 0002:00000ba8       ??_C@_0BD@DIAOJGPO@?5?$CFs?5?$CI?$CFs?0?5state?$DN?$CFs?$CJ?$AA@ 00423ba8     pjnath-i386-win32-vc8-release:ice_session.obj
 0002:00000bbc       ??_C@_0CG@OPDLDKOC@Check?5?$CFs?3?5state?5changed?5from?5?$CFs?5@ 00423bbc     pjnath-i386-win32-vc8-release:ice_session.obj
 0002:00000be4       ??_C@_0CH@OMPOKJDI@Checklist?3?5state?5changed?5from?5?$CFs@ 00423be4     pjnath-i386-win32-vc8-release:ice_session.obj
 0002:00000c0c       ??_C@_0DG@GJLGANE@Base?5candidate?5?$CFs?3?$CFd?5not?5found?5f@ 00423c0c     pjnath-i386-win32-vc8-release:ice_session.obj
 0002:00000c44       ??_C@_0BA@NHCOBJOF@duplicate?5found?$AA@ 00423c44     pjnath-i386-win32-vc8-release:ice_session.obj
 0002:00000c54       ??_C@_0L@GPOKGCHH@equal?5base?$AA@ 00423c54     pjnath-i386-win32-vc8-release:ice_session.obj
 0002:00000c60       ??_C@_0BF@GMFHLHC@Check?5?$CFs?5pruned?5?$CI?$CFs?$CJ?$AA@ 00423c60     pjnath-i386-win32-vc8-release:ice_session.obj
 0002:00000c78       ??_C@_0HF@MCFKOKNI@Controlled?5agent?5timed?9out?5in?5wa@ 00423c78     pjnath-i386-win32-vc8-release:ice_session.obj
 0002:00000cf0       ??_C@_0CA@JLAONEAB@ICE?5process?5complete?0?5status?$DN?$CFs?$AA@ 00423cf0     pjnath-i386-win32-vc8-release:ice_session.obj
 0002:00000d10       ??_C@_0L@DAPINKOE@Valid?5list?$AA@ 00423d10     pjnath-i386-win32-vc8-release:ice_session.obj
 0002:00000d1c       ??_C@_0BA@OAPJPHMG@?5?5and?5nominated?$AA@ 00423d1c     pjnath-i386-win32-vc8-release:ice_session.obj
 0002:00000d2c       ??_C@_00CNPNBAHC@?$AA@     00423d2c     pjnath-i386-win32-vc8-release:ice_session.obj
 0002:00000d30       ??_C@_0BJ@LDLHNMFG@Check?5?$CFd?5is?5successful?$CFs?$AA@ 00423d30     pjnath-i386-win32-vc8-release:ice_session.obj
 0002:00000d4c       ??_C@_0CK@IDKEAGPB@Check?5?$CFs?5to?5be?5failed?5because?5st@ 00423d4c     pjnath-i386-win32-vc8-release:ice_session.obj
 0002:00000d78       ??_C@_0CC@KCAFFELN@Cancelling?5check?5?$CFs?5?$CIIn?5Progress@ 00423d78     pjnath-i386-win32-vc8-release:ice_session.obj
 0002:00000da0       ??_C@_0GO@IEBBDPMP@All?5checks?5have?5completed?4?5Contr@ 00423da0     pjnath-i386-win32-vc8-release:ice_session.obj
 0002:00000e10       ??_C@_0DJ@IFENMLDG@All?5checks?5have?5completed?0?5start@ 00423e10     pjnath-i386-win32-vc8-release:ice_session.obj
 0002:00000e4c       ??_C@_0CE@MENGPKBF@Scheduling?5nominated?5check?5in?5?$CFd@ 00423e4c     pjnath-i386-win32-vc8-release:ice_session.obj
 0002:00000e70       ??_C@_01JLIPDDHJ@?3?$AA@   00423e70     pjnath-i386-win32-vc8-release:ice_session.obj
 0002:00000e74       ??_C@_0CD@DGJOKAPD@Error?3?5no?5checklist?5can?5be?5creat@ 00423e74     pjnath-i386-win32-vc8-release:ice_session.obj
 0002:00000e98       ??_C@_0BD@LGGHIMDK@Checklist?5created?3?$AA@ 00423e98     pjnath-i386-win32-vc8-release:ice_session.obj
 0002:00000eac       ??_C@_0CI@CBEMIFEA@Sending?5connectivity?5check?5for?5c@ 00423eac     pjnath-i386-win32-vc8-release:ice_session.obj
 0002:00000ed4       ??_C@_0BM@GMPCDDCD@Error?5creating?5STUN?5request?$AA@ 00423ed4     pjnath-i386-win32-vc8-release:ice_session.obj
 0002:00000ef0       ??_C@_0BL@CLDMLOKE@Error?5sending?5STUN?5request?$AA@ 00423ef0     pjnath-i386-win32-vc8-release:ice_session.obj
 0002:00000f0c       ??_C@_0CC@ODBMOPAG@Starting?5checklist?5periodic?5chec@ 00423f0c     pjnath-i386-win32-vc8-release:ice_session.obj
 0002:00000f30       ??_C@_0BL@DBPGJFIN@Starting?5nominated?5check?4?4?$AA@ 00423f30     pjnath-i386-win32-vc8-release:ice_session.obj
 0002:00000f4c       ??_C@_0BN@HMALAHNG@Periodic?5timer?5rescheduled?4?4?$AA@ 00423f4c     pjnath-i386-win32-vc8-release:ice_session.obj
 0002:00000f6c       ??_C@_0BF@CANPHDIJ@Starting?5ICE?5check?4?4?$AA@ 00423f6c     pjnath-i386-win32-vc8-release:ice_session.obj
 0002:00000f84       ??_C@_0DF@JOCPCLFF@Performing?5delayed?5triggerred?5ch@ 00423f84     pjnath-i386-win32-vc8-release:ice_session.obj
 0002:00000fbc       ??_C@_0DA@NHEGFEJN@Changing?5role?5because?5of?5role?5co@ 00423fbc     pjnath-i386-win32-vc8-release:ice_session.obj
 0002:00000fec       ??_C@_0CJ@FEOOAKNC@Resending?5check?5because?5of?5role?5@ 00423fec     pjnath-i386-win32-vc8-release:ice_session.obj
 0002:00001018       ??_C@_0N@OBNDGEA@?5?$CInominated?$CJ?$AA@ 00424018     pjnath-i386-win32-vc8-release:ice_session.obj
 0002:00001028       ??_C@_0BB@DIDCBKOH@?5?$CInot?5nominated?$CJ?$AA@ 00424028     pjnath-i386-win32-vc8-release:ice_session.obj
 0002:0000103c       ??_C@_0CK@BOFLBEFI@Check?5?$CFs?$CFs?3?5connectivity?5check?5F@ 0042403c     pjnath-i386-win32-vc8-release:ice_session.obj
 0002:00001068       ??_C@_0DP@OFIEDDAK@Check?5?$CFs?$CFs?3?5connectivity?5check?5F@ 00424068     pjnath-i386-win32-vc8-release:ice_session.obj
 0002:000010a8       ??_C@_0CH@JOLLOJFL@Check?5?$CFs?$CFs?3?5connectivity?5check?5S@ 004240a8     pjnath-i386-win32-vc8-release:ice_session.obj
 0002:000010d0       ??_C@_0CK@NAJKGKCD@Received?5Binding?5request?5with?5no@ 004240d0     pjnath-i386-win32-vc8-release:ice_session.obj
 0002:000010fc       ??_C@_0DD@JKHICBKM@Changing?5role?5because?5of?5ICE?9CON@ 004240fc     pjnath-i386-win32-vc8-release:ice_session.obj
 0002:00001130       ??_C@_0DC@IGMDOGKF@Changing?5role?5because?5of?5ICE?9CON@ 00424130     pjnath-i386-win32-vc8-release:ice_session.obj
 0002:00001164       ??_C@_0CE@LGFHCNGF@Received?5an?5early?5check?5for?5comp@ 00424164     pjnath-i386-win32-vc8-release:ice_session.obj
 0002:00001188       ??_C@_0EN@NFGIOGKB@Unable?5to?5add?5new?5peer?5reflexive@ 00424188     pjnath-i386-win32-vc8-release:ice_session.obj
 0002:000011d8       ??_C@_03NBEPHFMB@f?$CFp?$AA@ 004241d8     pjnath-i386-win32-vc8-release:ice_session.obj
 0002:000011dc       ??_C@_0DD@IOBOGPOP@Added?5new?5remote?5candidate?5from?5@ 004241dc     pjnath-i386-win32-vc8-release:ice_session.obj
 0002:00001210       ??_C@_0DK@KKNMECMB@Received?5Binding?5request?5but?5no?5@ 00424210     pjnath-i386-win32-vc8-release:ice_session.obj
 0002:0000124c       ??_C@_0CI@DFOHDENB@Performing?5triggered?5check?5for?5c@ 0042424c     pjnath-i386-win32-vc8-release:ice_session.obj
 0002:00001278       ??_C@_0FE@BCMFBGFD@Triggered?5check?5for?5check?5?$CFd?5not@ 00424278     pjnath-i386-win32-vc8-release:ice_session.obj
 0002:000012cc       ??_C@_0BM@HDNBBGIH@Valid?5check?5?$CFs?5is?5nominated?$AA@ 004242cc     pjnath-i386-win32-vc8-release:ice_session.obj
 0002:000012e8       ??_C@_0EC@JKBLMNIB@Triggered?5check?5for?5check?5?$CFd?5not@ 004242e8     pjnath-i386-win32-vc8-release:ice_session.obj
 0002:0000132c       ??_C@_0BO@DPPPLJDK@New?5triggered?5check?5added?3?5?$CFd?$AA@ 0042432c     pjnath-i386-win32-vc8-release:ice_session.obj
 0002:00001350       ??_C@_0EI@JIILLOPC@Error?3?5unable?5to?5perform?5trigger@ 00424350     pjnath-i386-win32-vc8-release:ice_session.obj
 0002:00001398       ??_C@_0DI@JIMHBCHH@Received?5Binding?5Indication?5keep@ 00424398     pjnath-i386-win32-vc8-release:ice_session.obj
 0002:000013d0       ??_C@_0DD@IMPDJCAJ@Received?5unexpected?5?$CFs?5indicatio@ 004243d0     pjnath-i386-win32-vc8-release:ice_session.obj
 0002:00001404       ??_C@_0CG@KPNLGOEI@Error?5processing?5incoming?5messag@ 00424404     pjnath-i386-win32-vc8-release:ice_session.obj
 0002:0000142c       ??_C@_0N@BBCJOHEH@pjnath?92?44?40?$AA@ 0042442c     pjnath-i386-win32-vc8-release:ice_strans.obj
 0002:0000143c       ??_C@_0DF@CIPNJFGO@Comp?5?$CFd?3?5TURN?5relay?5candidate?5wa@ 0042443c     pjnath-i386-win32-vc8-release:ice_strans.obj
 0002:00001474       ??_C@_0DC@EAAOOGLA@Comp?5?$CFd?3?5srflx?5candidate?5starts?5@ 00424474     pjnath-i386-win32-vc8-release:ice_strans.obj
 0002:000014a8       ??_C@_0BJ@LFHFOBFN@Too?5many?5host?5candidates?$AA@ 004244a8     pjnath-i386-win32-vc8-release:ice_strans.obj
 0002:000014c4       ??_C@_0CB@EJIHLMEB@Comp?5?$CFd?3?5host?5candidate?5?$CFs?5added@ 004244c4     pjnath-i386-win32-vc8-release:ice_strans.obj
 0002:000014e8       ??_C@_0CP@GPJMBGAL@Error?3?5no?5candidate?5is?5created?5d@ 004244e8     pjnath-i386-win32-vc8-release:ice_strans.obj
 0002:00001518       ??_C@_05KCBFPHJP@ice?$CFp?$AA@ 00424518     pjnath-i386-win32-vc8-release:ice_strans.obj
 0002:00001520       ??_C@_0DD@LJLKBBFC@Creating?5ICE?5stream?5transport?5wi@ 00424520     pjnath-i386-win32-vc8-release:ice_strans.obj
 0002:00001554       ??_C@_0CA@KNBBGDK@ICE?5stream?5transport?5?$CFp?5created?$AA@ 00424554     pjnath-i386-win32-vc8-release:ice_strans.obj
 0002:00001574       ??_C@_0CC@FCFANGL@ICE?5stream?5transport?5?$CFp?5destroye@ 00424574     pjnath-i386-win32-vc8-release:ice_strans.obj
 0002:00001598       ??_C@_0CK@NOEHJEI@ICE?5stream?5transport?5?$CFp?5destroy?5@ 00424598     pjnath-i386-win32-vc8-release:ice_strans.obj
 0002:000015c4       ??_C@_04KHKKIIL@Null?$AA@  004245c4     pjnath-i386-win32-vc8-release:ice_strans.obj
 0002:000015cc       ??_C@_0DD@JOLHDHPM@Disabling?5STUN?5Indication?5loggin@ 004245cc     pjnath-i386-win32-vc8-release:ice_strans.obj
 0002:00001600       ??_C@_0CP@CHEOAPPB@Candidate?5?$CFd?5of?5comp?5?$CFd?5is?5not?5a@ 00424600     pjnath-i386-win32-vc8-release:ice_strans.obj
 0002:00001630       ??_C@_0CK@LCFANGGA@ICE?5negotiation?5failed?5after?5?$CFds@ 00424630     pjnath-i386-win32-vc8-release:ice_strans.obj
 0002:0000165c       ??_C@_0CH@GEFHJMPI@ICE?5negotiation?5success?5after?5?$CFd@ 0042465c     pjnath-i386-win32-vc8-release:ice_strans.obj
 0002:00001684       ??_C@_0DK@IIBHLCAE@?5Comp?5?$CFd?3?5sending?5from?5?$CFs?5candid@ 00424684     pjnath-i386-win32-vc8-release:ice_strans.obj
 0002:000016c0       ??_C@_0BC@ILKKJNJH@Comp?5?$CFd?3?5disabled?$AA@ 004246c0     pjnath-i386-win32-vc8-release:ice_strans.obj
 0002:000016d4       ??_C@_0BI@EMKNIBJL@Error?5processing?5packet?$AA@ 004246d4     pjnath-i386-win32-vc8-release:ice_strans.obj
 0002:000016ec       ??_C@_0BG@NAGHLBFP@DNS?5resolution?5failed?$AA@ 004246ec     pjnath-i386-win32-vc8-release:ice_strans.obj
 0002:00001704       ??_C@_0CC@LLEALLMJ@STUN?5error?5is?5ignored?5for?5comp?5?$CF@ 00424704     pjnath-i386-win32-vc8-release:ice_strans.obj
 0002:00001728       ??_C@_0BL@KCEPHCAP@Binding?5discovery?5complete?$AA@ 00424728     pjnath-i386-win32-vc8-release:ice_strans.obj
 0002:00001744       ??_C@_0BG@CLJODCON@srflx?5address?5changed?$AA@ 00424744     pjnath-i386-win32-vc8-release:ice_strans.obj
 0002:0000175c       ??_C@_0CB@EOKDDPG@Comp?5?$CFd?3?5?$CFs?0?5srflx?5address?5is?5?$CFs@ 0042475c     pjnath-i386-win32-vc8-release:ice_strans.obj
 0002:00001780       ??_C@_0BM@HLNKFBEB@STUN?5binding?5request?5failed?$AA@ 00424780     pjnath-i386-win32-vc8-release:ice_strans.obj
 0002:0000179c       ??_C@_0BH@BKNFMGGB@STUN?5keep?9alive?5failed?$AA@ 0042479c     pjnath-i386-win32-vc8-release:ice_strans.obj
 0002:000017b4       ??_C@_0BG@CBGPLLEH@STUN?5error?5is?5ignored?$AA@ 004247b4     pjnath-i386-win32-vc8-release:ice_strans.obj
 0002:000017cc       ??_C@_0CI@EBNNOHOL@Error?5processing?5packet?5from?5TUR@ 004247cc     pjnath-i386-win32-vc8-release:ice_strans.obj
 0002:000017f4       ??_C@_0CE@BCKJCNOE@TURN?5client?5state?5changed?5?$CFs?5?9?9?$DO@ 004247f4     pjnath-i386-win32-vc8-release:ice_strans.obj
 0002:00001818       ??_C@_0DH@LCNGOHEF@Comp?5?$CFd?3?5TURN?5allocation?5complet@ 00424818     pjnath-i386-win32-vc8-release:ice_strans.obj
 0002:00001850       ??_C@_0BH@HFNJKCIF@TURN?5allocation?5failed?$AA@ 00424850     pjnath-i386-win32-vc8-release:ice_strans.obj
 0002:00001868       ??_C@_0BE@PCPMPFDB@TURN?5refresh?5failed?$AA@ 00424868     pjnath-i386-win32-vc8-release:ice_strans.obj
 0002:0000187c       ??_C@_0CK@OJBHIAD@Comp?5?$CFd?3?5TURN?5allocation?5failed?0@ 0042487c     pjnath-i386-win32-vc8-release:ice_strans.obj
 0002:000018a8       ??_C@_0P@GEKBIIKJ@MAPPED?9ADDRESS?$AA@ 004248a8     pjnath-i386-win32-vc8-release:stun_msg.obj
 0002:000018b8       ??_C@_0BB@DNOCEPMK@RESPONSE?9ADDRESS?$AA@ 004248b8     pjnath-i386-win32-vc8-release:stun_msg.obj
 0002:000018cc       ??_C@_0P@OGKLBIFN@CHANGE?9REQUEST?$AA@ 004248cc     pjnath-i386-win32-vc8-release:stun_msg.obj
 0002:000018dc       ??_C@_0P@PAEINGOC@SOURCE?9ADDRESS?$AA@ 004248dc     pjnath-i386-win32-vc8-release:stun_msg.obj
 0002:000018ec       ??_C@_0BA@FNJJJCIB@CHANGED?9ADDRESS?$AA@ 004248ec     pjnath-i386-win32-vc8-release:stun_msg.obj
 0002:000018fc       ??_C@_08JMMIJEMM@USERNAME?$AA@ 004248fc     pjnath-i386-win32-vc8-release:stun_msg.obj
 0002:00001908       ??_C@_08KENNMKEI@PASSWORD?$AA@ 00424908     pjnath-i386-win32-vc8-release:stun_msg.obj
 0002:00001914       ??_C@_0BC@PKCBPFHM@MESSAGE?9INTEGRITY?$AA@ 00424914     pjnath-i386-win32-vc8-release:stun_msg.obj
 0002:00001928       ??_C@_0L@LFOAOKC@ERROR?9CODE?$AA@ 00424928     pjnath-i386-win32-vc8-release:stun_msg.obj
 0002:00001934       ??_C@_0BD@ECDLOHAN@UNKNOWN?9ATTRIBUTES?$AA@ 00424934     pjnath-i386-win32-vc8-release:stun_msg.obj
 0002:00001948       ??_C@_0P@PMKJIHCK@REFLECTED?9FROM?$AA@ 00424948     pjnath-i386-win32-vc8-release:stun_msg.obj
 0002:00001958       ??_C@_0P@LJKOLKFB@CHANNEL?9NUMBER?$AA@ 00424958     pjnath-i386-win32-vc8-release:stun_msg.obj
 0002:00001968       ??_C@_08LBAPMCHH@LIFETIME?$AA@ 00424968     pjnath-i386-win32-vc8-release:stun_msg.obj
 0002:00001974       ??_C@_0N@FGECBBIC@MAGIC?9COOKIE?$AA@ 00424974     pjnath-i386-win32-vc8-release:stun_msg.obj
 0002:00001984       ??_C@_09MAILFIJJ@BANDWIDTH?$AA@ 00424984     pjnath-i386-win32-vc8-release:stun_msg.obj
 0002:00001990       ??_C@_0BB@HOMHHBLB@XOR?9PEER?9ADDRESS?$AA@ 00424990     pjnath-i386-win32-vc8-release:stun_msg.obj
 0002:000019a4       ??_C@_04DFNBDBBL@DATA?$AA@ 004249a4     pjnath-i386-win32-vc8-release:stun_msg.obj
 0002:000019ac       ??_C@_05IAJHFKCN@REALM?$AA@ 004249ac     pjnath-i386-win32-vc8-release:stun_msg.obj
 0002:000019b4       ??_C@_05CFNFFNAP@NONCE?$AA@ 004249b4     pjnath-i386-win32-vc8-release:stun_msg.obj
 0002:000019bc       ??_C@_0BE@JEIAHFKC@XOR?9RELAYED?9ADDRESS?$AA@ 004249bc     pjnath-i386-win32-vc8-release:stun_msg.obj
 0002:000019d0       ??_C@_0BH@JFFPCBPM@REQUESTED?9ADDRESS?9TYPE?$AA@ 004249d0     pjnath-i386-win32-vc8-release:stun_msg.obj
 0002:000019e8       ??_C@_09OBFOFCPK@EVEN?9PORT?$AA@ 004249e8     pjnath-i386-win32-vc8-release:stun_msg.obj
 0002:000019f4       ??_C@_0BE@KPPPGDOH@REQUESTED?9TRANSPORT?$AA@ 004249f4     pjnath-i386-win32-vc8-release:stun_msg.obj
 0002:00001a08       ??_C@_0O@KFOKDOCG@DONT?9FRAGMENT?$AA@ 00424a08     pjnath-i386-win32-vc8-release:stun_msg.obj
 0002:00001a18       ??_C@_0BD@PCDNAJOE@XOR?9MAPPED?9ADDRESS?$AA@ 00424a18     pjnath-i386-win32-vc8-release:stun_msg.obj
 0002:00001a2c       ??_C@_09MBPFHMMM@TIMER?9VAL?$AA@ 00424a2c     pjnath-i386-win32-vc8-release:stun_msg.obj
 0002:00001a38       ??_C@_0BC@FMELOKCO@RESERVATION?9TOKEN?$AA@ 00424a38     pjnath-i386-win32-vc8-release:stun_msg.obj
 0002:00001a4c       ??_C@_0BD@GKDFAGGH@XOR?9REFLECTED?9FROM?$AA@ 00424a4c     pjnath-i386-win32-vc8-release:stun_msg.obj
 0002:00001a60       ??_C@_08PHDJDNOC@PRIORITY?$AA@ 00424a60     pjnath-i386-win32-vc8-release:stun_msg.obj
 0002:00001a6c       ??_C@_0O@KMGEPHEM@USE?9CANDIDATE?$AA@ 00424a6c     pjnath-i386-win32-vc8-release:stun_msg.obj
 0002:00001a7c       ??_C@_04CHGGIGMO@ICMP?$AA@ 00424a7c     pjnath-i386-win32-vc8-release:stun_msg.obj
 0002:00001a84       ??_C@_08FJPNCBBM@SOFTWARE?$AA@ 00424a84     pjnath-i386-win32-vc8-release:stun_msg.obj
 0002:00001a90       ??_C@_0BB@FKFJHONB@ALTERNATE?9SERVER?$AA@ 00424a90     pjnath-i386-win32-vc8-release:stun_msg.obj
 0002:00001aa4       ??_C@_0BB@KIBPCLAC@REFRESH?9INTERVAL?$AA@ 00424aa4     pjnath-i386-win32-vc8-release:stun_msg.obj
 0002:00001ab8       ??_C@_0M@BFFENKFB@FINGERPRINT?$AA@ 00424ab8     pjnath-i386-win32-vc8-release:stun_msg.obj
 0002:00001ac4       ??_C@_0P@IMKHGLCE@ICE?9CONTROLLED?$AA@ 00424ac4     pjnath-i386-win32-vc8-release:stun_msg.obj
 0002:00001ad4       ??_C@_0BA@MEPGKABG@ICE?9CONTROLLING?$AA@ 00424ad4     pjnath-i386-win32-vc8-release:stun_msg.obj
 0002:00001ae4       ??_C@_0BJ@EPKJIHOF@?4?4?2src?2pjnath?2stun_msg?4c?$AA@ 00424ae4     pjnath-i386-win32-vc8-release:stun_msg.obj
 0002:00001b00       ??_C@_0O@GHIPHHCL@Try?5Alternate?$AA@ 00424b00     pjnath-i386-win32-vc8-release:stun_msg.obj
 0002:00001b10       ??_C@_0M@LNAIDEEG@Bad?5Request?$AA@ 00424b10     pjnath-i386-win32-vc8-release:stun_msg.obj
 0002:00001b1c       ??_C@_0N@OOAPMOJA@Unauthorized?$AA@ 00424b1c     pjnath-i386-win32-vc8-release:stun_msg.obj
 0002:00001b2c       ??_C@_09LMDIMFJD@Forbidden?$AA@ 00424b2c     pjnath-i386-win32-vc8-release:stun_msg.obj
 0002:00001b38       ??_C@_0BC@BIFHINIL@Unknown?5Attribute?$AA@ 00424b38     pjnath-i386-win32-vc8-release:stun_msg.obj
 0002:00001b4c       ??_C@_0BE@MNFMNCOL@Allocation?5Mismatch?$AA@ 00424b4c     pjnath-i386-win32-vc8-release:stun_msg.obj
 0002:00001b60       ??_C@_0M@PFCCPLIL@Stale?5Nonce?$AA@ 00424b60     pjnath-i386-win32-vc8-release:stun_msg.obj
 0002:00001b6c       ??_C@_0BP@ILNIPGLA@Active?5Destination?5Already?5Set?$AA@ 00424b6c     pjnath-i386-win32-vc8-release:stun_msg.obj
 0002:00001b8c       ??_C@_0BC@EJEAELBI@Wrong?5Credentials?$AA@ 00424b8c     pjnath-i386-win32-vc8-release:stun_msg.obj
 0002:00001ba0       ??_C@_0BP@NOOBFHOJ@Unsupported?5Transport?5Protocol?$AA@ 00424ba0     pjnath-i386-win32-vc8-release:stun_msg.obj
 0002:00001bc0       ??_C@_0BH@EILGPNEK@Operation?5for?5TCP?5Only?$AA@ 00424bc0     pjnath-i386-win32-vc8-release:stun_msg.obj
 0002:00001bd8       ??_C@_0BD@JDELBKIF@Connection?5Failure?$AA@ 00424bd8     pjnath-i386-win32-vc8-release:stun_msg.obj
 0002:00001bec       ??_C@_0BD@GBIJMALN@Connection?5Timeout?$AA@ 00424bec     pjnath-i386-win32-vc8-release:stun_msg.obj
 0002:00001c00       ??_C@_0BJ@NNNDJKOH@Allocation?5Quota?5Reached?$AA@ 00424c00     pjnath-i386-win32-vc8-release:stun_msg.obj
 0002:00001c1c       ??_C@_0O@HCPKCDCE@Role?5Conflict?$AA@ 00424c1c     pjnath-i386-win32-vc8-release:stun_msg.obj
 0002:00001c2c       ??_C@_0N@NNCMFLKD@Server?5Error?$AA@ 00424c2c     pjnath-i386-win32-vc8-release:stun_msg.obj
 0002:00001c3c       ??_C@_0BG@DPJAOJGI@Insufficient?5Capacity?$AA@ 00424c3c     pjnath-i386-win32-vc8-release:stun_msg.obj
 0002:00001c54       ??_C@_0P@EIHAHPLF@Global?5Failure?$AA@ 00424c54     pjnath-i386-win32-vc8-release:stun_msg.obj
 0002:00001c64       ??_C@_07JPNMPAFE@Binding?$AA@ 00424c64     pjnath-i386-win32-vc8-release:stun_msg.obj
 0002:00001c6c       ??_C@_0N@BLMJDDLD@SharedSecret?$AA@ 00424c6c     pjnath-i386-win32-vc8-release:stun_msg.obj
 0002:00001c7c       ??_C@_08PEJFBAGK@Allocate?$AA@ 00424c7c     pjnath-i386-win32-vc8-release:stun_msg.obj
 0002:00001c88       ??_C@_07POIENIBA@Refresh?$AA@ 00424c88     pjnath-i386-win32-vc8-release:stun_msg.obj
 0002:00001c90       ??_C@_04JEOPCEB@Send?$AA@  00424c90     pjnath-i386-win32-vc8-release:stun_msg.obj
 0002:00001c98       ??_C@_04DICKPMGH@Data?$AA@ 00424c98     pjnath-i386-win32-vc8-release:stun_msg.obj
 0002:00001ca0       ??_C@_0BB@MDCHOMKH@CreatePermission?$AA@ 00424ca0     pjnath-i386-win32-vc8-release:stun_msg.obj
 0002:00001cb4       ??_C@_0M@MHFIPLFG@ChannelBind?$AA@ 00424cb4     pjnath-i386-win32-vc8-release:stun_msg.obj
 0002:00001cc0       ??_C@_07ENHGAJCI@request?$AA@ 00424cc0     pjnath-i386-win32-vc8-release:stun_msg.obj
 0002:00001cc8       ??_C@_0BB@HBDBNGAF@success?5response?$AA@ 00424cc8     pjnath-i386-win32-vc8-release:stun_msg.obj
 0002:00001cdc       ??_C@_0P@CFLDAJHA@error?5response?$AA@ 00424cdc     pjnath-i386-win32-vc8-release:stun_msg.obj
 0002:00001cec       ??_C@_0L@DFJLAHGA@indication?$AA@ 00424cec     pjnath-i386-win32-vc8-release:stun_msg.obj
 0002:00001cf8       ??_C@_0BB@BIKLJNJD@Unknown?5error?5?$CFd?$AA@ 00424cf8     pjnath-i386-win32-vc8-release:stun_msg.obj
 0002:00001d0c       ??_C@_0CA@PKFDCHMA@Attribute?5?$CFs?5has?5invalid?5length?$AA@ 00424d0c     pjnath-i386-win32-vc8-release:stun_msg.obj
 0002:00001d2c       ??_C@_0BN@MEIPDCAG@Error?5decoding?5message?3?5?$CF?4?$CKs?$AA@ 00424d2c     pjnath-i386-win32-vc8-release:stun_msg.obj
 0002:00001d4c       ??_C@_0L@HGDIOIOB@stun_msg?4c?$AA@ 00424d4c     pjnath-i386-win32-vc8-release:stun_msg.obj
 0002:00001d58       ??_C@_0CB@EJCAFHBO@Unrecognized?5attribute?5type?50x?$CFx@ 00424d58     pjnath-i386-win32-vc8-release:stun_msg.obj
 0002:00001d7c       ??_C@_0CN@NOBEDADA@Error?5parsing?5unknown?5STUN?5attri@ 00424d7c     pjnath-i386-win32-vc8-release:stun_msg.obj
 0002:00001dac       ??_C@_08KPKNBFOM@?$CFs?5in?5?$CFs?$AA@ 00424dac     pjnath-i386-win32-vc8-release:stun_msg.obj
 0002:00001db8       ??_C@_0CE@BALGLPMJ@Error?5parsing?5STUN?5attribute?5?$CFs?3@ 00424db8     pjnath-i386-win32-vc8-release:stun_msg.obj
 0002:00001ddc       ??_C@_0DI@JPGFNJCF@Error?5decoding?5STUN?5message?3?5unp@ 00424ddc     pjnath-i386-win32-vc8-release:stun_msg.obj
 0002:00001e14       ??_C@_0BO@LNINENHO@STUN?5transaction?5?$CFp?5destroyed?$AA@ 00424e14     pjnath-i386-win32-vc8-release:stun_session.obj
 0002:00001e34       ??_C@_0P@CGIGOCPF@stun_session?4c?$AA@ 00424e34     pjnath-i386-win32-vc8-release:stun_session.obj
 0002:00001e44       ??_C@_0DA@OLGIGBLA@Invalid?5error?5response?3?5no?5ERROR@ 00424e44     pjnath-i386-win32-vc8-release:stun_session.obj
 0002:00001e74       ??_C@_0CA@PEBIKAPE@Invalid?5response?3?5missing?5NONCE?$AA@ 00424e74     pjnath-i386-win32-vc8-release:stun_session.obj
 0002:00001e94       ??_C@_0DA@BDDOAEGJ@Error?3?5authentication?5failed?5?$CIto@ 00424e94     pjnath-i386-win32-vc8-release:stun_session.obj
 0002:00001ec4       ??_C@_0CJ@KADJMJLL@Retrying?5request?5with?5new?5authen@ 00424ec4     pjnath-i386-win32-vc8-release:stun_session.obj
 0002:00001ef0       ??_C@_07JAOHCAGB@tdata?$CFp?$AA@ 00424ef0     pjnath-i386-win32-vc8-release:stun_session.obj
 0002:00001ef8       ??_C@_0CL@LHCKJAMH@tdata?5?$CFp?5destroy?5request?0?5force?$DN@ 00424ef8     pjnath-i386-win32-vc8-release:stun_session.obj
 0002:00001f24       ??_C@_0BH@PABIBIKA@Response?5cache?5deleted?$AA@ 00424f24     pjnath-i386-win32-vc8-release:stun_session.obj
 0002:00001f3c       ??_C@_07FIPJLOHM@stuse?$CFp?$AA@ 00424f3c     pjnath-i386-win32-vc8-release:stun_session.obj
 0002:00001f44       ??_C@_0BK@JBLGPIKL@STUN?5session?5?$CFp?5destroyed?$AA@ 00424f44     pjnath-i386-win32-vc8-release:stun_session.obj
 0002:00001f60       ??_C@_0CM@JIONEFOG@STUN?5session?5?$CFp?5destroy?5request?0@ 00424f60     pjnath-i386-win32-vc8-release:stun_session.obj
 0002:00001f90       ??_C@_0FK@JNLLNEHG@TX?5?$CFd?5bytes?5STUN?5message?5to?5?$CFs?3?6@ 00424f90     pjnath-i386-win32-vc8-release:stun_session.obj
 0002:00001fec       ??_C@_0BH@GMONKHHK@Error?5applying?5options?$AA@ 00424fec     pjnath-i386-win32-vc8-release:stun_session.obj
 0002:00002004       ??_C@_0BE@BKOHKPAP@STUN?5encode?$CI?$CJ?5error?$AA@ 00425004     pjnath-i386-win32-vc8-release:stun_session.obj
 0002:00002018       ??_C@_0CA@GAILMMNA@Error?5scheduling?5response?5timer?$AA@ 00425018     pjnath-i386-win32-vc8-release:stun_session.obj
 0002:00002038       ??_C@_0BH@LABFKMCN@Error?5encoding?5message?$AA@ 00425038     pjnath-i386-win32-vc8-release:stun_session.obj
 0002:00002050       ??_C@_0BO@JCKJAKFG@Message?5authentication?5failed?$AA@ 00425050     pjnath-i386-win32-vc8-release:stun_session.obj
 0002:00002070       ??_C@_0DD@DLOOKGHN@Transaction?5not?5found?0?5response?5@ 00425070     pjnath-i386-win32-vc8-release:stun_session.obj
 0002:000020a4       ??_C@_0BP@BICDONAI@Response?5authentication?5failed?$AA@ 004250a4     pjnath-i386-win32-vc8-release:stun_session.obj
 0002:000020c4       ??_C@_0DA@BPOGJFCM@Request?5retransmission?0?5sending?5@ 004250c4     pjnath-i386-win32-vc8-release:stun_session.obj
 0002:000020f4       ??_C@_0CG@NKAIJIBK@Callback?5is?5not?5set?5to?5handle?5re@ 004250f4     pjnath-i386-win32-vc8-release:stun_session.obj
 0002:00002120       ??_C@_0FM@GJHDBECG@RX?5?$CFd?5bytes?5STUN?5message?5from?5?$CFs@ 00425120     pjnath-i386-win32-vc8-release:stun_session.obj
 0002:0000217c       ??_C@_0BI@IMCOHDGP@STUN?5msg_decode?$CI?$CJ?5error?$AA@ 0042517c     pjnath-i386-win32-vc8-release:stun_session.obj
 0002:00002194       ??_C@_06NEPPJNNA@pjstun?$AA@ 00425194     pjnath-i386-win32-vc8-release:stun_auth.obj
 0002:0000219c       ??_C@_0BB@OHHEPNOA@Missing?5USERNAME?$AA@ 0042519c     pjnath-i386-win32-vc8-release:stun_auth.obj
 0002:000021b0       ??_C@_0O@HBPFHBB@Missing?5REALM?$AA@ 004251b0     pjnath-i386-win32-vc8-release:stun_auth.obj
 0002:000021c0       ??_C@_0O@KCFNFADD@Missing?5NONCE?$AA@ 004251c0     pjnath-i386-win32-vc8-release:stun_auth.obj
 0002:000021d0       ??_C@_0O@BDOHFCG@Invalid?5REALM?$AA@ 004251d0     pjnath-i386-win32-vc8-release:stun_auth.obj
 0002:000021e0       ??_C@_0P@LNGKEKFD@NONCE?5required?$AA@ 004251e0     pjnath-i386-win32-vc8-release:stun_auth.obj
 0002:000021f0       ??_C@_0BL@JPFKNHNJ@MESSAGE?9INTEGRITY?5mismatch?$AA@ 004251f0     pjnath-i386-win32-vc8-release:stun_auth.obj
 0002:0000220c       ??_C@_0DI@COAMBLMC@STUN?5error?5code?5attribute?5not?5pr@ 0042520c     pjnath-i386-win32-vc8-release:stun_auth.obj
 0002:00002244       ??_C@_0M@GJCPKPCL@stun_auth?4c?$AA@ 00425244     pjnath-i386-win32-vc8-release:stun_auth.obj
 0002:00002250       ??_C@_01OGPIMHDM@?$DP?$AA@ 00425250     pjnath-i386-win32-vc8-release:stun_sock.obj
 0002:00002254       ??_C@_0P@PKONCHGA@DNS?5resolution?$AA@ 00425254     pjnath-i386-win32-vc8-release:stun_sock.obj
 0002:00002264       ??_C@_0BF@MJFGLJKM@STUN?5Binding?5request?$AA@ 00425264     pjnath-i386-win32-vc8-release:stun_sock.obj
 0002:0000227c       ??_C@_0L@NDKDGHJB@Keep?9alive?$AA@ 0042527c     pjnath-i386-win32-vc8-release:stun_sock.obj
 0002:00002288       ??_C@_0BF@JAPMEICG@Mapped?5addr?4?5changed?$AA@ 00425288     pjnath-i386-win32-vc8-release:stun_sock.obj
 0002:000022a0       ??_C@_08CLIABOD@stuntp?$CFp?$AA@ 004252a0     pjnath-i386-win32-vc8-release:stun_sock.obj
 0002:000022ac       ??_C@_0BJ@IKNAHNEF@Failed?5setting?5SO_RCVBUF?$AA@ 004252ac     pjnath-i386-win32-vc8-release:stun_sock.obj
 0002:000022c8       ??_C@_0ED@NGMNPHPO@Warning?$CB?5Cannot?5set?5SO_RCVBUF?5as@ 004252c8     pjnath-i386-win32-vc8-release:stun_sock.obj
 0002:0000230c       ??_C@_0BE@MGOMJCFJ@SO_RCVBUF?5set?5to?5?$CFd?$AA@ 0042530c     pjnath-i386-win32-vc8-release:stun_sock.obj
 0002:00002320       ??_C@_0BJ@IKBJKBMN@Failed?5setting?5SO_SNDBUF?$AA@ 00425320     pjnath-i386-win32-vc8-release:stun_sock.obj
 0002:00002340       ??_C@_0ED@KDPADPCC@Warning?$CB?5Cannot?5set?5SO_SNDBUF?5as@ 00425340     pjnath-i386-win32-vc8-release:stun_sock.obj
 0002:00002384       ??_C@_0BE@KEOEDFJN@SO_SNDBUF?5set?5to?5?$CFd?$AA@ 00425384     pjnath-i386-win32-vc8-release:stun_sock.obj
 0002:00002398       ??_C@_0M@JFCIEPJK@_stun?4_udp?4?$AA@ 00425398     pjnath-i386-win32-vc8-release:stun_sock.obj
 0002:000023a4       ??_C@_0BH@NDKDLNCH@STUN?5sock?5?$CFp?5destroyed?$AA@ 004253a4     pjnath-i386-win32-vc8-release:stun_sock.obj
 0002:000023bc       ??_C@_0CB@GDEBIOPI@STUN?5sock?5?$CFp?5request?0?5ref_cnt?$DN?$CFd@ 004253bc     pjnath-i386-win32-vc8-release:stun_sock.obj
 0002:000023e0       ??_C@_0CB@JDFEACAK@Session?5failed?5because?5?$CFs?5failed@ 004253e0     pjnath-i386-win32-vc8-release:stun_sock.obj
 0002:00002404       ??_C@_0CG@ICFEMBNI@STUN?5mapped?5address?5found?1change@ 00425404     pjnath-i386-win32-vc8-release:stun_sock.obj
 0002:0000242c       ??_C@_0BB@FBAOJCLK@recvfrom?$CI?$CJ?5error?$AA@ 0042542c     pjnath-i386-win32-vc8-release:stun_sock.obj
 0002:00002440       ??_C@_09MPDONGOF@Resolving?$AA@ 00425440     pjnath-i386-win32-vc8-release:turn_session.obj
 0002:0000244c       ??_C@_08KEGAJJCD@Resolved?$AA@ 0042544c     pjnath-i386-win32-vc8-release:turn_session.obj
 0002:00002458       ??_C@_0L@KAIGMDCO@Allocating?$AA@ 00425458     pjnath-i386-win32-vc8-release:turn_session.obj
 0002:00002464       ??_C@_05GMBADOLI@Ready?$AA@ 00425464     pjnath-i386-win32-vc8-release:turn_session.obj
 0002:0000246c       ??_C@_0N@IPCMFLLC@Deallocating?$AA@ 0042546c     pjnath-i386-win32-vc8-release:turn_session.obj
 0002:0000247c       ??_C@_0M@GJOGKIMJ@Deallocated?$AA@ 0042547c     pjnath-i386-win32-vc8-release:turn_session.obj
 0002:00002488       ??_C@_0L@HMFPNGMA@Destroying?$AA@ 00425488     pjnath-i386-win32-vc8-release:turn_session.obj
 0002:00002494       ??_C@_06GIAJIGKJ@turn?$CFp?$AA@ 00425494     pjnath-i386-win32-vc8-release:turn_session.obj
 0002:0000249c       ??_C@_0BM@MCGIKOOB@TURN?5client?5session?5created?$AA@ 0042549c     pjnath-i386-win32-vc8-release:turn_session.obj
 0002:000024b8       ??_C@_0BO@KCFDOCLI@TURN?5client?5session?5destroyed?$AA@ 004254b8     pjnath-i386-win32-vc8-release:turn_session.obj
 0002:000024d8       ??_C@_0CJ@MIOAHLBB@TURN?5session?5destroy?5request?0?5re@ 004254d8     pjnath-i386-win32-vc8-release:turn_session.obj
 0002:00002504       ??_C@_0BI@OJEKBCAD@State?5changed?5?$CFs?5?9?9?$DO?5?$CFs?$AA@ 00425504     pjnath-i386-win32-vc8-release:turn_session.obj
 0002:0000251c       ??_C@_0CK@GBKDHDJJ@Request?5to?5shutdown?5in?5state?5?$CFs?0@ 0042551c     pjnath-i386-win32-vc8-release:turn_session.obj
 0002:00002548       ??_C@_0M@DHLAFMOO@_turn?4_udp?4?$AA@ 00425548     pjnath-i386-win32-vc8-release:turn_session.obj
 0002:00002554       ??_C@_0M@JHAHENOH@_turn?4_tcp?4?$AA@ 00425554     pjnath-i386-win32-vc8-release:turn_session.obj
 0002:00002560       ??_C@_0N@CKOHABJO@_turns?4_tcp?4?$AA@ 00425560     pjnath-i386-win32-vc8-release:turn_session.obj
 0002:00002570       ??_C@_0CA@GCBCKDAP@Resolving?5?$CF?4?$CKs?$CF?4?$CKs?5with?5DNS?5SRV?$AA@ 00425570     pjnath-i386-win32-vc8-release:turn_session.obj
 0002:00002590       ??_C@_0BK@GBHOJIBD@Resolving?5?$CF?4?$CKs?5with?5DNS?5A?$AA@ 00425590     pjnath-i386-win32-vc8-release:turn_session.obj
 0002:000025ac       ??_C@_0BN@GHHBPIAE@Pending?5ALLOCATE?5in?5state?5?$CFs?$AA@ 004255ac     pjnath-i386-win32-vc8-release:turn_session.obj
 0002:000025cc       ??_C@_0DJ@NGALODIG@sendto?$CI?$CJ?3?5IP?5?$CFs?5has?5no?5permissio@ 004255cc     pjnath-i386-win32-vc8-release:turn_session.obj
 0002:00002608       ??_C@_0P@EMAJLCCB@?$CFs?5error?3?5?$CF?4?$CKs?$AA@ 00425608     pjnath-i386-win32-vc8-release:turn_session.obj
 0002:00002618       ??_C@_0BD@NPFDGG@Trying?5next?5server?$AA@ 00425618     pjnath-i386-win32-vc8-release:turn_session.obj
 0002:0000262c       ??_C@_0CC@DOOIIJFF@Error?3?5Missing?5LIFETIME?5attribut@ 0042562c     pjnath-i386-win32-vc8-release:turn_session.obj
 0002:00002650       ??_C@_0BK@HEDPBGEL@Error?3?5LIFETIME?5too?5small?$AA@ 00425650     pjnath-i386-win32-vc8-release:turn_session.obj
 0002:0000266c       ??_C@_0DJ@HBKMNMDK@Error?3?5Received?5ALLOCATE?5without@ 0042566c     pjnath-i386-win32-vc8-release:turn_session.obj
 0002:000026a8       ??_C@_0EL@JDGKKPJC@Error?3?5RELAY?9ADDRESS?5with?5non?5IP@ 004256a8     pjnath-i386-win32-vc8-release:turn_session.obj
 0002:000026f4       ??_C@_0DF@CKGGPFDO@Error?3?5Invalid?5IP?5address?5in?5REL@ 004256f4     pjnath-i386-win32-vc8-release:turn_session.obj
 0002:0000272c       ??_C@_0DE@MENPKDPL@Error?3?5different?5RELAY?9ADDRESS?5i@ 0042572c     pjnath-i386-win32-vc8-release:turn_session.obj
 0002:00002760       ??_C@_0BM@JNBIFNNF@ChannelBind?5failed?3?5?$CFd?1?$CF?4?$CKs?$AA@ 00425760     pjnath-i386-win32-vc8-release:turn_session.obj
 0002:0000277c       ??_C@_0CL@HJFJDCCP@CreatePermission?5failed?5for?5IP?5?$CF@ 0042577c     pjnath-i386-win32-vc8-release:turn_session.obj
 0002:000027a8       ??_C@_0BM@BOHAPFE@Unexpected?5STUN?5?$CFs?5response?$AA@ 004257a8     pjnath-i386-win32-vc8-release:turn_session.obj
 0002:000027c4       ??_C@_0BO@OGPPEINL@Unexpected?5STUN?5?$CFs?5indication?$AA@ 004257c4     pjnath-i386-win32-vc8-release:turn_session.obj
 0002:000027e4       ??_C@_0DB@KLPKKIFA@Received?5Data?5indication?5with?5mi@ 004257e4     pjnath-i386-win32-vc8-release:turn_session.obj
 0002:00002818       ??_C@_0CM@DAHLFKBN@Error?5creating?5CreatePermission?5@ 00425818     pjnath-i386-win32-vc8-release:turn_session.obj
 0002:00002844       ??_C@_0CL@OKFJBHEL@Error?5sending?5CreatePermission?5r@ 00425844     pjnath-i386-win32-vc8-release:turn_session.obj
 0002:00002870       ??_C@_08GMHKPCBA@udprel?$CFp?$AA@ 00425870     pjnath-i386-win32-vc8-release:turn_sock.obj
 0002:0000287c       ??_C@_08HBMEOPEK@tcprel?$CFp?$AA@ 0042587c     pjnath-i386-win32-vc8-release:turn_sock.obj
 0002:00002888       ??_C@_0BG@JDDGONBH@TURN?5socket?5destroyed?$AA@ 00425888     pjnath-i386-win32-vc8-release:turn_sock.obj
 0002:000028a0       ??_C@_0CI@EOBOBHNB@TURN?5socket?5destroy?5request?0?5ref@ 004258a0     pjnath-i386-win32-vc8-release:turn_sock.obj
 0002:000028c8       ??_C@_0BJ@KKHDGLMO@Error?5setting?5credential?$AA@ 004258c8     pjnath-i386-win32-vc8-release:turn_sock.obj
 0002:000028e4       ??_C@_0BK@EJEIEBII@Error?5setting?5TURN?5server?$AA@ 004258e4     pjnath-i386-win32-vc8-release:turn_sock.obj
 0002:00002900       ??_C@_0BP@MLPKBJFL@TURN?5session?5already?5destroyed?$AA@ 00425900     pjnath-i386-win32-vc8-release:turn_sock.obj
 0002:00002920       ??_C@_0BE@FIBBDPPG@TCP?5connect?$CI?$CJ?5error?$AA@ 00425920     pjnath-i386-win32-vc8-release:turn_sock.obj
 0002:00002934       ??_C@_0O@CANKJNOA@TCP?5connected?$AA@ 00425934     pjnath-i386-win32-vc8-release:turn_sock.obj
 0002:00002944       ??_C@_0BH@DIOBGPMM@Error?5sending?5ALLOCATE?$AA@ 00425944     pjnath-i386-win32-vc8-release:turn_sock.obj
 0002:0000295c       ??_C@_0BG@IILKCFP@TCP?5connection?5closed?$AA@ 0042595c     pjnath-i386-win32-vc8-release:turn_sock.obj
 0002:00002974       ??_C@_0O@LLOAPKGG@socket?5send?$CI?$CJ?$AA@ 00425974     pjnath-i386-win32-vc8-release:turn_sock.obj
 0002:00002984       ??_C@_0BB@NIDAOAIN@Connecting?5to?5?$CFs?$AA@ 00425984     pjnath-i386-win32-vc8-release:turn_sock.obj
 0002:00002998       ??_C@_07LCOKDMA@?0?5data?$DN?$AA@ 00425998     pjnath-i386-win32-vc8-release:stun_msg_dump.obj
 0002:000029a0       ??_C@_04NOJCDH@?$CF02x?$AA@ 004259a0     pjnath-i386-win32-vc8-release:stun_msg_dump.obj
 0002:000029a8       ??_C@_01EEMJAFIK@?6?$AA@   004259a8     pjnath-i386-win32-vc8-release:stun_msg_dump.obj
 0002:000029ac       ??_C@_09ECMJHFJA@Attr?50x?$CFx?$AA@ 004259ac     pjnath-i386-win32-vc8-release:stun_msg_dump.obj
 0002:000029b8       ??_C@_0BA@OIDNDPHM@?5?5?$CFs?3?5length?$DN?$CFd?$AA@ 004259b8     pjnath-i386-win32-vc8-release:stun_msg_dump.obj
 0002:000029c8       ??_C@_0BD@PNODJOLL@?0?5IPv4?5addr?$DN?$CFs?3?$CFd?6?$AA@ 004259c8     pjnath-i386-win32-vc8-release:stun_msg_dump.obj
 0002:000029dc       ??_C@_0BF@JOGAAMBJ@?0?5IPv6?5addr?5present?6?$AA@ 004259dc     pjnath-i386-win32-vc8-release:stun_msg_dump.obj
 0002:000029f4       ??_C@_0BL@IOPONFCN@?0?5INVALID?5ADDRESS?5FAMILY?$CB?6?$AA@ 004259f4     pjnath-i386-win32-vc8-release:stun_msg_dump.obj
 0002:00002a10       ??_C@_0BD@LMALPKPA@?0?5chnum?$DN?$CFu?5?$CI0x?$CFx?$CJ?6?$AA@ 00425a10     pjnath-i386-win32-vc8-release:stun_msg_dump.obj
 0002:00002a24       ??_C@_0BD@HAAKODCD@?0?5value?$DN?$CFu?5?$CI0x?$CFx?$CJ?6?$AA@ 00425a24     pjnath-i386-win32-vc8-release:stun_msg_dump.obj
 0002:00002a38       ??_C@_0BA@IIGELLKF@?0?5value?$DN?$CC?$CF?4?$CKs?$CC?6?$AA@ 00425a38     pjnath-i386-win32-vc8-release:stun_msg_dump.obj
 0002:00002a48       ??_C@_0BO@PNMDMGDB@?0?5err_code?$DN?$CFd?0?5reason?$DN?$CC?$CF?4?$CKs?$CC?6?$AA@ 00425a48     pjnath-i386-win32-vc8-release:stun_msg_dump.obj
 0002:00002a68       ??_C@_0BA@LABKONBB@?0?5unknown?5list?3?$AA@ 00425a68     pjnath-i386-win32-vc8-release:stun_msg_dump.obj
 0002:00002a78       ??_C@_03EBJOKFHF@?5?$CFd?$AA@ 00425a78     pjnath-i386-win32-vc8-release:stun_msg_dump.obj
 0002:00002a7c       ??_C@_0BO@LJNOIABE@?4?4?2src?2pjnath?2stun_msg_dump?4c?$AA@ 00425a7c     pjnath-i386-win32-vc8-release:stun_msg_dump.obj
 0002:00002a9c       ??_C@_0M@FNPFMPNK@STUN?5?$CFs?5?$CFs?6?$AA@ 00425a9c     pjnath-i386-win32-vc8-release:stun_msg_dump.obj
 0002:00002aa8       ??_C@_0DP@IOLGDEEC@?5Hdr?3?5length?$DN?$CFd?0?5magic?$DN?$CF08x?0?5tsx@ 00425aa8     pjnath-i386-win32-vc8-release:stun_msg_dump.obj
 0002:00002ae8       ??_C@_06ENDAHPEL@utsx?$CFp?$AA@ 00425ae8     pjnath-i386-win32-vc8-release:stun_transaction.obj
 0002:00002af0       ??_C@_0CA@NPDAOHLC@STUN?5client?5transaction?5created?$AA@ 00425af0     pjnath-i386-win32-vc8-release:stun_transaction.obj
 0002:00002b10       ??_C@_0CF@HCBPKMBH@STUN?5transaction?5?$CFp?5schedule?5des@ 00425b10     pjnath-i386-win32-vc8-release:stun_transaction.obj
 0002:00002b38       ??_C@_0CP@LNCILLG@STUN?5client?5transaction?5?$CFp?5stopp@ 00425b38     pjnath-i386-win32-vc8-release:stun_transaction.obj
 0002:00002b68       ??_C@_0CJ@CNIDBHLE@STUN?5sending?5message?5?$CItransmit?5c@ 00425b68     pjnath-i386-win32-vc8-release:stun_transaction.obj
 0002:00002b94       ??_C@_0BL@GACKAEHG@STUN?5error?5sending?5message?$AA@ 00425b94     pjnath-i386-win32-vc8-release:stun_transaction.obj
 0002:00002bb0       ??_C@_0CC@NPFEKFFB@STUN?5timeout?5waiting?5for?5respons@ 00425bb0     pjnath-i386-win32-vc8-release:stun_transaction.obj
 0002:00002bd4       ??_C@_0CK@DAMMIECO@STUN?5rx_msg?$CI?$CJ?5error?3?5not?5respons@ 00425bd4     pjnath-i386-win32-vc8-release:stun_transaction.obj
 0002:00002c00       ??_C@_0DJ@NOGGEPKF@STUN?5rx_msg?$CI?$CJ?5error?3?5received?5pr@ 00425c00     pjnath-i386-win32-vc8-release:stun_transaction.obj
 0002:00002e20       ??_C@_0DI@FPKNFLPC@Unable?5to?5resolve?5STUN?5server?5?$CIP@ 00425e20     pjlib-util-i386-win32-vc8-release:errno.obj
 0002:00002e58       ??_C@_0DG@MLIAHJMC@Unknown?5STUN?5message?5type?5?$CIPJLIB@ 00425e58     pjlib-util-i386-win32-vc8-release:errno.obj
 0002:00002e90       ??_C@_0DH@BGLGMNML@Invalid?5STUN?5message?5length?5?$CIPJL@ 00425e90     pjlib-util-i386-win32-vc8-release:errno.obj
 0002:00002ec8       ??_C@_0DI@MNKBLDCO@STUN?5attribute?5length?5error?5?$CIPJL@ 00425ec8     pjlib-util-i386-win32-vc8-release:errno.obj
 0002:00002f00       ??_C@_0DJ@GEFJCPHI@Invalid?5STUN?5attribute?5type?5?$CIPJL@ 00425f00     pjlib-util-i386-win32-vc8-release:errno.obj
 0002:00002f3c       ??_C@_0DL@JFEBBJAB@Invalid?5STUN?5server?1socket?5index@ 00425f3c     pjlib-util-i386-win32-vc8-release:errno.obj
 0002:00002f78       ??_C@_0EE@OMBAKMPD@No?5STUN?5binding?5response?5in?5the?5@ 00425f78     pjlib-util-i386-win32-vc8-release:errno.obj
 0002:00002fbc       ??_C@_0DM@JJJKHKHH@Received?5STUN?5error?5attribute?5?$CIP@ 00425fbc     pjlib-util-i386-win32-vc8-release:errno.obj
 0002:00002ff8       ??_C@_0DJ@BDPKKDEL@No?5STUN?5mapped?5address?5attribute@ 00425ff8     pjlib-util-i386-win32-vc8-release:errno.obj
 0002:00003038       ??_C@_0ED@MIOBPJDH@Received?5no?5response?5from?5STUN?5s@ 00426038     pjlib-util-i386-win32-vc8-release:errno.obj
 0002:0000307c       ??_C@_0DK@OILEGGA@Symetric?5NAT?5detected?5by?5STUN?5?$CIP@ 0042607c     pjlib-util-i386-win32-vc8-release:errno.obj
 0002:000030b8       ??_C@_0CI@OKGDIDF@Invalid?5XML?5message?5?$CIPJLIB_UTIL_@ 004260b8     pjlib-util-i386-win32-vc8-release:errno.obj
 0002:000030e0       ??_C@_0CL@IPLFEOJE@Invalid?5JSON?5document?5?$CIPJLIB_UTI@ 004260e0     pjlib-util-i386-win32-vc8-release:errno.obj
 0002:00003110       ??_C@_0EC@KJLJANIE@DNS?5query?5packet?5buffer?5is?5too?5s@ 00426110     pjlib-util-i386-win32-vc8-release:errno.obj
 0002:00003154       ??_C@_0DC@JFKHADAC@Invalid?5DNS?5packet?5length?5?$CIPJLIB@ 00426154     pjlib-util-i386-win32-vc8-release:errno.obj
 0002:00003188       ??_C@_0CL@OCFDFFNM@Invalid?5DNS?5class?5?$CIPJLIB_UTIL_ED@ 00426188     pjlib-util-i386-win32-vc8-release:errno.obj
 0002:000031b4       ??_C@_0DE@FIPILDGP@Invalid?5DNS?5name?5pointer?5?$CIPJLIB_@ 004261b4     pjlib-util-i386-win32-vc8-release:errno.obj
 0002:000031e8       ??_C@_0DJ@NBOGGJL@Invalid?5DNS?5nameserver?5address?5?$CI@ 004261e8     pjlib-util-i386-win32-vc8-release:errno.obj
 0002:00003224       ??_C@_0DH@LFJGDOHB@No?5nameserver?5is?5in?5DNS?5resolver@ 00426224     pjlib-util-i386-win32-vc8-release:errno.obj
 0002:0000325c       ??_C@_0DH@PHJBLCKD@No?5working?5DNS?5nameserver?5?$CIPJLIB@ 0042625c     pjlib-util-i386-win32-vc8-release:errno.obj
 0002:00003298       ??_C@_0EC@HJFBNLFC@No?5answer?5record?5in?5the?5DNS?5resp@ 00426298     pjlib-util-i386-win32-vc8-release:errno.obj
 0002:000032dc       ??_C@_0CN@DEFBDJKF@Invalid?5DNS?5answer?5?$CIPJLIB_UTIL_E@ 004262dc     pjlib-util-i386-win32-vc8-release:errno.obj
 0002:0000330c       ??_C@_0CN@BCAAPMPM@DNS?5?$CCFormat?5error?$CC?5?$CIPJLIB_UTIL_E@ 0042630c     pjlib-util-i386-win32-vc8-release:errno.obj
 0002:0000333c       ??_C@_0DA@NBPIIAHM@DNS?5?$CCServer?5failure?$CC?5?$CIPJLIB_UTIL@ 0042633c     pjlib-util-i386-win32-vc8-release:errno.obj
 0002:0000336c       ??_C@_0CM@CNNJNBCA@DNS?5?$CCName?5Error?$CC?5?$CIPJLIB_UTIL_EDN@ 0042636c     pjlib-util-i386-win32-vc8-release:errno.obj
 0002:00003398       ??_C@_0DA@DIMDKHPM@DNS?5?$CCNot?5Implemented?$CC?5?$CIPJLIB_UTI@ 00426398     pjlib-util-i386-win32-vc8-release:errno.obj
 0002:000033c8       ??_C@_0CI@LDMKLLKJ@DNS?5?$CCRefused?$CC?5?$CIPJLIB_UTIL_EDNS_R@ 004263c8     pjlib-util-i386-win32-vc8-release:errno.obj
 0002:000033f0       ??_C@_0DB@PFAMNHPJ@DNS?5?$CCThe?5name?5exists?$CC?5?$CIPJLIB_UTI@ 004263f0     pjlib-util-i386-win32-vc8-release:errno.obj
 0002:00003424       ??_C@_0DO@OIIHMCI@DNS?5?$CCThe?5RRset?5?$CIname?0?5type?$CJ?5exis@ 00426424     pjlib-util-i386-win32-vc8-release:errno.obj
 0002:00003468       ??_C@_0EG@OMHMBNML@DNS?5?$CCThe?5RRset?5?$CIname?0?5type?$CJ?5does@ 00426468     pjlib-util-i386-win32-vc8-release:errno.obj
 0002:000034b0       ??_C@_0CP@HJODAHHO@DNS?5?$CCNot?5authorized?$CC?5?$CIPJLIB_UTIL@ 004264b0     pjlib-util-i386-win32-vc8-release:errno.obj
 0002:000034e0       ??_C@_0EB@GKEHOPAE@DNS?5?$CCThe?5zone?5specified?5is?5not?5a@ 004264e0     pjlib-util-i386-win32-vc8-release:errno.obj
 0002:00003524       ??_C@_0DH@EMGNELGL@Too?5many?5STUN?5attributes?5?$CIPJLIB_@ 00426524     pjlib-util-i386-win32-vc8-release:errno.obj
 0002:0000355c       ??_C@_0DF@KMIPDCMM@Unknown?5STUN?5attribute?5?$CIPJLIB_UT@ 0042655c     pjlib-util-i386-win32-vc8-release:errno.obj
 0002:00003594       ??_C@_0DP@PDBNFLFH@Invalid?5STUN?5socket?5address?5leng@ 00426594     pjlib-util-i386-win32-vc8-release:errno.obj
 0002:000035d8       ??_C@_0EA@NAKPKGDE@STUN?5IPv6?5attribute?5not?5supporte@ 004265d8     pjlib-util-i386-win32-vc8-release:errno.obj
 0002:00003618       ??_C@_0DO@LEKPMIHP@Expecting?5STUN?5response?5message?5@ 00426618     pjlib-util-i386-win32-vc8-release:errno.obj
 0002:00003658       ??_C@_0DJ@DDEJFFIL@STUN?5transaction?5ID?5mismatch?5?$CIPJ@ 00426658     pjlib-util-i386-win32-vc8-release:errno.obj
 0002:00003698       ??_C@_0EI@BNLBFIKH@Unable?5to?5find?5STUN?5handler?5for?5@ 00426698     pjlib-util-i386-win32-vc8-release:errno.obj
 0002:000036e0       ??_C@_0FA@DIAPLEFD@Found?5non?9FINGERPRINT?5attr?4?5afte@ 004266e0     pjlib-util-i386-win32-vc8-release:errno.obj
 0002:00003730       ??_C@_0ED@CNMDGMPD@Found?5STUN?5attribute?5after?5FINGE@ 00426730     pjlib-util-i386-win32-vc8-release:errno.obj
 0002:00003774       ??_C@_0DN@JLMAJAKN@Missing?5STUN?5USERNAME?5attribute?5@ 00426774     pjlib-util-i386-win32-vc8-release:errno.obj
 0002:000037b8       ??_C@_0EK@LMHKLKC@Missing?1invalid?5STUN?5MESSAGE?9INT@ 004267b8     pjlib-util-i386-win32-vc8-release:errno.obj
 0002:00003804       ??_C@_0DJ@BCFNCGF@Found?5duplicate?5STUN?5attribute?5?$CI@ 00426804     pjlib-util-i386-win32-vc8-release:errno.obj
 0002:00003840       ??_C@_0DH@MMHMOPBG@Missing?5STUN?5REALM?5attribute?5?$CIPJ@ 00426840     pjlib-util-i386-win32-vc8-release:errno.obj
 0002:00003878       ??_C@_0EB@FGOGNHPO@Missing?1stale?5STUN?5NONCE?5attribu@ 00426878     pjlib-util-i386-win32-vc8-release:errno.obj
 0002:000038c0       ??_C@_0EF@HAPLEMIK@STUN?5transaction?5terminates?5with@ 004268c0     pjlib-util-i386-win32-vc8-release:errno.obj
 0002:00003908       ??_C@_0CL@GOOAEBLJ@Invalid?5URL?5format?5?$CIPJLIB_UTIL_E@ 00426908     pjlib-util-i386-win32-vc8-release:errno.obj
 0002:00003934       ??_C@_0DB@BDFJPAOA@Invalid?5URL?5port?5number?5?$CIPJLIB_U@ 00426934     pjlib-util-i386-win32-vc8-release:errno.obj
 0002:00003968       ??_C@_0DN@CABCKELB@Incomplete?5response?5header?5recei@ 00426968     pjlib-util-i386-win32-vc8-release:errno.obj
 0002:000039a8       ??_C@_0CN@MKMAKFDH@Insufficient?5buffer?5?$CIPJLIB_UTIL_@ 004269a8     pjlib-util-i386-win32-vc8-release:errno.obj
 0002:000039d8       ??_C@_0CH@JNBFBBKA@Connection?5lost?5?$CIPJLIB_UTIL_EHTT@ 004269d8     pjlib-util-i386-win32-vc8-release:errno.obj
 0002:00003a00       ??_C@_0CE@DHMMOEGP@Exit?5current?5session?5?$CIPJ_CLI_EEX@ 00426a00     pjlib-util-i386-win32-vc8-release:errno.obj
 0002:00003a24       ??_C@_0CG@LEDMCEME@Missing?5argument?5?$CIPJ_CLI_EMISSIN@ 00426a24     pjlib-util-i386-win32-vc8-release:errno.obj
 0002:00003a4c       ??_C@_0CJ@ECODGDHL@Too?5many?5arguments?5?$CIPJ_CLI_ETOOM@ 00426a4c     pjlib-util-i386-win32-vc8-release:errno.obj
 0002:00003a78       ??_C@_0CC@NLPGOLED@Invalid?5argument?5?$CIPJ_CLI_EINVARG@ 00426a78     pjlib-util-i386-win32-vc8-release:errno.obj
 0002:00003a9c       ??_C@_0CO@OOEOBCH@Command?5name?5already?5exists?5?$CIPJ_@ 00426a9c     pjlib-util-i386-win32-vc8-release:errno.obj
 0002:00003acc       ??_C@_0CK@MKOACJP@Command?5id?5already?5exists?5?$CIPJ_CL@ 00426acc     pjlib-util-i386-win32-vc8-release:errno.obj
 0002:00003af8       ??_C@_0CE@LHHCBFML@Invalid?5XML?5format?5?$CIPJ_CLI_EBADX@ 00426af8     pjlib-util-i386-win32-vc8-release:errno.obj
 0002:00003b1c       ??_C@_0CF@CKMLJLLP@Connection?5lost?5?$CIPJ_CLI_ETELNETL@ 00426b1c     pjlib-util-i386-win32-vc8-release:errno.obj
 0002:00003b44       ??_C@_0BM@LDLEGOFO@Unknown?5pjlib?9util?5error?5?$CFd?$AA@ 00426b44     pjlib-util-i386-win32-vc8-release:errno.obj
 0002:00003b60       ??_C@_02BAABKJLB@?9?9?$AA@ 00426b60     pjlib-util-i386-win32-vc8-release:getopt.obj
 0002:00003b64       ??_C@_07IAIHCIDD@Probing?$AA@ 00426b64     pjlib-util-i386-win32-vc8-release:resolver.obj
 0002:00003b6c       ??_C@_06MAFFGDO@Active?$AA@ 00426b6c     pjlib-util-i386-win32-vc8-release:resolver.obj
 0002:00003b74       ??_C@_03KHCCLPOB@Bad?$AA@  00426b74     pjlib-util-i386-win32-vc8-release:resolver.obj
 0002:00003b78       ??_C@_0L@LIJHCMPL@resolver?4c?$AA@ 00426b78     pjlib-util-i386-win32-vc8-release:resolver.obj
 0002:00003b84       ??_C@_0BH@PPEBBIFJ@?0?5will?5try?5again?5later?$AA@ 00426b84     pjlib-util-i386-win32-vc8-release:resolver.obj
 0002:00003b9c       ??_C@_0DC@GOFLGJND@Socket?5busy?5in?5transmitting?5DNS?5@ 00426b9c     pjlib-util-i386-win32-vc8-release:resolver.obj
 0002:00003bd0       ??_C@_0N@IBGJGPJN@Transmitting?$AA@ 00426bd0     pjlib-util-i386-win32-vc8-release:resolver.obj
 0002:00003be0       ??_C@_0BA@JFAGDHFD@Re?9transmitting?$AA@ 00426be0     pjlib-util-i386-win32-vc8-release:resolver.obj
 0002:00003bf0       ??_C@_0DC@PBGKNNLN@?$CFs?5?$CFd?5bytes?5to?5NS?5?$CFd?5?$CI?$CFs?3?$CFd?$CJ?3?5DN@ 00426bf0     pjlib-util-i386-win32-vc8-release:resolver.obj
 0002:00003c24       ??_C@_08FNHHDNFI@dnscache?$AA@ 00426c24     pjlib-util-i386-win32-vc8-release:resolver.obj
 0002:00003c30       ??_C@_0DE@LLACOPGB@Picked?5up?5DNS?5?$CFs?5record?5for?5?$CF?4?$CKs@ 00426c30     pjlib-util-i386-win32-vc8-release:resolver.obj
 0002:00003c64       ??_C@_0CJ@MMDCPKPE@Nameserver?5?$CFs?3?$CFd?5state?5changed?5?$CF@ 00426c64     pjlib-util-i386-win32-vc8-release:resolver.obj
 0002:00003c90       ??_C@_0BP@GLADIPED@Error?5transmitting?5request?3?5?$CFs?$AA@ 00426c90     pjlib-util-i386-win32-vc8-release:resolver.obj
 0002:00003cb0       ??_C@_0CH@PBJNCHDG@DNS?5resolver?5read?5error?5from?5?$CFs?3@ 00426cb0     pjlib-util-i386-win32-vc8-release:resolver.obj
 0002:00003cd8       ??_C@_0CK@MMBMIKLP@Received?5?$CFd?5bytes?5DNS?5response?5f@ 00426cd8     pjlib-util-i386-win32-vc8-release:resolver.obj
 0002:00003d04       ??_C@_06HEECPDDL@restmp?$AA@ 00426d04     pjlib-util-i386-win32-vc8-release:resolver.obj
 0002:00003d0c       ??_C@_0CK@NLLFBPNI@Error?5parsing?5DNS?5response?5from?5@ 00426d0c     pjlib-util-i386-win32-vc8-release:resolver.obj
 0002:00003d38       ??_C@_0CI@NOCPIGKM@DNS?5response?5from?5?$CFs?3?$CFd?5id?$DN?$CFd?5di@ 00426d38     pjlib-util-i386-win32-vc8-release:resolver.obj
 0002:00003d60       ??_C@_0CE@JHMLGLFH@DNS?5resolver?5ioqueue?5read?5error?3@ 00426d60     pjlib-util-i386-win32-vc8-release:resolver.obj
 0002:00003d90       __xmm@ffffffffffffffffffffffffffffffff 00426d90     pjlib-util-i386-win32-vc8-release:resolver.obj
 0002:000041a0       ??_C@_01LFCBOECM@?4?$AA@   004271a0     pjlib-util-i386-win32-vc8-release:srv_resolver.obj
 0002:000041a4       ??_C@_0DA@GGGKMBOI@Starting?5async?5DNS?5?$CFs?5query_job?3@ 004271a4     pjlib-util-i386-win32-vc8-release:srv_resolver.obj
 0002:000041d4       ??_C@_0CL@ICCMMEFF@Received?5non?5SRV?5answer?5for?5SRV?5@ 004271d4     pjlib-util-i386-win32-vc8-release:srv_resolver.obj
 0002:00004200       ??_C@_0BG@OENDJHLB@Hostname?5is?5too?5long?$CB?$AA@ 00427200     pjlib-util-i386-win32-vc8-release:srv_resolver.obj
 0002:00004218       ??_C@_0CJ@IGNPBKGN@Could?5not?5find?5SRV?5record?5in?5DNS@ 00427218     pjlib-util-i386-win32-vc8-release:srv_resolver.obj
 0002:00004248       ??_C@_0EE@LPMFAMKM@SRV?5query_job?5for?5?$CF?4?$CKs?5completed@ 00427248     pjlib-util-i386-win32-vc8-release:srv_resolver.obj
 0002:0000428c       ??_C@_01JOAMLHOP@?9?$AA@   0042728c     pjlib-util-i386-win32-vc8-release:srv_resolver.obj
 0002:00004290       ??_C@_0BM@MJBLDIAG@?5?$CFd?3?5SRV?5?$CFd?5?$CFd?5?$CFd?5?$CF?4?$CKs?5?$CI?$CFs?$CJ?$AA@ 00427290     pjlib-util-i386-win32-vc8-release:srv_resolver.obj
 0002:000042ac       ??_C@_0CI@IBPJGCBL@Starting?5async?5DNS?5A?5query_job?5f@ 004272ac     pjlib-util-i386-win32-vc8-release:srv_resolver.obj
 0002:000042d4       ??_C@_0CH@COCLGFLO@DNS?5SRV?5resolution?5failed?5for?5?$CF?4@ 004272d4     pjlib-util-i386-win32-vc8-release:srv_resolver.obj
 0002:00004300       ??_C@_0EH@EGFGCLAC@DNS?5SRV?5resolution?5failed?5for?5?$CF?4@ 00427300     pjlib-util-i386-win32-vc8-release:srv_resolver.obj
 0002:00004348       ??_C@_0BD@DMPEKAIE@DNS?5A?5for?5?$CF?4?$CKs?3?5?$CFs?$AA@ 00427348     pjlib-util-i386-win32-vc8-release:srv_resolver.obj
 0002:0000435c       ??_C@_0BO@FJBLCFMD@Additional?5DNS?5A?5for?5?$CF?4?$CKs?3?5?$CFs?$AA@ 0042735c     pjlib-util-i386-win32-vc8-release:srv_resolver.obj
 0002:0000437c       ??_C@_0CD@MNOGDEHE@DNS?5A?5record?5resolution?5failed?3?5@ 0042737c     pjlib-util-i386-win32-vc8-release:srv_resolver.obj
 0002:000043a0       ??_C@_0DF@NMOAKAGH@Server?5resolution?5complete?0?5?$CFd?5s@ 004273a0     pjlib-util-i386-win32-vc8-release:srv_resolver.obj
 0002:000043d8       ??_C@_0DH@GBMACLIM@DNS?5?$CFs?5record?5resolution?5error?5f@ 004273d8     pjlib-util-i386-win32-vc8-release:srv_resolver.obj
 0002:00004410       ??_C@_01FHEEJDEE@A?$AA@    00427410     pjlib-util-i386-win32-vc8-release:dns.obj
 0002:00004414       ??_C@_04OHNMNPPA@AAAA?$AA@ 00427414     pjlib-util-i386-win32-vc8-release:dns.obj
 0002:0000441c       ??_C@_03IENKIAKD@SRV?$AA@  0042741c     pjlib-util-i386-win32-vc8-release:dns.obj
 0002:00004420       ??_C@_02OLCMIILA@NS?$AA@   00427420     pjlib-util-i386-win32-vc8-release:dns.obj
 0002:00004424       ??_C@_05PGNGFKDN@CNAME?$AA@ 00427424     pjlib-util-i386-win32-vc8-release:dns.obj
 0002:0000442c       ??_C@_03PGIOJGPL@PTR?$AA@  0042742c     pjlib-util-i386-win32-vc8-release:dns.obj
 0002:00004430       ??_C@_02KJOOPCC@MX?$AA@    00427430     pjlib-util-i386-win32-vc8-release:dns.obj
 0002:00004434       ??_C@_03CGKMFPEO@TXT?$AA@  00427434     pjlib-util-i386-win32-vc8-release:dns.obj
 0002:00004438       ??_C@_05DGMJPCKB@NAPTR?$AA@ 00427438     pjlib-util-i386-win32-vc8-release:dns.obj
 0002:00004440       ??_C@_09ONJBBFFA@?$CIUnknown?$CJ?$AA@ 00427440     pjlib-util-i386-win32-vc8-release:dns.obj
 0002:0000444c       ??_C@_01IFKFHFEL@?$IA?$AA@ 0042744c     pjlib-util-i386-win32-vc8-release:sha1.obj
 0002:00004450       ??_C@_01LOCGONAA@?$AA?$AA@ 00427450     pjlib-util-i386-win32-vc8-release:sha1.obj
 0002:00004454       ??_C@_03NGAIINE@2?44?$AA@  00427454     pjlib-i386-win32-vc8-release:config.obj
 0002:00004458       ??_C@_08DOCHLGNA@config?4c?$AA@ 00427458     pjlib-i386-win32-vc8-release:config.obj
 0002:00004464       ??_C@_04IFCNACLH@pj?$CFp?$AA@ 00427464     pjlib-i386-win32-vc8-release:os_core_win32.obj
 0002:0000446c       ??_C@_0BA@NGJFHJA@PJLIB?1No?5memory?$AA@ 0042746c     pjlib-i386-win32-vc8-release:os_core_win32.obj
 0002:0000447c       ??_C@_0BP@NGEKBPIB@pjlib?5?$CFs?5for?5win32?5initialized?$AA@ 0042747c     pjlib-i386-win32-vc8-release:os_core_win32.obj
 0002:0000449c       ??_C@_0BA@FNCACAIG@os_core_win32?4c?$AA@ 0042749c     pjlib-i386-win32-vc8-release:os_core_win32.obj
 0002:000044ac       ??_C@_0CI@EAKIIBBA@Main?5thread?5stack?5max?5usage?$DN?$CFu?5b@ 004274ac     pjlib-i386-win32-vc8-release:os_core_win32.obj
 0002:000044d4       ??_C@_0BK@BHGJHPMG@?4?4?2src?2pj?2os_core_win32?4c?$AA@ 004274d4     pjlib-i386-win32-vc8-release:os_core_win32.obj
 0002:000044f0       ??_C@_05KHEDLION@thr?$CFp?$AA@ 004274f0     pjlib-i386-win32-vc8-release:os_core_win32.obj
 0002:000044f8       ??_C@_0CD@GPHECFNA@Thread?5stack?5max?5usage?$DN?$CFu?5by?5?$CFs?3@ 004274f8     pjlib-i386-win32-vc8-release:os_core_win32.obj
 0002:0000451c       ??_C@_05EJDHHBFJ@mtx?$CFp?$AA@ 0042751c     pjlib-i386-win32-vc8-release:os_core_win32.obj
 0002:00004528       ??_C@_0FL@DFKMACAJ@d?3?2program?2microsip?2pjproject?92?4@ 00427528     pjlib-i386-win32-vc8-release:ioqueue_select.obj
 0002:00004584       ??_C@_05LIJONKFG@ioq?$CFp?$AA@ 00427584     pjlib-i386-win32-vc8-release:ioqueue_select.obj
 0002:0000458c       ??_C@_0CA@IMDCINDN@select?$CI?$CJ?5I?1O?5Queue?5created?5?$CI?$CFp?$CJ?$AA@ 0042758c     pjlib-i386-win32-vc8-release:ioqueue_select.obj
 0002:000045ac       ??_C@_05PHKAINEA@pjlib?$AA@ 004275ac     pjlib-i386-win32-vc8-release:ioqueue_select.obj
 0002:000045b4       ??_C@_01OHGJGJJP@?$FL?$AA@ 004275b4     pjlib-i386-win32-vc8-release:sock_common.obj
 0002:000045b8       ??_C@_01LBDDMOBJ@?$FN?$AA@ 004275b8     pjlib-i386-win32-vc8-release:sock_common.obj
 0002:000045bc       ??_C@_03HODKBCIO@?3?$CFd?$AA@ 004275bc     pjlib-i386-win32-vc8-release:sock_common.obj
 0002:000045c0       ??_C@_08KJEDNCKC@?$CFs?$CFs?$CFs?$CFs?$AA@ 004275c0     pjlib-i386-win32-vc8-release:sock_common.obj
 0002:000045cc       ??_C@_0BI@IIPAIKDD@?4?4?2src?2pj?2sock_common?4c?$AA@ 004275cc     pjlib-i386-win32-vc8-release:sock_common.obj
 0002:000045e4       ??_C@_07EBPGIHEF@1?41?41?41?$AA@ 004275e4     pjlib-i386-win32-vc8-release:sock_common.obj
 0002:000045ec       ??_C@_04NFKLOGOF@1?3?31?$AA@ 004275ec     pjlib-i386-win32-vc8-release:sock_common.obj
 0002:00004788       ??_C@_0CD@FNMHLHMI@Interrupted?5system?5call?5?$CIWSAEINT@ 00427788     pjlib-i386-win32-vc8-release:os_error_win32.obj
 0002:000047ac       ??_C@_0BL@OKPDNKLH@Bad?5file?5number?5?$CIWSAEBADF?$CJ?$AA@ 004277ac     pjlib-i386-win32-vc8-release:os_error_win32.obj
 0002:000047c8       ??_C@_0BO@BMBEEPBP@Permission?5denied?5?$CIWSAEACCES?$CJ?$AA@ 004277c8     pjlib-i386-win32-vc8-release:os_error_win32.obj
 0002:000047e8       ??_C@_0BI@LAKHPJJ@Bad?5address?5?$CIWSAEFAULT?$CJ?$AA@ 004277e8     pjlib-i386-win32-vc8-release:os_error_win32.obj
 0002:00004800       ??_C@_0BN@FEIDINKH@Invalid?5argument?5?$CIWSAEINVAL?$CJ?$AA@ 00427800     pjlib-i386-win32-vc8-release:os_error_win32.obj
 0002:00004820       ??_C@_0CC@HMKKNDGL@Too?5many?5open?5sockets?5?$CIWSAEMFILE@ 00427820     pjlib-i386-win32-vc8-release:os_error_win32.obj
 0002:00004844       ??_C@_0CH@GCPPFMGM@Operation?5would?5block?5?$CIWSAEWOULD@ 00427844     pjlib-i386-win32-vc8-release:os_error_win32.obj
 0002:0000486c       ??_C@_0CL@DKGHEPCD@Operation?5now?5in?5progress?5?$CIWSAEI@ 0042786c     pjlib-i386-win32-vc8-release:os_error_win32.obj
 0002:00004898       ??_C@_0CM@BEMCBKDH@Operation?5already?5in?5progress?5?$CIW@ 00427898     pjlib-i386-win32-vc8-release:os_error_win32.obj
 0002:000048c4       ??_C@_0CN@PAFKDEBN@Socket?5operation?5on?5non?9socket?5?$CI@ 004278c4     pjlib-i386-win32-vc8-release:os_error_win32.obj
 0002:000048f4       ??_C@_0CP@HCDICECK@Destination?5address?5required?5?$CIWS@ 004278f4     pjlib-i386-win32-vc8-release:os_error_win32.obj
 0002:00004924       ??_C@_0BP@LNFPBFEK@Message?5too?5long?5?$CIWSAEMSGSIZE?$CJ?$AA@ 00427924     pjlib-i386-win32-vc8-release:os_error_win32.obj
 0002:00004944       ??_C@_0CP@MMIMIEMF@Protocol?5wrong?5type?5for?5socket?5?$CI@ 00427944     pjlib-i386-win32-vc8-release:os_error_win32.obj
 0002:00004974       ??_C@_0CF@HNFLHOHA@Bad?5protocol?5option?5?$CIWSAENOPROTO@ 00427974     pjlib-i386-win32-vc8-release:os_error_win32.obj
 0002:0000499c       ??_C@_0CM@HPGHEHCE@Protocol?5not?5supported?5?$CIWSAEPROT@ 0042799c     pjlib-i386-win32-vc8-release:os_error_win32.obj
 0002:000049c8       ??_C@_0CP@JLBNHCOL@Socket?5type?5not?5supported?5?$CIWSAES@ 004279c8     pjlib-i386-win32-vc8-release:os_error_win32.obj
 0002:000049f8       ??_C@_0DC@GJMFANID@Operation?5not?5supported?5on?5socke@ 004279f8     pjlib-i386-win32-vc8-release:os_error_win32.obj
 0002:00004a2c       ??_C@_0DA@GFNBENIG@Protocol?5family?5not?5supported?5?$CIW@ 00427a2c     pjlib-i386-win32-vc8-release:os_error_win32.obj
 0002:00004a5c       ??_C@_0CP@MMKHGIFC@Address?5family?5not?5supported?5?$CIWS@ 00427a5c     pjlib-i386-win32-vc8-release:os_error_win32.obj
 0002:00004a8c       ??_C@_0CH@OCKNFBKE@Address?5already?5in?5use?5?$CIWSAEADDR@ 00427a8c     pjlib-i386-win32-vc8-release:os_error_win32.obj
 0002:00004ab4       ??_C@_0DC@FJJPJPOD@Can?8t?5assign?5requested?5address?5?$CI@ 00427ab4     pjlib-i386-win32-vc8-release:os_error_win32.obj
 0002:00004ae8       ??_C@_0BO@IICKDHLJ@Network?5is?5down?5?$CIWSAENETDOWN?$CJ?$AA@ 00427ae8     pjlib-i386-win32-vc8-release:os_error_win32.obj
 0002:00004b08       ??_C@_0CI@NKJAACME@Network?5is?5unreachable?5?$CIWSAENETU@ 00427b08     pjlib-i386-win32-vc8-release:os_error_win32.obj
 0002:00004b30       ??_C@_0CE@LJEEEFEC@Net?5connection?5reset?5?$CIWSAENETRES@ 00427b30     pjlib-i386-win32-vc8-release:os_error_win32.obj
 0002:00004b54       ??_C@_0DD@PGDIHOBG@Software?5caused?5connection?5abort@ 00427b54     pjlib-i386-win32-vc8-release:os_error_win32.obj
 0002:00004b88       ??_C@_0CJ@PJHCFAAN@Connection?5reset?5by?5peer?5?$CIWSAECO@ 00427b88     pjlib-i386-win32-vc8-release:os_error_win32.obj
 0002:00004bb4       ??_C@_0CH@EKNGIMKN@No?5buffer?5space?5available?5?$CIWSAEN@ 00427bb4     pjlib-i386-win32-vc8-release:os_error_win32.obj
 0002:00004bdc       ??_C@_0CJ@JOPBNNOD@Socket?5is?5already?5connected?5?$CIWSA@ 00427bdc     pjlib-i386-win32-vc8-release:os_error_win32.obj
 0002:00004c08       ??_C@_0CG@CECDMHLL@Socket?5is?5not?5connected?5?$CIWSAENOT@ 00427c08     pjlib-i386-win32-vc8-release:os_error_win32.obj
 0002:00004c30       ??_C@_0DA@JGJMJPNM@Can?8t?5send?5after?5socket?5shutdown@ 00427c30     pjlib-i386-win32-vc8-release:os_error_win32.obj
 0002:00004c60       ??_C@_0DE@CAILNFFE@Too?5many?5references?0?5can?8t?5splic@ 00427c60     pjlib-i386-win32-vc8-release:os_error_win32.obj
 0002:00004c94       ??_C@_0CE@IIKHBGF@Connection?5timed?5out?5?$CIWSAETIMEDO@ 00427c94     pjlib-i386-win32-vc8-release:os_error_win32.obj
 0002:00004cb8       ??_C@_0CF@JMKFBJH@Connection?5refused?5?$CIWSAECONNREFU@ 00427cb8     pjlib-i386-win32-vc8-release:os_error_win32.obj
 0002:00004ce0       ??_C@_0CN@FCKBNFMB@Too?5many?5levels?5of?5symbolic?5link@ 00427ce0     pjlib-i386-win32-vc8-release:os_error_win32.obj
 0002:00004d10       ??_C@_0CF@MOFKOMBB@File?5name?5too?5long?5?$CIWSAENAMETOOL@ 00427d10     pjlib-i386-win32-vc8-release:os_error_win32.obj
 0002:00004d38       ??_C@_0BM@NCJCEEDP@Host?5is?5down?5?$CIWSAEHOSTDOWN?$CJ?$AA@ 00427d38     pjlib-i386-win32-vc8-release:os_error_win32.obj
 0002:00004d54       ??_C@_0CD@ECJOJHBH@No?5route?5to?5host?5?$CIWSAEHOSTUNREAC@ 00427d54     pjlib-i386-win32-vc8-release:os_error_win32.obj
 0002:00004d78       ??_C@_0CD@NEFLEHEG@Directory?5not?5empty?5?$CIWSAENOTEMPT@ 00427d78     pjlib-i386-win32-vc8-release:os_error_win32.obj
 0002:00004d9c       ??_C@_0CB@GPCGLHOJ@Too?5many?5processes?5?$CIWSAEPROCLIM?$CJ@ 00427d9c     pjlib-i386-win32-vc8-release:os_error_win32.obj
 0002:00004dc0       ??_C@_0BL@IGHJMJKO@Too?5many?5users?5?$CIWSAEUSERS?$CJ?$AA@ 00427dc0     pjlib-i386-win32-vc8-release:os_error_win32.obj
 0002:00004ddc       ??_C@_0CA@MIOFDKMA@Disc?5quota?5exceeded?5?$CIWSAEDQUOT?$CJ?$AA@ 00427ddc     pjlib-i386-win32-vc8-release:os_error_win32.obj
 0002:00004dfc       ??_C@_0CC@IMLIDHNH@Stale?5NFS?5file?5handle?5?$CIWSAESTALE@ 00427dfc     pjlib-i386-win32-vc8-release:os_error_win32.obj
 0002:00004e20       ??_C@_0CP@MLAFGPOA@Too?5many?5levels?5of?5remote?5in?5pat@ 00427e20     pjlib-i386-win32-vc8-release:os_error_win32.obj
 0002:00004e50       ??_C@_0CP@IBAEMKGH@Network?5system?5is?5unavailable?5?$CIW@ 00427e50     pjlib-i386-win32-vc8-release:os_error_win32.obj
 0002:00004e80       ??_C@_0DC@BLAKHMMJ@Winsock?5version?5out?5of?5range?5?$CIWS@ 00427e80     pjlib-i386-win32-vc8-release:os_error_win32.obj
 0002:00004eb4       ??_C@_0CO@HPDHHDHA@WSAStartup?5not?5yet?5called?5?$CIWSANO@ 00427eb4     pjlib-i386-win32-vc8-release:os_error_win32.obj
 0002:00004ee4       ??_C@_0CL@GFDHEKLB@Graceful?5shutdown?5in?5progress?5?$CIW@ 00427ee4     pjlib-i386-win32-vc8-release:os_error_win32.obj
 0002:00004f10       ??_C@_0CD@OEALOMDH@Host?5not?5found?5?$CIWSAHOST_NOT_FOUN@ 00427f10     pjlib-i386-win32-vc8-release:os_error_win32.obj
 0002:00004f34       ??_C@_0DB@KFPHELLI@No?5host?5data?5of?5that?5type?5was?5fo@ 00427f34     pjlib-i386-win32-vc8-release:os_error_win32.obj
 0002:00004f68       ??_C@_0BE@JPHLLAEM@Win32?5error?5code?5?$CFu?$AA@ 00427f68     pjlib-i386-win32-vc8-release:os_error_win32.obj
 0002:00005040       ??_C@_0BM@FLPPOGAG@Unknown?5Error?5?$CIPJ_EUNKNOWN?$CJ?$AA@ 00428040     pjlib-i386-win32-vc8-release:errno.obj
 0002:0000505c       ??_C@_0CA@DCLOOJGD@Pending?5operation?5?$CIPJ_EPENDING?$CJ?$AA@ 0042805c     pjlib-i386-win32-vc8-release:errno.obj
 0002:0000507c       ??_C@_0CO@GABEOAFF@Too?5many?5connecting?5sockets?5?$CIPJ_@ 0042807c     pjlib-i386-win32-vc8-release:errno.obj
 0002:000050ac       ??_C@_0CG@CBCJBJGD@Invalid?5value?5or?5argument?5?$CIPJ_EI@ 004280ac     pjlib-i386-win32-vc8-release:errno.obj
 0002:000050d4       ??_C@_0CA@GJABNEKD@Name?5too?5long?5?$CIPJ_ENAMETOOLONG?$CJ?$AA@ 004280d4     pjlib-i386-win32-vc8-release:errno.obj
 0002:000050f4       ??_C@_0BJ@JNKLPII@Not?5found?5?$CIPJ_ENOTFOUND?$CJ?$AA@ 004280f4     pjlib-i386-win32-vc8-release:errno.obj
 0002:00005110       ??_C@_0BO@GOLCMJKK@Not?5enough?5memory?5?$CIPJ_ENOMEM?$CJ?$AA@ 00428110     pjlib-i386-win32-vc8-release:errno.obj
 0002:00005130       ??_C@_0BI@HHGDCAID@BUG?5DETECTED?$CB?5?$CIPJ_EBUG?$CJ?$AA@ 00428130     pjlib-i386-win32-vc8-release:errno.obj
 0002:00005148       ??_C@_0CD@JOGIDHPJ@Operation?5timed?5out?5?$CIPJ_ETIMEDOU@ 00428148     pjlib-i386-win32-vc8-release:errno.obj
 0002:0000516c       ??_C@_0DF@MIFNAIHL@Too?5many?5objects?5of?5the?5specifie@ 0042816c     pjlib-i386-win32-vc8-release:errno.obj
 0002:000051a4       ??_C@_0BK@OMPILOH@Object?5is?5busy?5?$CIPJ_EBUSY?$CJ?$AA@ 004281a4     pjlib-i386-win32-vc8-release:errno.obj
 0002:000051c0       ??_C@_0CP@BAIBJOJE@Option?1operation?5is?5not?5supporte@ 004281c0     pjlib-i386-win32-vc8-release:errno.obj
 0002:000051f0       ??_C@_0CC@OEEEEEML@Invalid?5operation?5?$CIPJ_EINVALIDOP@ 004281f0     pjlib-i386-win32-vc8-release:errno.obj
 0002:00005214       ??_C@_0CE@KDDMJLGF@Operation?5cancelled?5?$CIPJ_ECANCELL@ 00428214     pjlib-i386-win32-vc8-release:errno.obj
 0002:00005238       ??_C@_0CD@LODOFNLC@Object?5already?5exists?5?$CIPJ_EEXIST@ 00428238     pjlib-i386-win32-vc8-release:errno.obj
 0002:0000525c       ??_C@_0BG@GMBDFNLN@End?5of?5file?5?$CIPJ_EEOF?$CJ?$AA@ 0042825c     pjlib-i386-win32-vc8-release:errno.obj
 0002:00005274       ??_C@_0BN@PCCNBFLN@Size?5is?5too?5big?5?$CIPJ_ETOOBIG?$CJ?$AA@ 00428274     pjlib-i386-win32-vc8-release:errno.obj
 0002:00005294       ??_C@_0DB@FDCHLEID@gethostbyname?$CI?$CJ?5has?5returned?5err@ 00428294     pjlib-i386-win32-vc8-release:errno.obj
 0002:000052c8       ??_C@_0CB@MGGLJMNO@Size?5is?5too?5short?5?$CIPJ_ETOOSMALL?$CJ@ 004282c8     pjlib-i386-win32-vc8-release:errno.obj
 0002:000052ec       ??_C@_0BG@NBDJGAFI@Ignored?5?$CIPJ_EIGNORED?$CJ?$AA@ 004282ec     pjlib-i386-win32-vc8-release:errno.obj
 0002:00005304       ??_C@_0CH@OGOOBJBE@IPv6?5is?5not?5supported?5?$CIPJ_EIPV6N@ 00428304     pjlib-i386-win32-vc8-release:errno.obj
 0002:0000532c       ??_C@_0CK@DJAHHNOI@Unsupported?5address?5family?5?$CIPJ_E@ 0042832c     pjlib-i386-win32-vc8-release:errno.obj
 0002:00005358       ??_C@_0CD@PDGCJOJH@Object?5no?5longer?5exists?5?$CIPJ_EGON@ 00428358     pjlib-i386-win32-vc8-release:errno.obj
 0002:0000537c       ??_C@_0CI@LBHALONI@Socket?5is?5in?5bad?5state?5?$CIPJ_ESOCK@ 0042837c     pjlib-i386-win32-vc8-release:errno.obj
 0002:000053a4       ??_C@_0BH@ONDLFCEA@Unknown?5pjlib?5error?5?$CFd?$AA@ 004283a4     pjlib-i386-win32-vc8-release:errno.obj
 0002:000053bc       ??_C@_07PBILKAFL@Success?$AA@ 004283bc     pjlib-i386-win32-vc8-release:errno.obj
 0002:000053c4       ??_C@_05NAOIJFC@Error?$AA@ 004283c4     pjlib-i386-win32-vc8-release:errno.obj
 0002:000053cc       ??_C@_0BO@KBBNBAFA@?4?4?2src?2pj?2log_writer_stdout?4c?$AA@ 004283cc     pjlib-i386-win32-vc8-release:log_writer_stdout.obj
 0002:000053ec       ??_C@_0BA@CLLJDBF@?4?4?2src?2pj?2log?4c?$AA@ 004283ec     pjlib-i386-win32-vc8-release:log.obj
 0002:000053fc       ??_C@_06DDFOEFIF@FATAL?3?$AA@ 004283fc     pjlib-i386-win32-vc8-release:log.obj
 0002:00005404       ??_C@_06PONDCDME@ERROR?3?$AA@ 00428404     pjlib-i386-win32-vc8-release:log.obj
 0002:0000540c       ??_C@_06OHJPOJDB@?5WARN?3?$AA@ 0042840c     pjlib-i386-win32-vc8-release:log.obj
 0002:00005414       ??_C@_06ICKKLHPE@?5INFO?3?$AA@ 00428414     pjlib-i386-win32-vc8-release:log.obj
 0002:0000541c       ??_C@_06DNOFLLB@DEBUG?3?$AA@ 0042841c     pjlib-i386-win32-vc8-release:log.obj
 0002:00005424       ??_C@_06ELIFFDKB@TRACE?3?$AA@ 00428424     pjlib-i386-win32-vc8-release:log.obj
 0002:0000542c       ??_C@_06HGKAKJPG@DETRC?3?$AA@ 0042842c     pjlib-i386-win32-vc8-release:log.obj
 0002:00005434       ??_C@_03KOEHGMDN@Sun?$AA@  00428434     pjlib-i386-win32-vc8-release:log.obj
 0002:00005438       ??_C@_03PDAGKDH@Mon?$AA@   00428438     pjlib-i386-win32-vc8-release:log.obj
 0002:0000543c       ??_C@_03NAGEINEP@Tue?$AA@  0042843c     pjlib-i386-win32-vc8-release:log.obj
 0002:00005440       ??_C@_03MHOMLAJA@Wed?$AA@  00428440     pjlib-i386-win32-vc8-release:log.obj
 0002:00005444       ??_C@_03IOFIKPDN@Thu?$AA@  00428444     pjlib-i386-win32-vc8-release:log.obj
 0002:00005448       ??_C@_03IDIOELNC@Fri?$AA@  00428448     pjlib-i386-win32-vc8-release:log.obj
 0002:0000544c       ??_C@_03FEFJNEK@Sat?$AA@   0042844c     pjlib-i386-win32-vc8-release:log.obj
 0002:00005450       ??_C@_0BO@BGMDCDKP@?$DMlogging?5error?3?5msg?5too?5long?$DO?$AA@ 00428450     pjlib-i386-win32-vc8-release:log.obj
 0002:00005470       ??_C@_0BB@JCEFLFJE@0123456789abcdef?$AA@ 00428470     pjlib-i386-win32-vc8-release:string.obj
 0002:00005484       ??_C@_0BD@ELEDKDKB@?4?4?2src?2pj?2string?4c?$AA@ 00428484     pjlib-i386-win32-vc8-release:string.obj
 0002:00005498       ??_C@_0BB@PKFOFEEC@?4?4?2src?2pj?2pool?4c?$AA@ 00428498     pjlib-i386-win32-vc8-release:pool.obj
 0002:000054ac       ??_C@_0BJ@MJKAJPML@?4?4?2src?2pj?2pool_caching?4c?$AA@ 004284ac     pjlib-i386-win32-vc8-release:pool_caching.obj
 0002:000054c8       ??_C@_0M@IGFPEOLJ@cachingpool?$AA@ 004284c8     pjlib-i386-win32-vc8-release:pool_caching.obj
 0002:000054d4       ??_C@_0DD@ECGDPCBA@Pool?5is?5not?5released?5by?5applicat@ 004284d4     pjlib-i386-win32-vc8-release:pool_caching.obj
 0002:00005508       ??_C@_0BH@BBPHJKOA@?5Dumping?5caching?5pool?3?$AA@ 00428508     pjlib-i386-win32-vc8-release:pool_caching.obj
 0002:00005520       ??_C@_08COPEICHG@cachpool?$AA@ 00428520     pjlib-i386-win32-vc8-release:pool_caching.obj
 0002:0000552c       ??_C@_0CN@DOKPIIOH@?5?5?5Capacity?$DN?$CFu?0?5max_capacity?$DN?$CFu?0@ 0042852c     pjlib-i386-win32-vc8-release:pool_caching.obj
 0002:0000555c       ??_C@_0BM@IDLDGCC@?5?5Dumping?5all?5active?5pools?3?$AA@ 0042855c     pjlib-i386-win32-vc8-release:pool_caching.obj
 0002:00005578       ??_C@_0CA@MMLIKIEG@?5?5?5?$CF16s?3?5?$CF8d?5of?5?$CF8d?5?$CI?$CFd?$CF?$CF?$CJ?5used?$AA@ 00428578     pjlib-i386-win32-vc8-release:pool_caching.obj
 0002:00005598       ??_C@_0CB@GKBJPDKG@?5?5Total?5?$CF9d?5of?5?$CF9d?5?$CI?$CFd?5?$CF?$CF?$CJ?5used?$CB@ 00428598     pjlib-i386-win32-vc8-release:pool_caching.obj
 0002:000055bc       ??_C@_0BC@IICDBALP@?4?4?2src?2pj?2timer?4c?$AA@ 004285bc     pjlib-i386-win32-vc8-release:timer.obj
 0002:000055d0       __xmm@00000003000000020000000100000000 004285d0     pjlib-i386-win32-vc8-release:timer.obj
 0002:000055e0       _PJ_AF_UNSPEC              004285e0     pjlib-i386-win32-vc8-release:sock_bsd.obj
 0002:000055e4       _PJ_AF_UNIX                004285e4     pjlib-i386-win32-vc8-release:sock_bsd.obj
 0002:000055e8       _PJ_AF_INET                004285e8     pjlib-i386-win32-vc8-release:sock_bsd.obj
 0002:000055ec       _PJ_AF_INET6               004285ec     pjlib-i386-win32-vc8-release:sock_bsd.obj
 0002:000055f0       _PJ_AF_PACKET              004285f0     pjlib-i386-win32-vc8-release:sock_bsd.obj
 0002:000055f4       _PJ_AF_IRDA                004285f4     pjlib-i386-win32-vc8-release:sock_bsd.obj
 0002:000055f8       _PJ_SOCK_STREAM            004285f8     pjlib-i386-win32-vc8-release:sock_bsd.obj
 0002:000055fc       _PJ_SOCK_DGRAM             004285fc     pjlib-i386-win32-vc8-release:sock_bsd.obj
 0002:00005600       _PJ_SOCK_RAW               00428600     pjlib-i386-win32-vc8-release:sock_bsd.obj
 0002:00005604       _PJ_SOCK_RDM               00428604     pjlib-i386-win32-vc8-release:sock_bsd.obj
 0002:00005608       _PJ_SOL_SOCKET             00428608     pjlib-i386-win32-vc8-release:sock_bsd.obj
 0002:0000560c       _PJ_SOL_IP                 0042860c     pjlib-i386-win32-vc8-release:sock_bsd.obj
 0002:00005610       _PJ_SOL_TCP                00428610     pjlib-i386-win32-vc8-release:sock_bsd.obj
 0002:00005614       _PJ_SOL_UDP                00428614     pjlib-i386-win32-vc8-release:sock_bsd.obj
 0002:00005618       _PJ_SOL_IPV6               00428618     pjlib-i386-win32-vc8-release:sock_bsd.obj
 0002:0000561c       _PJ_IP_TOS                 0042861c     pjlib-i386-win32-vc8-release:sock_bsd.obj
 0002:00005620       _PJ_IPTOS_LOWDELAY         00428620     pjlib-i386-win32-vc8-release:sock_bsd.obj
 0002:00005624       _PJ_IPTOS_THROUGHPUT       00428624     pjlib-i386-win32-vc8-release:sock_bsd.obj
 0002:00005628       _PJ_IPTOS_RELIABILITY      00428628     pjlib-i386-win32-vc8-release:sock_bsd.obj
 0002:0000562c       _PJ_IPTOS_MINCOST          0042862c     pjlib-i386-win32-vc8-release:sock_bsd.obj
 0002:00005630       _PJ_SO_TYPE                00428630     pjlib-i386-win32-vc8-release:sock_bsd.obj
 0002:00005634       _PJ_SO_RCVBUF              00428634     pjlib-i386-win32-vc8-release:sock_bsd.obj
 0002:00005638       _PJ_SO_SNDBUF              00428638     pjlib-i386-win32-vc8-release:sock_bsd.obj
 0002:0000563c       _PJ_TCP_NODELAY            0042863c     pjlib-i386-win32-vc8-release:sock_bsd.obj
 0002:00005640       _PJ_SO_REUSEADDR           00428640     pjlib-i386-win32-vc8-release:sock_bsd.obj
 0002:00005644       _PJ_SO_NOSIGPIPE           00428644     pjlib-i386-win32-vc8-release:sock_bsd.obj
 0002:00005648       _PJ_SO_PRIORITY            00428648     pjlib-i386-win32-vc8-release:sock_bsd.obj
 0002:0000564c       _PJ_IP_MULTICAST_IF        0042864c     pjlib-i386-win32-vc8-release:sock_bsd.obj
 0002:00005650       _PJ_IP_MULTICAST_TTL       00428650     pjlib-i386-win32-vc8-release:sock_bsd.obj
 0002:00005654       _PJ_IP_MULTICAST_LOOP      00428654     pjlib-i386-win32-vc8-release:sock_bsd.obj
 0002:00005658       _PJ_IP_ADD_MEMBERSHIP      00428658     pjlib-i386-win32-vc8-release:sock_bsd.obj
 0002:0000565c       _PJ_IP_DROP_MEMBERSHIP     0042865c     pjlib-i386-win32-vc8-release:sock_bsd.obj
 0002:00005660       _PJ_MSG_OOB                00428660     pjlib-i386-win32-vc8-release:sock_bsd.obj
 0002:00005664       _PJ_MSG_PEEK               00428664     pjlib-i386-win32-vc8-release:sock_bsd.obj
 0002:00005668       _PJ_MSG_DONTROUTE          00428668     pjlib-i386-win32-vc8-release:sock_bsd.obj
 0002:0000566c       ??_C@_0BF@KBJNEAPB@?4?4?2src?2pj?2sock_bsd?4c?$AA@ 0042866c     pjlib-i386-win32-vc8-release:sock_bsd.obj
 0002:00005684       ??_C@_0BC@OIAJPKFB@?4?4?2src?2pj?2types?4c?$AA@ 00428684     pjlib-i386-win32-vc8-release:types.obj
 0002:00005698       ??_C@_06HALIBNKJ@glck?$CFp?$AA@ 00428698     pjlib-i386-win32-vc8-release:lock.obj
 0002:000056a0       ??_C@_0BB@LOBHAKEP@?4?4?2src?2pj?2hash?4c?$AA@ 004286a0     pjlib-i386-win32-vc8-release:hash.obj
 0002:000056b4       ??_C@_0BB@KPBPCFEE@?4?4?2src?2pj?2rand?4c?$AA@ 004286b4     pjlib-i386-win32-vc8-release:rand.obj
 0002:000056f0       ??_C@_0BC@GPHMAKPK@sock_qos_common?4c?$AA@ 004286f0     pjlib-i386-win32-vc8-release:sock_qos_common.obj
 0002:00005704       ??_C@_06HBELJPBO@socket?$AA@ 00428704     pjlib-i386-win32-vc8-release:sock_qos_common.obj
 0002:0000570c       ??_C@_0CA@EBJCMLJI@Error?5setting?5QoS?5type?5?$CFd?5to?5?$CFs?$AA@ 0042870c     pjlib-i386-win32-vc8-release:sock_qos_common.obj
 0002:0000572c       ??_C@_0CK@CGDCCPNL@Error?5setting?5QoS?5params?5?$CIflags?$DN@ 0042872c     pjlib-i386-win32-vc8-release:sock_qos_common.obj
 0002:00005758       ??_C@_0GB@HHNNKDBF@Received?5?$CFd?5consecutive?5errors?3?5@ 00428758     pjlib-i386-win32-vc8-release:activesock.obj
 0002:000057bc       ??_C@_08PFPBFMIL@IpHlpApi?$AA@ 004287bc     pjlib-i386-win32-vc8-release:ip_helper_win32.obj
 0002:000057c8       ??_C@_0P@PMIJPFPM@GetIpAddrTable?$AA@ 004287c8     pjlib-i386-win32-vc8-release:ip_helper_win32.obj
 0002:000057d8       ??_C@_0BF@LHFCIIHE@GetAdaptersAddresses?$AA@ 004287d8     pjlib-i386-win32-vc8-release:ip_helper_win32.obj
 0002:000057f0       ??_C@_0L@BLHMKEDC@GetIfEntry?$AA@ 004287f0     pjlib-i386-win32-vc8-release:ip_helper_win32.obj
 0002:000057fc       ??_C@_0CD@KFHCCJFN@?$CB?$CB?$CBFATAL?3?5unhandled?5exception?5?$CFs@ 004287fc     pjlib-i386-win32-vc8-release:except.obj
 0002:00005820       ??_C@_08PDFMOJIE@except?4c?$AA@ 00428820     pjlib-i386-win32-vc8-release:except.obj
 0002:0000582c       ??_C@_0N@GJOLEKJC@?$DMInvalid?5ID?$DO?$AA@ 0042882c     pjlib-i386-win32-vc8-release:except.obj
 0002:0000583c       ??_C@_0N@LJPLLMIL@exception?5?$CFd?$AA@ 0042883c     pjlib-i386-win32-vc8-release:except.obj
 0002:0000584c       _PJ_GUID_STRING_LENGTH     0042884c     pjlib-i386-win32-vc8-release:guid_win32.obj
 0002:00005850       ??_C@_0BH@DLOCENPK@?4?4?2src?2pj?2guid_win32?4c?$AA@ 00428850     pjlib-i386-win32-vc8-release:guid_win32.obj
 0002:00005868       __real@3ff0000000000000    00428868     pjlib-i386-win32-vc8-release:os_timestamp_common.obj
 0002:00005870       __real@408f400000000000    00428870     pjlib-i386-win32-vc8-release:os_timestamp_common.obj
 0002:00005878       ??_C@_0BI@FIAAHKJ@?4?4?2src?2pj?2sock_select?4c?$AA@ 00428878     pjlib-i386-win32-vc8-release:sock_select.obj
 0002:00005890       ??_C@_0BP@JMMENEAD@?4?4?2src?2pj?2pool_policy_malloc?4c?$AA@ 00428890     pjlib-i386-win32-vc8-release:pool_policy_malloc.obj
 0002:00005970       __load_config_used         00428970     MSVCRT:loadcfg.obj
 0002:000059d0       ___safe_se_handler_table   004289d0     <linker-defined>
 0002:00005c14       ___rtc_iaa                 00428c14     MSVCRT:_initsect_.obj
 0002:00005c18       ___rtc_izz                 00428c18     MSVCRT:_initsect_.obj
 0002:00005c1c       ___rtc_taa                 00428c1c     MSVCRT:_initsect_.obj
 0002:00005c20       ___rtc_tzz                 00428c20     MSVCRT:_initsect_.obj
 0002:00005c64       __IMPORT_DESCRIPTOR_ole32  00428c64     ole32:ole32.dll
 0002:00005c78       __IMPORT_DESCRIPTOR_WS2_32 00428c78     ws2_32:WS2_32.dll
 0002:00005c8c       __IMPORT_DESCRIPTOR_KERNEL32 00428c8c     kernel32:KERNEL32.dll
 0002:00005ca0       __IMPORT_DESCRIPTOR_VCRUNTIME140 00428ca0     vcruntime:VCRUNTIME140.dll
 0002:00005cb4       __IMPORT_DESCRIPTOR_api-ms-win-crt-stdio-l1-1-0 00428cb4     ucrt:api-ms-win-crt-stdio-l1-1-0.dll
 0002:00005cc8       __IMPORT_DESCRIPTOR_api-ms-win-crt-runtime-l1-1-0 00428cc8     ucrt:api-ms-win-crt-runtime-l1-1-0.dll
 0002:00005cdc       __IMPORT_DESCRIPTOR_api-ms-win-crt-convert-l1-1-0 00428cdc     ucrt:api-ms-win-crt-convert-l1-1-0.dll
 0002:00005cf0       __IMPORT_DESCRIPTOR_api-ms-win-crt-string-l1-1-0 00428cf0     ucrt:api-ms-win-crt-string-l1-1-0.dll
 0002:00005d04       __IMPORT_DESCRIPTOR_api-ms-win-crt-utility-l1-1-0 00428d04     ucrt:api-ms-win-crt-utility-l1-1-0.dll
 0002:00005d18       __IMPORT_DESCRIPTOR_api-ms-win-crt-heap-l1-1-0 00428d18     ucrt:api-ms-win-crt-heap-l1-1-0.dll
 0002:00005d2c       __IMPORT_DESCRIPTOR_api-ms-win-crt-math-l1-1-0 00428d2c     ucrt:api-ms-win-crt-math-l1-1-0.dll
 0002:00005d40       __IMPORT_DESCRIPTOR_api-ms-win-crt-locale-l1-1-0 00428d40     ucrt:api-ms-win-crt-locale-l1-1-0.dll
 0002:00005d54       __NULL_IMPORT_DESCRIPTOR   00428d54     ole32:ole32.dll
 0003:000021dc       _pj_optind                 0042c1dc     pjlib-util-i386-win32-vc8-release:getopt.obj
 0003:000021e0       _pj_optopt                 0042c1e0     pjlib-util-i386-win32-vc8-release:getopt.obj
 0003:000021f0       _PJ_VERSION                0042c1f0     pjlib-i386-win32-vc8-release:config.obj
 0003:000022fc       _pj_pool_factory_default_policy 0042c2fc     pjlib-i386-win32-vc8-release:pool_policy_malloc.obj
 0003:0000230c       ___security_cookie_complement 0042c30c     MSVCRT:gs_cookie.obj
 0003:00002310       ___security_cookie         0042c310     MSVCRT:gs_cookie.obj
 0003:00002314       ___isa_enabled             0042c314     MSVCRT:_cpu_disp_.obj
 0003:00002318       __fltused                  0042c318     MSVCRT:fltused.obj
 0003:00002320       ___scrt_native_dllmain_reason 0042c320     MSVCRT:utility.obj
 0003:00002324       ___scrt_default_matherr    0042c324     MSVCRT:matherr.obj
 0003:00002330       ___scrt_ucrt_dll_is_in_use 0042c330     MSVCRT:ucrt_stubs.obj
 0003:00002f30       _pj_optarg                 0042cf30     pjlib-util-i386-win32-vc8-release:getopt.obj
 0003:000035e4       ___isa_available           0042d5e4     MSVCRT:_cpu_disp_.obj
 0003:000035e8       ___favor                   0042d5e8     MSVCRT:_cpu_disp_.obj
 0003:000035ec       ___scrt_current_native_startup_state 0042d5ec     MSVCRT:utility.obj
 0003:000035f0       ___scrt_native_startup_lock 0042d5f0     MSVCRT:utility.obj
 0003:00003610       ?__type_info_root_node@@3U__type_info_node@@A 0042d610     MSVCRT:tncleanup.obj
 0003:00003618       ___scrt_debugger_hook_flag 0042d618     MSVCRT:utility_desktop.obj
 0003:00003620       ?_OptionsStorage@?1??__local_stdio_scanf_options@@9@9 0042d620     <common>
 0003:00003628       ?_OptionsStorage@?1??__local_stdio_printf_options@@9@9 0042d628     <common>
 0003:00003630       _PJ_NO_MEMORY_EXCEPTION    0042d630     <common>
 0003:00003634       ___dyn_tls_dtor_callback   0042d634     <common>
 0003:00003638       ___dyn_tls_init_callback   0042d638     <common>

 entry point at        0001:00020eff

 Static symbols

 0001:00000000       _pj_isspace                00401000 f   icedemo.obj
 0001:00000010       _pj_tolower                00401010 f   icedemo.obj
 0001:00000020       _pj_cstr                   00401020 f   icedemo.obj
 0001:00000050       _pj_strchr                 00401050 f   icedemo.obj
 0001:00000070       _pj_bzero                  00401070 f   icedemo.obj
 0001:00000090       _icedemo_perror            00401090 f   icedemo.obj
 0001:000000f0       _err_exit                  004010f0 f   icedemo.obj
 0001:00000210       _handle_events             00401210 f   icedemo.obj
 0001:000002f0       _icedemo_worker_thread     004012f0 f   icedemo.obj
 0001:000003d0       _cb_on_rx_data             004013d0 f   icedemo.obj
 0001:00000440       _cb_on_ice_complete        00401440 f   icedemo.obj
 0001:00000500       _log_func                  00401500 f   icedemo.obj
 0001:00000540       _icedemo_init              00401540 f   icedemo.obj
 0001:00000850       _icedemo_create_instance   00401850 f   icedemo.obj
 0001:00000940       _reset_rem_info            00401940 f   icedemo.obj
 0001:00000960       _icedemo_destroy_instance  00401960 f   icedemo.obj
 0001:000009d0       _icedemo_init_session      004019d0 f   icedemo.obj
 0001:00000aa0       _icedemo_stop_session      00401aa0 f   icedemo.obj
 0001:00000b50       _print_cand                00401b50 f   icedemo.obj
 0001:00000c30       _encode_session            00401c30 f   icedemo.obj
 0001:00000e70       _icedemo_show_ice          00401e70 f   icedemo.obj
 0001:00001070       _icedemo_input_remote      00402070 f   icedemo.obj
 0001:00001870       _icedemo_start_nego        00402870 f   icedemo.obj
 0001:000019c0       _icedemo_send_data         004029c0 f   icedemo.obj
 0001:00001ae0       _icedemo_help_menu         00402ae0 f   icedemo.obj
 0001:00001b30       _icedemo_print_menu        00402b30 f   icedemo.obj
 0001:00001bb0       _icedemo_console           00402bb0 f   icedemo.obj
 0001:000021a0       _icedemo_usage             004031a0 f   icedemo.obj
 0001:00002644       $LN33                      00403644     icedemo.obj
 0001:00002678       $LN28                      00403678     icedemo.obj
 0001:00002800       _pjnath_strerror           00403800 f   pjnath-i386-win32-vc8-release:errno.obj
 0001:000028d0       _pjnath_strerror2          004038d0 f   pjnath-i386-win32-vc8-release:errno.obj
 0001:00002960       _check_set_state           00403960 f   pjnath-i386-win32-vc8-release:ice_session.obj
 0001:00002a80       _destroy_ice               00403a80 f   pjnath-i386-win32-vc8-release:ice_session.obj
 0001:00002b40       _dump_check                00403b40 f   pjnath-i386-win32-vc8-release:ice_session.obj
 0001:00002c40       _dump_checklist            00403c40 f   pjnath-i386-win32-vc8-release:ice_session.obj
 0001:00002da0       _handle_incoming_check     00403da0 f   pjnath-i386-win32-vc8-release:ice_session.obj
 0001:00003250       _ice_keep_alive            00404250 f   pjnath-i386-win32-vc8-release:ice_session.obj
 0001:00003370       _ice_on_destroy            00404370 f   pjnath-i386-win32-vc8-release:ice_session.obj
 0001:000033b0       _init_comp                 004043b0 f   pjnath-i386-win32-vc8-release:ice_session.obj
 0001:00003470       _on_check_complete         00404470 f   pjnath-i386-win32-vc8-release:ice_session.obj
 0001:00003860       _on_ice_complete           00404860 f   pjnath-i386-win32-vc8-release:ice_session.obj
 0001:00003910       _on_stun_request_complete  00404910 f   pjnath-i386-win32-vc8-release:ice_session.obj
 0001:00003e50       _on_stun_rx_indication     00404e50 f   pjnath-i386-win32-vc8-release:ice_session.obj
 0001:00003ed0       _on_stun_rx_request        00404ed0 f   pjnath-i386-win32-vc8-release:ice_session.obj
 0001:00004210       _on_stun_send_msg          00405210 f   pjnath-i386-win32-vc8-release:ice_session.obj
 0001:00004280       _on_timer                  00405280 f   pjnath-i386-win32-vc8-release:ice_session.obj
 0001:00004358       $LN19                      00405358     pjnath-i386-win32-vc8-release:ice_session.obj
 0001:00004370       _perform_check             00405370 f   pjnath-i386-win32-vc8-release:ice_session.obj
 0001:00004540       _periodic_timer            00405540 f   pjnath-i386-win32-vc8-release:ice_session.obj
 0001:00004550       _pj_cmp_timestamp          00405550 f   pjnath-i386-win32-vc8-release:ice_session.obj
 0001:00004648       $LN16                      00405648     pjnath-i386-win32-vc8-release:ice_session.obj
 0001:000055c0       _prune_checklist           004065c0 f   pjnath-i386-win32-vc8-release:ice_session.obj
 0001:000057f0       _sort_checklist            004067f0 f   pjnath-i386-win32-vc8-release:ice_session.obj
 0001:00005980       _start_nominated_check     00406980 f   pjnath-i386-win32-vc8-release:ice_session.obj
 0001:00005ac0       _start_periodic_check      00406ac0 f   pjnath-i386-win32-vc8-release:ice_session.obj
 0001:00005c00       _stun_auth_get_auth        00406c00 f   pjnath-i386-win32-vc8-release:ice_session.obj
 0001:00005c20       _stun_auth_get_cred        00406c20 f   pjnath-i386-win32-vc8-release:ice_session.obj
 0001:00005cc0       _stun_auth_get_password    00406cc0 f   pjnath-i386-win32-vc8-release:ice_session.obj
 0001:00005da0       _add_update_turn           00406da0 f   pjnath-i386-win32-vc8-release:ice_strans.obj
 0001:00005f60       _create_comp               00406f60 f   pjnath-i386-win32-vc8-release:ice_strans.obj
 0001:00006390       _destroy_ice_st            00407390 f   pjnath-i386-win32-vc8-release:ice_strans.obj
 0001:00006490       _ice_rx_data               00407490 f   pjnath-i386-win32-vc8-release:ice_strans.obj
 0001:000064c0       _ice_st_on_destroy         004074c0 f   pjnath-i386-win32-vc8-release:ice_strans.obj
 0001:000064f0       _ice_tx_pkt                004074f0 f   pjnath-i386-win32-vc8-release:ice_strans.obj
 0001:00006580       _on_ice_complete           00407580 f   pjnath-i386-win32-vc8-release:ice_strans.obj
 0001:00007400       _sess_fail                 00408400 f   pjnath-i386-win32-vc8-release:ice_strans.obj
 0001:00007490       _sess_init_update          00408490 f   pjnath-i386-win32-vc8-release:ice_strans.obj
 0001:00007510       _stun_on_data_sent         00408510 f   pjnath-i386-win32-vc8-release:ice_strans.obj
 0001:00007520       _stun_on_rx_data           00408520 f   pjnath-i386-win32-vc8-release:ice_strans.obj
 0001:000075d0       _stun_on_status            004085d0 f   pjnath-i386-win32-vc8-release:ice_strans.obj
 0001:00007944       $LN78                      00408944     pjnath-i386-win32-vc8-release:ice_strans.obj
 0001:00007960       _turn_on_rx_data           00408960 f   pjnath-i386-win32-vc8-release:ice_strans.obj
 0001:00007a10       _turn_on_state             00408a10 f   pjnath-i386-win32-vc8-release:ice_strans.obj
 0001:00007c30       _decode_sockaddr_attr      00408c30 f   pjnath-i386-win32-vc8-release:stun_msg.obj
 0001:00007d20       _decode_xored_sockaddr_attr 00408d20 f   pjnath-i386-win32-vc8-release:stun_msg.obj
 0001:00007e30       _encode_sockaddr_attr      00408e30 f   pjnath-i386-win32-vc8-release:stun_msg.obj
 0001:00008040       _clone_sockaddr_attr       00409040 f   pjnath-i386-win32-vc8-release:stun_msg.obj
 0001:00008070       _decode_string_attr        00409070 f   pjnath-i386-win32-vc8-release:stun_msg.obj
 0001:000080e0       _encode_string_attr        004090e0 f   pjnath-i386-win32-vc8-release:stun_msg.obj
 0001:000081c0       _clone_string_attr         004091c0 f   pjnath-i386-win32-vc8-release:stun_msg.obj
 0001:000081f0       _decode_msgint_attr        004091f0 f   pjnath-i386-win32-vc8-release:stun_msg.obj
 0001:00008260       _encode_msgint_attr        00409260 f   pjnath-i386-win32-vc8-release:stun_msg.obj
 0001:000082d0       _clone_msgint_attr         004092d0 f   pjnath-i386-win32-vc8-release:stun_msg.obj
 0001:00008300       _decode_errcode_attr       00409300 f   pjnath-i386-win32-vc8-release:stun_msg.obj
 0001:00008380       _encode_errcode_attr       00409380 f   pjnath-i386-win32-vc8-release:stun_msg.obj
 0001:00008430       _clone_errcode_attr        00409430 f   pjnath-i386-win32-vc8-release:stun_msg.obj
 0001:00008470       _decode_unknown_attr       00409470 f   pjnath-i386-win32-vc8-release:stun_msg.obj
 0001:00008510       _encode_unknown_attr       00409510 f   pjnath-i386-win32-vc8-release:stun_msg.obj
 0001:000085b0       _clone_unknown_attr        004095b0 f   pjnath-i386-win32-vc8-release:stun_msg.obj
 0001:000085e0       _decode_uint_attr          004095e0 f   pjnath-i386-win32-vc8-release:stun_msg.obj
 0001:00008660       _encode_uint_attr          00409660 f   pjnath-i386-win32-vc8-release:stun_msg.obj
 0001:000086d0       _clone_uint_attr           004096d0 f   pjnath-i386-win32-vc8-release:stun_msg.obj
 0001:000086f0       _decode_uint64_attr        004096f0 f   pjnath-i386-win32-vc8-release:stun_msg.obj
 0001:00008790       _encode_uint64_attr        00409790 f   pjnath-i386-win32-vc8-release:stun_msg.obj
 0001:00008820       _clone_uint64_attr         00409820 f   pjnath-i386-win32-vc8-release:stun_msg.obj
 0001:00008840       _decode_binary_attr        00409840 f   pjnath-i386-win32-vc8-release:stun_msg.obj
 0001:000088b0       _encode_binary_attr        004098b0 f   pjnath-i386-win32-vc8-release:stun_msg.obj
 0001:00008920       _clone_binary_attr         00409920 f   pjnath-i386-win32-vc8-release:stun_msg.obj
 0001:00008970       _decode_empty_attr         00409970 f   pjnath-i386-win32-vc8-release:stun_msg.obj
 0001:000089d0       _encode_empty_attr         004099d0 f   pjnath-i386-win32-vc8-release:stun_msg.obj
 0001:00008a10       _clone_empty_attr          00409a10 f   pjnath-i386-win32-vc8-release:stun_msg.obj
 0001:00008a30       _GETVAL32H                 00409a30 f   pjnath-i386-win32-vc8-release:stun_msg.obj
 0001:00008a60       _find_attr_desc            00409a60 f   pjnath-i386-win32-vc8-release:stun_msg.obj
 0001:00009fa0       _stun_tsx_on_complete      0040afa0 f   pjnath-i386-win32-vc8-release:stun_session.obj
 0001:0000a050       _stun_tsx_on_send_msg      0040b050 f   pjnath-i386-win32-vc8-release:stun_session.obj
 0001:0000a0c0       _stun_tsx_on_destroy       0040b0c0 f   pjnath-i386-win32-vc8-release:stun_session.obj
 0001:0000a130       _apply_msg_options         0040b130 f   pjnath-i386-win32-vc8-release:stun_session.obj
 0001:0000a2b0       _authenticate_req          0040b2b0 f   pjnath-i386-win32-vc8-release:stun_session.obj
 0001:0000a350       _check_cached_response     0040b350 f   pjnath-i386-win32-vc8-release:stun_session.obj
 0001:0000a450       _create_tdata              0040b450 f   pjnath-i386-win32-vc8-release:stun_session.obj
 0001:0000a4b0       _destroy_tdata             0040b4b0 f   pjnath-i386-win32-vc8-release:stun_session.obj
 0001:0000a560       _dump_rx_msg               0040b560 f   pjnath-i386-win32-vc8-release:stun_session.obj
 0001:0000a610       _dump_tx_msg               0040b610 f   pjnath-i386-win32-vc8-release:stun_session.obj
 0001:0000a6c0       _get_auth                  0040b6c0 f   pjnath-i386-win32-vc8-release:stun_session.obj
 0001:0000a7a0       _handle_auth_challenge     0040b7a0 f   pjnath-i386-win32-vc8-release:stun_session.obj
 0001:0000a9f0       _on_cache_timeout          0040b9f0 f   pjnath-i386-win32-vc8-release:stun_session.obj
 0001:0000aab0       _on_incoming_request       0040bab0 f   pjnath-i386-win32-vc8-release:stun_session.obj
 0001:0000ab80       _on_incoming_response      0040bb80 f   pjnath-i386-win32-vc8-release:stun_session.obj
 0001:0000b9b0       _send_response             0040c9b0 f   pjnath-i386-win32-vc8-release:stun_session.obj
 0001:0000ba60       _stun_sess_on_destroy      0040ca60 f   pjnath-i386-win32-vc8-release:stun_session.obj
 0001:0000bbd0       _tsx_lookup                0040cbd0 f   pjnath-i386-win32-vc8-release:stun_session.obj
 0001:0000bc20       _calc_md5_key              0040cc20 f   pjnath-i386-win32-vc8-release:stun_auth.obj
 0001:0000bcf0       _create_challenge          0040ccf0 f   pjnath-i386-win32-vc8-release:stun_auth.obj
 0001:0000bea4       $LN17                      0040cea4     pjnath-i386-win32-vc8-release:stun_auth.obj
 0001:0000beac       $LN15                      0040ceac     pjnath-i386-win32-vc8-release:stun_auth.obj
 0001:0000c670       _dns_srv_resolver_cb       0040d670 f   pjnath-i386-win32-vc8-release:stun_sock.obj
 0001:0000c700       _get_mapped_addr           0040d700 f   pjnath-i386-win32-vc8-release:stun_sock.obj
 0001:0000c7a0       _ka_timer_cb               0040d7a0 f   pjnath-i386-win32-vc8-release:stun_sock.obj
 0001:0000c7d0       _on_data_recvfrom          0040d7d0 f   pjnath-i386-win32-vc8-release:stun_sock.obj
 0001:0000c900       _on_data_sent              0040d900 f   pjnath-i386-win32-vc8-release:stun_sock.obj
 0001:0000c970       _pj_memcmp                 0040d970 f   pjlib-i386-win32-vc8-release:string.obj
 0001:0000c970       _pj_memcmp                 0040d970 f   pjnath-i386-win32-vc8-release:stun_auth.obj
 0001:0000c970       _pj_memcmp                 0040d970 f   pjlib-i386-win32-vc8-release:sock_common.obj
 0001:0000c970       _pj_memcmp                 0040d970 f   pjnath-i386-win32-vc8-release:stun_sock.obj
 0001:0000ca20       _pj_stun_sock_cfg_is_valid 0040da20 f   pjnath-i386-win32-vc8-release:stun_sock.obj
 0001:0000d4e0       _sess_on_request_complete  0040e4e0 f   pjnath-i386-win32-vc8-release:stun_sock.obj
 0001:0000d640       _sess_on_send_msg          0040e640 f   pjnath-i386-win32-vc8-release:stun_sock.obj
 0001:0000d6a0       _start_ka_timer            0040e6a0 f   pjnath-i386-win32-vc8-release:stun_sock.obj
 0001:0000d700       _stun_sock_destructor      0040e700 f   pjnath-i386-win32-vc8-release:stun_sock.obj
 0001:0000d760       _dns_srv_resolver_cb       0040e760 f   pjnath-i386-win32-vc8-release:turn_session.obj
 0001:0000d980       _do_destroy                0040e980 f   pjnath-i386-win32-vc8-release:turn_session.obj
 0001:0000da00       _lookup_ch_by_addr         0040ea00 f   pjnath-i386-win32-vc8-release:turn_session.obj
 0001:0000db00       _lookup_perm               0040eb00 f   pjnath-i386-win32-vc8-release:turn_session.obj
 0001:0000dbf0       _on_allocate_success       0040ebf0 f   pjnath-i386-win32-vc8-release:turn_session.obj
 0001:0000de00       _on_session_fail           0040ee00 f   pjnath-i386-win32-vc8-release:turn_session.obj
 0001:0000df90       _on_timer_event            0040ef90 f   pjnath-i386-win32-vc8-release:turn_session.obj
 0001:0000e160       _pj_cstr                   0040f160 f   pjnath-i386-win32-vc8-release:turn_session.obj
 0001:0000f240       _refresh_permissions       00410240 f   pjnath-i386-win32-vc8-release:turn_session.obj
 0001:0000f410       _send_refresh              00410410 f   pjnath-i386-win32-vc8-release:turn_session.obj
 0001:0000f4c0       _sess_shutdown             004104c0 f   pjnath-i386-win32-vc8-release:turn_session.obj
 0001:0000f5ac       $LN28                      004105ac     pjnath-i386-win32-vc8-release:turn_session.obj
 0001:0000f5c0       _set_state                 004105c0 f   pjnath-i386-win32-vc8-release:turn_session.obj
 0001:0000f620       _stun_on_request_complete  00410620 f   pjnath-i386-win32-vc8-release:turn_session.obj
 0001:0000fb10       _stun_on_rx_indication     00410b10 f   pjnath-i386-win32-vc8-release:turn_session.obj
 0001:0000fbf0       _stun_on_send_msg          00410bf0 f   pjnath-i386-win32-vc8-release:turn_session.obj
 0001:0000fc20       _turn_sess_on_destroy      00410c20 f   pjnath-i386-win32-vc8-release:turn_session.obj
 0001:0000fc60       _destroy                   00410c60 f   pjnath-i386-win32-vc8-release:turn_sock.obj
 0001:0000fcf0       _has_packet                00410cf0 f   pjnath-i386-win32-vc8-release:turn_sock.obj
 0001:0000fd70       _on_connect_complete       00410d70 f   pjnath-i386-win32-vc8-release:turn_sock.obj
 0001:0000fe70       _on_data_read              00410e70 f   pjnath-i386-win32-vc8-release:turn_sock.obj
 0001:00010460       _sess_fail                 00411460 f   pjnath-i386-win32-vc8-release:turn_sock.obj
 0001:00010490       _timer_cb                  00411490 f   pjnath-i386-win32-vc8-release:turn_sock.obj
 0001:000104c0       _turn_on_rx_data           004114c0 f   pjnath-i386-win32-vc8-release:turn_sock.obj
 0001:000104f0       _turn_on_send_pkt          004114f0 f   pjnath-i386-win32-vc8-release:turn_sock.obj
 0001:00010570       _turn_on_state             00411570 f   pjnath-i386-win32-vc8-release:turn_sock.obj
 0001:000109b0       _turn_sock_on_destroy      004119b0 f   pjnath-i386-win32-vc8-release:turn_sock.obj
 0001:00010b00       _print_attr                00411b00 f   pjnath-i386-win32-vc8-release:stun_msg_dump.obj
 0001:00010de4       $LN75                      00411de4     pjnath-i386-win32-vc8-release:stun_msg_dump.obj
 0001:00010e0c       $LN68                      00411e0c     pjnath-i386-win32-vc8-release:stun_msg_dump.obj
 0001:00010e3c       $LN76                      00411e3c     pjnath-i386-win32-vc8-release:stun_msg_dump.obj
 0001:00010e60       _print_binary              00411e60 f   pjnath-i386-win32-vc8-release:stun_msg_dump.obj
 0001:00010f20       _destroy_timer_callback    00411f20 f   pjnath-i386-win32-vc8-release:stun_transaction.obj
 0001:00011340       _retransmit_timer_callback 00412340 f   pjnath-i386-win32-vc8-release:stun_transaction.obj
 0001:00011400       _tsx_transmit_msg          00412400 f   pjnath-i386-win32-vc8-release:stun_transaction.obj
 0001:00011610       __getopt_initialize        00412610 f   pjlib-util-i386-win32-vc8-release:getopt.obj
 0001:00011670       __getopt_internal          00412670 f   pjlib-util-i386-win32-vc8-release:getopt.obj
 0001:00011dc0       _exchange                  00412dc0 f   pjlib-util-i386-win32-vc8-release:getopt.obj
 0001:00011eb0       _my_index                  00412eb0 f   pjlib-util-i386-win32-vc8-release:getopt.obj
 0001:00011f00       _alloc_entry               00412f00 f   pjlib-util-i386-win32-vc8-release:resolver.obj
 0001:00011f50       _alloc_qnode               00412f50 f   pjlib-util-i386-win32-vc8-release:resolver.obj
 0001:00011fd0       _close_sock                00412fd0 f   pjlib-util-i386-win32-vc8-release:resolver.obj
 0001:00012030       _init_res_key              00413030 f   pjlib-util-i386-win32-vc8-release:resolver.obj
 0001:000120a0       _init_sock                 004130a0 f   pjlib-util-i386-win32-vc8-release:resolver.obj
 0001:00012190       _on_read_complete          00413190 f   pjlib-util-i386-win32-vc8-release:resolver.obj
 0001:00012600       _on_timeout                00413600 f   pjlib-util-i386-win32-vc8-release:resolver.obj
 0001:00013250       _report_nameserver_status  00414250 f   pjlib-util-i386-win32-vc8-release:resolver.obj
 0001:00013340       _select_nameservers        00414340 f   pjlib-util-i386-win32-vc8-release:resolver.obj
 0001:00013520       _set_nameserver_state      00414520 f   pjlib-util-i386-win32-vc8-release:resolver.obj
 0001:000135e0       _transmit_query            004145e0 f   pjlib-util-i386-win32-vc8-release:resolver.obj
 0001:00013870       _update_res_cache          00414870 f   pjlib-util-i386-win32-vc8-release:resolver.obj
 0001:00013db0       _MD5Transform              00414db0 f   pjlib-util-i386-win32-vc8-release:md5.obj
 0001:000145c0       _build_server_entries      004155c0 f   pjlib-util-i386-win32-vc8-release:srv_resolver.obj
 0001:00014ae0       _dns_callback              00415ae0 f   pjlib-util-i386-win32-vc8-release:srv_resolver.obj
 0001:000151b0       _resolve_hostnames         004161b0 f   pjlib-util-i386-win32-vc8-release:srv_resolver.obj
 0001:00015260       _apply_name_table          00416260 f   pjlib-util-i386-win32-vc8-release:dns.obj
 0001:000152e0       _copy_rr                   004162e0 f   pjlib-util-i386-win32-vc8-release:dns.obj
 0001:000153a0       _get_name                  004163a0 f   pjlib-util-i386-win32-vc8-release:dns.obj
 0001:00015490       _get_name_len              00416490 f   pjlib-util-i386-win32-vc8-release:dns.obj
 0001:00015590       _parse_query               00416590 f   pjlib-util-i386-win32-vc8-release:dns.obj
 0001:00015630       _parse_rr                  00416630 f   pjlib-util-i386-win32-vc8-release:dns.obj
 0001:000158f0       $LN16                      004168f0     pjlib-util-i386-win32-vc8-release:dns.obj
 0001:00015918       $LN14                      00416918     pjlib-util-i386-win32-vc8-release:dns.obj
 0001:00015fa0       _SHA1_Transform            00416fa0 f   pjlib-util-i386-win32-vc8-release:sha1.obj
 0001:000174e0       _init_mutex                004184e0 f   pjlib-i386-win32-vc8-release:os_core_win32.obj
 0001:00017d10       _pj_sem_wait_for           00418d10 f   pjlib-i386-win32-vc8-release:os_core_win32.obj
 0001:00018560       _thread_main@4             00419560 f   pjlib-i386-win32-vc8-release:os_core_win32.obj
 0001:000185e0       ?decrement_counter@@YAXPAUpj_ioqueue_key_t@@@Z 004195e0 f   pjlib-i386-win32-vc8-release:ioqueue_select.obj
 0001:00018670       ?increment_counter@@YAXPAUpj_ioqueue_key_t@@@Z 00419670 f   pjlib-i386-win32-vc8-release:ioqueue_select.obj
 0001:00018cb0       ?ioqueue_init_key@@YAHPAUpj_pool_t@@PAUpj_ioqueue_t@@PAUpj_ioqueue_key_t@@JPAUpj_grp_lock_t@@PAXPBUpj_ioqueue_callback@@@Z 00419cb0 f   pjlib-i386-win32-vc8-release:ioqueue_select.obj
 0001:00018d60       ?scan_closing_keys@@YAXPAUpj_ioqueue_t@@@Z 00419d60 f   pjlib-i386-win32-vc8-release:ioqueue_select.obj
 0001:0001b500       _invoke_log                0041c500 f   pjlib-i386-win32-vc8-release:errno.obj
 0001:0001b5c0       _pj_perror_imp             0041c5c0 f   pjlib-i386-win32-vc8-release:errno.obj
 0001:0001b810       _pjlib_error               0041c810 f   pjlib-i386-win32-vc8-release:errno.obj
 0001:0001b8f0       _logging_shutdown          0041c8f0 f   pjlib-i386-win32-vc8-release:log.obj
 0001:0001befc       $LN14                      0041cefc     pjlib-i386-win32-vc8-release:log.obj
 0001:0001c690       _pj_pool_create_block      0041d690 f   pjlib-i386-win32-vc8-release:pool.obj
 0001:0001c8f0       _reset_pool                0041d8f0 f   pjlib-i386-win32-vc8-release:pool.obj
 0001:0001c970       _cpool_create_pool         0041d970 f   pjlib-i386-win32-vc8-release:pool_caching.obj
 0001:0001caa0       _cpool_dump_status         0041daa0 f   pjlib-i386-win32-vc8-release:pool_caching.obj
 0001:0001cbf0       _cpool_on_block_alloc      0041dbf0 f   pjlib-i386-win32-vc8-release:pool_caching.obj
 0001:0001cc10       _cpool_on_block_free       0041dc10 f   pjlib-i386-win32-vc8-release:pool_caching.obj
 0001:0001cc20       _cpool_release_pool        0041dc20 f   pjlib-i386-win32-vc8-release:pool_caching.obj
 0001:0001ce90       _cancel                    0041de90 f   pjlib-i386-win32-vc8-release:timer.obj
 0001:0001cf00       _grow_heap                 0041df00 f   pjlib-i386-win32-vc8-release:timer.obj
 0001:0001d3b0       _reheap_down               0041e3b0 f   pjlib-i386-win32-vc8-release:timer.obj
 0001:0001d4c0       _reheap_up                 0041e4c0 f   pjlib-i386-win32-vc8-release:timer.obj
 0001:0001d560       _remove_node               0041e560 f   pjlib-i386-win32-vc8-release:timer.obj
 0001:0001d660       _schedule_entry            0041e660 f   pjlib-i386-win32-vc8-release:timer.obj
 0001:0001d6f0       _schedule_w_grp_lock       0041e6f0 f   pjlib-i386-win32-vc8-release:timer.obj
 0001:0001e240       _create_mutex_lock         0041f240 f   pjlib-i386-win32-vc8-release:lock.obj
 0001:0001e2b0       _grp_lock_acquire          0041f2b0 f   pjlib-i386-win32-vc8-release:lock.obj
 0001:0001e320       _grp_lock_destroy          0041f320 f   pjlib-i386-win32-vc8-release:lock.obj
 0001:0001e3d0       _grp_lock_release          0041f3d0 f   pjlib-i386-win32-vc8-release:lock.obj
 0001:0001e440       _grp_lock_tryacquire       0041f440 f   pjlib-i386-win32-vc8-release:lock.obj
 0001:0001e820       _find_entry                0041f820 f   pjlib-i386-win32-vc8-release:hash.obj
 0001:0001ef80       _ioqueue_on_accept_complete 0041ff80 f   pjlib-i386-win32-vc8-release:activesock.obj
 0001:0001f0d0       _ioqueue_on_connect_complete 004200d0 f   pjlib-i386-win32-vc8-release:activesock.obj
 0001:0001f100       _ioqueue_on_read_complete  00420100 f   pjlib-i386-win32-vc8-release:activesock.obj
 0001:0001f300       _ioqueue_on_write_complete 00420300 f   pjlib-i386-win32-vc8-release:activesock.obj
 0001:0001f930       _send_remaining            00420930 f   pjlib-i386-win32-vc8-release:activesock.obj
 0001:0001fc20       _MyGetAdapterAddresses     00420c20 f   pjlib-i386-win32-vc8-release:ip_helper_win32.obj
 0001:0001fca0       _MyGetIfEntry              00420ca0 f   pjlib-i386-win32-vc8-release:ip_helper_win32.obj
 0001:0001fd10       _MyGetIpAddrTable          00420d10 f   pjlib-i386-win32-vc8-release:ip_helper_win32.obj
 0001:0001fd80       _enum_ipv4_interface       00420d80 f   pjlib-i386-win32-vc8-release:ip_helper_win32.obj
 0001:0001ff60       _enum_ipv4_ipv6_interface  00420f60 f   pjlib-i386-win32-vc8-release:ip_helper_win32.obj
 0001:000201a0       _unload_iphlp_module       004211a0 f   pjlib-i386-win32-vc8-release:ip_helper_win32.obj
 0001:000201e0       _exception_cleanup         004211e0 f   pjlib-i386-win32-vc8-release:except.obj
 0001:00020470       _pool_buf_cleanup          00421470 f   pjlib-i386-win32-vc8-release:pool_buf.obj
 0001:000204a0       _stack_alloc               004214a0 f   pjlib-i386-win32-vc8-release:pool_buf.obj
 0001:000205a0       _guid_to_str               004215a0 f   pjlib-i386-win32-vc8-release:guid_win32.obj
 0001:00020930       _default_block_alloc       00421930 f   pjlib-i386-win32-vc8-release:pool_policy_malloc.obj
 0001:00020990       _default_block_free        00421990 f   pjlib-i386-win32-vc8-release:pool_policy_malloc.obj
 0001:000209d0       _default_pool_callback     004219d0 f   pjlib-i386-win32-vc8-release:pool_policy_malloc.obj
 0001:00020cd2       ?pre_c_initialization@@YAHXZ 00421cd2 f   MSVCRT:exe_main.obj
 0001:00020d76       ?post_pgo_initialization@@YAHXZ 00421d76 f   MSVCRT:exe_main.obj
 0001:00020d7e       ?pre_cpp_initialization@@YAXXZ 00421d7e f   MSVCRT:exe_main.obj
 0001:00020d90       ?__scrt_common_main_seh@@YAHXZ 00421d90 f   MSVCRT:exe_main.obj
 0001:000210b0       $$000000                   004220b0     MSVCRT:lldiv.obj
 0001:00021160       $$000000                   00422160     MSVCRT:llmul.obj
 0001:000211a0       $$000000                   004221a0     MSVCRT:_ftol3_.obj
 0001:00021517       ?find_pe_section@@YAPAU_IMAGE_SECTION_HEADER@@QAEI@Z 00422517 f   MSVCRT:utility.obj
 0001:00021820       _null_op                   00422820 f   pjlib-i386-win32-vc8-release:lock.obj
 0001:00021aa0       $$000000                   00422aa0     MSVCRT:_sehprolg4_.obj
 0001:00021b30       _turn_on_channel_bound     00422b30 f i pjnath-i386-win32-vc8-release:turn_sock.obj
 0002:00000220       ?pre_cpp_initializer@@3P6AXXZA 00423220     MSVCRT:exe_main.obj
 0002:0000022c       ?pre_c_initializer@@3P6AHXZA 0042322c     MSVCRT:exe_main.obj
 0002:00000230       ?post_pgo_initializer@@3P6AHXZA 00423230     MSVCRT:exe_main.obj
 0002:00000250       _err_str                   00423250     pjnath-i386-win32-vc8-release:errno.obj
 0002:00002c40       _err_str                   00425c40     pjlib-util-i386-win32-vc8-release:errno.obj
 0002:00003da0       _crc_tab                   00426da0     pjlib-util-i386-win32-vc8-release:crc32.obj
 0002:000045f8       _gaErrorList               004275f8     pjlib-i386-win32-vc8-release:os_error_win32.obj
 0002:00004f80       _err_str                   00427f80     pjlib-i386-win32-vc8-release:errno.obj
 0002:000056c8       _qos_map                   004286c8     pjlib-i386-win32-vc8-release:sock_qos_common.obj
 0002:000058b0       _GS_ExceptionPointers      004288b0     MSVCRT:gs_report.obj
 0002:000058c0       _Int32ToUInt32             004288c0     MSVCRT:_ftol3_.obj
 0002:000058c8       _DP2to32                   004288c8     MSVCRT:_ftol3_.obj
 0002:000058d0       _MantissaMask              004288d0     MSVCRT:_ftol3_.obj
 0002:000058d8       _IntegerBit                004288d8     MSVCRT:_ftol3_.obj
 0002:000058e0       _SignBit64                 004288e0     MSVCRT:_ftol3_.obj
 0002:000058e8       _MinFP64                   004288e8     MSVCRT:_ftol3_.obj
 0002:000058f0       _MinInt64                  004288f0     MSVCRT:_ftol3_.obj
 0002:000058f8       _MaxInt64                  004288f8     MSVCRT:_ftol3_.obj
 0002:00005900       _MaxUInt64                 00428900     MSVCRT:_ftol3_.obj
 0002:00005908       _MaxFP32                   00428908     MSVCRT:_ftol3_.obj
 0002:00005910       _MinFP32                   00428910     MSVCRT:_ftol3_.obj
 0002:00005918       _MinSubInexact             00428918     MSVCRT:_ftol3_.obj
 0002:00005920       _FpExcptTable              00428920     MSVCRT:_ftol3_.obj
 0002:00005930       _i1075                     00428930     MSVCRT:_ftol3_.obj
 0002:00005934       _i1087                     00428934     MSVCRT:_ftol3_.obj
 0002:00005938       _x0800                     00428938     MSVCRT:_ftol3_.obj
 0002:0000593c       _x17FF                     0042893c     MSVCRT:_ftol3_.obj
 0002:00005940       _CWMask                    00428940     MSVCRT:_ftol3_.obj
 0002:00005c28       __sehtable$?__scrt_common_main_seh@@YAHXZ 00428c28     MSVCRT:exe_main.obj
 0002:00005c48       __sehtable$___scrt_is_nonwritable_in_current_image 00428c48     MSVCRT:utility.obj
 0002:00005f90       .idata$6                   00428f90     ole32:ole32.dll
 0002:00005fe0       .idata$6                   00428fe0     ws2_32:WS2_32.dll
 0002:000062f4       .idata$6                   004292f4     kernel32:KERNEL32.dll
 0002:00006364       .idata$6                   00429364     vcruntime:VCRUNTIME140.dll
 0002:00006644       .idata$6                   00429644     ucrt:api-ms-win-crt-stdio-l1-1-0.dll
 0002:00006664       .idata$6                   00429664     ucrt:api-ms-win-crt-runtime-l1-1-0.dll
 0002:00006686       .idata$6                   00429686     ucrt:api-ms-win-crt-convert-l1-1-0.dll
 0002:000066a8       .idata$6                   004296a8     ucrt:api-ms-win-crt-string-l1-1-0.dll
 0002:000066ca       .idata$6                   004296ca     ucrt:api-ms-win-crt-utility-l1-1-0.dll
 0002:000066ec       .idata$6                   004296ec     ucrt:api-ms-win-crt-heap-l1-1-0.dll
 0002:0000670c       .idata$6                   0042970c     ucrt:api-ms-win-crt-math-l1-1-0.dll
 0002:0000672c       .idata$6                   0042972c     ucrt:api-ms-win-crt-locale-l1-1-0.dll
 0003:00000000       $SG15404                   0042a000     icedemo.obj
 0003:00000008       $SG15405                   0042a008     icedemo.obj
 0003:00000014       $SG15418                   0042a014     icedemo.obj
 0003:00000024       $SG15419                   0042a024     icedemo.obj
 0003:00000030       $SG15486                   0042a030     icedemo.obj
 0003:00000068       $SG15487                   0042a068     icedemo.obj
 0003:00000074       $SG15505                   0042a074     icedemo.obj
 0003:00000084       $SG15506                   0042a084     icedemo.obj
 0003:00000090       $SG15507                   0042a090     icedemo.obj
 0003:0000009c       $SG15511                   0042a09c     icedemo.obj
 0003:000000b0       $SG15512                   0042a0b0     icedemo.obj
 0003:000000bc       $SG15514                   0042a0bc     icedemo.obj
 0003:000000d0       $SG15515                   0042a0d0     icedemo.obj
 0003:000000dc       $SG15541                   0042a0dc     icedemo.obj
 0003:000000e0       $SG15543                   0042a0e0     icedemo.obj
 0003:000000ec       $SG15545                   0042a0ec     icedemo.obj
 0003:00000100       $SG15547                   0042a100     icedemo.obj
 0003:00000110       $SG15548                   0042a110     icedemo.obj
 0003:00000118       $SG15550                   0042a118     icedemo.obj
 0003:00000168       $SG15552                   0042a168     icedemo.obj
 0003:000001b0       $SG15553                   0042a1b0     icedemo.obj
 0003:000001b8       $SG15555                   0042a1b8     icedemo.obj
 0003:00000218       $SG15557                   0042a218     icedemo.obj
 0003:00000224       $SG15584                   0042a224     icedemo.obj
 0003:00000254       $SG15585                   0042a254     icedemo.obj
 0003:0000025c       $SG15588                   0042a25c     icedemo.obj
 0003:00000270       $SG15559                   0042a270     icedemo.obj
 0003:00000310       $SG15561                   0042a310     icedemo.obj
 0003:0000035c       $SG15590                   0042a35c     icedemo.obj
 0003:00000380       $SG15591                   0042a380     icedemo.obj
 0003:0000038c       $SG15608                   0042a38c     icedemo.obj
 0003:000003b4       $SG15609                   0042a3b4     icedemo.obj
 0003:000003c0       $SG15611                   0042a3c0     icedemo.obj
 0003:000003d8       $SG15612                   0042a3d8     icedemo.obj
 0003:000003e4       $SG15634                   0042a3e4     icedemo.obj
 0003:0000040c       $SG15635                   0042a40c     icedemo.obj
 0003:00000418       $SG15638                   0042a418     icedemo.obj
 0003:00000438       $SG15639                   0042a438     icedemo.obj
 0003:00000444       $SG15642                   0042a444     icedemo.obj
 0003:0000045c       $SG15644                   0042a45c     icedemo.obj
 0003:00000470       $SG15645                   0042a470     icedemo.obj
 0003:0000047c       $SG15662                   0042a47c     icedemo.obj
 0003:000004a4       $SG7470                    0042a4a4     icedemo.obj
 0003:000004b8       $SG15663                   0042a4b8     icedemo.obj
 0003:000004c4       $SG7471                    0042a4c4     icedemo.obj
 0003:000004d8       $SG15666                   0042a4d8     icedemo.obj
 0003:00000500       $SG15667                   0042a500     icedemo.obj
 0003:0000050c       $SG15670                   0042a50c     icedemo.obj
 0003:00000524       $SG15672                   0042a524     icedemo.obj
 0003:00000538       $SG15673                   0042a538     icedemo.obj
 0003:00000544       $SG15691                   0042a544     icedemo.obj
 0003:0000056c       $SG15694                   0042a56c     icedemo.obj
 0003:00000570       $SG15734                   0042a570     icedemo.obj
 0003:000005ac       $SG15737                   0042a5ac     icedemo.obj
 0003:000005d0       $SG15743                   0042a5d0     icedemo.obj
 0003:000005f4       $SG15748                   0042a5f4     icedemo.obj
 0003:0000060c       $SG15751                   0042a60c     icedemo.obj
 0003:0000062c       $SG15773                   0042a62c     icedemo.obj
 0003:00000654       $SG15774                   0042a654     icedemo.obj
 0003:00000660       $SG15775                   0042a660     icedemo.obj
 0003:00000670       $SG15776                   0042a670     icedemo.obj
 0003:00000680       $SG15777                   0042a680     icedemo.obj
 0003:0000069c       $SG15778                   0042a69c     icedemo.obj
 0003:000006b4       $SG15781                   0042a6b4     icedemo.obj
 0003:000006cc       $SG15784                   0042a6cc     icedemo.obj
 0003:000006e8       $SG15787                   0042a6e8     icedemo.obj
 0003:000006f8       $SG15788                   0042a6f8     icedemo.obj
 0003:0000070c       $SG15790                   0042a70c     icedemo.obj
 0003:00000738       $SG15791                   0042a738     icedemo.obj
 0003:00000754       $SG15792                   0042a754     icedemo.obj
 0003:00000760       $SG15793                   0042a760     icedemo.obj
 0003:0000076c       $SG15794                   0042a76c     icedemo.obj
 0003:00000788       $SG15796                   0042a788     icedemo.obj
 0003:000007b0       $SG15798                   0042a7b0     icedemo.obj
 0003:00000804       $SG15800                   0042a804     icedemo.obj
 0003:00000828       $SG15803                   0042a828     icedemo.obj
 0003:0000083c       $SG15804                   0042a83c     icedemo.obj
 0003:00000858       $SG15805                   0042a858     icedemo.obj
 0003:00000874       $SG15806                   0042a874     icedemo.obj
 0003:00000890       $SG15808                   0042a890     icedemo.obj
 0003:000008b8       $SG15809                   0042a8b8     icedemo.obj
 0003:000008c0       $SG15904                   0042a8c0     icedemo.obj
 0003:000008f0       $SG15905                   0042a8f0     icedemo.obj
 0003:000008f4       $SG15913                   0042a8f4     icedemo.obj
 0003:00000908       $SG15914                   0042a908     icedemo.obj
 0003:00000914       $SG15917                   0042a914     icedemo.obj
 0003:00000930       $SG15918                   0042a930     icedemo.obj
 0003:0000093c       $SG15920                   0042a93c     icedemo.obj
 0003:00000948       $SG15923                   0042a948     icedemo.obj
 0003:00000968       $SG15924                   0042a968     icedemo.obj
 0003:00000974       $SG15926                   0042a974     icedemo.obj
 0003:0000097c       $SG15929                   0042a97c     icedemo.obj
 0003:00000988       $SG15932                   0042a988     icedemo.obj
 0003:00000990       $SG15935                   0042a990     icedemo.obj
 0003:00000998       $SG15936                   0042a998     icedemo.obj
 0003:000009a4       $SG15939                   0042a9a4     icedemo.obj
 0003:000009c4       $SG15940                   0042a9c4     icedemo.obj
 0003:000009d0       $SG15945                   0042a9d0     icedemo.obj
 0003:000009e4       $SG15946                   0042a9e4     icedemo.obj
 0003:000009f0       $SG15948                   0042a9f0     icedemo.obj
 0003:000009fc       $SG15949                   0042a9fc     icedemo.obj
 0003:00000a18       $SG15952                   0042aa18     icedemo.obj
 0003:00000a3c       $SG15953                   0042aa3c     icedemo.obj
 0003:00000a48       $SG15956                   0042aa48     icedemo.obj
 0003:00000a50       $SG15959                   0042aa50     icedemo.obj
 0003:00000a58       $SG15962                   0042aa58     icedemo.obj
 0003:00000a60       $SG15964                   0042aa60     icedemo.obj
 0003:00000a84       $SG15965                   0042aa84     icedemo.obj
 0003:00000a90       $SG15970                   0042aa90     icedemo.obj
 0003:00000ab0       $SG15971                   0042aab0     icedemo.obj
 0003:00000abc       $SG15976                   0042aabc     icedemo.obj
 0003:00000ad4       $SG15977                   0042aad4     icedemo.obj
 0003:00000ae0       $SG15982                   0042aae0     icedemo.obj
 0003:00000b14       $SG15983                   0042ab14     icedemo.obj
 0003:00000b20       $SG15988                   0042ab20     icedemo.obj
 0003:00000b40       $SG15989                   0042ab40     icedemo.obj
 0003:00000b4c       $SG15991                   0042ab4c     icedemo.obj
 0003:00000b70       $SG15992                   0042ab70     icedemo.obj
 0003:00000b7c       $SG16017                   0042ab7c     icedemo.obj
 0003:00000ba4       $SG16018                   0042aba4     icedemo.obj
 0003:00000bb0       $SG16021                   0042abb0     icedemo.obj
 0003:00000bd8       $SG16022                   0042abd8     icedemo.obj
 0003:00000be4       $SG16025                   0042abe4     icedemo.obj
 0003:00000c14       $SG16026                   0042ac14     icedemo.obj
 0003:00000c20       $SG16028                   0042ac20     icedemo.obj
 0003:00000c3c       $SG16029                   0042ac3c     icedemo.obj
 0003:00000c48       $SG16032                   0042ac48     icedemo.obj
 0003:00000c5c       $SG16034                   0042ac5c     icedemo.obj
 0003:00000c74       $SG16035                   0042ac74     icedemo.obj
 0003:00000c80       $SG16058                   0042ac80     icedemo.obj
 0003:00000ca8       $SG16059                   0042aca8     icedemo.obj
 0003:00000cb4       $SG16062                   0042acb4     icedemo.obj
 0003:00000cdc       $SG16063                   0042acdc     icedemo.obj
 0003:00000ce8       $SG16067                   0042ace8     icedemo.obj
 0003:00000d04       $SG16068                   0042ad04     icedemo.obj
 0003:00000d10       $SG16071                   0042ad10     icedemo.obj
 0003:00000d24       $SG16073                   0042ad24     icedemo.obj
 0003:00000d30       $SG16074                   0042ad30     icedemo.obj
 0003:00000d3c       $SG16079                   0042ad3c     icedemo.obj
 0003:00000d70       $SG16081                   0042ad70     icedemo.obj
 0003:00000e40       $SG16082                   0042ae40     icedemo.obj
 0003:000010ec       $SG16084                   0042b0ec     icedemo.obj
 0003:0000110c       $SG16137                   0042b10c     icedemo.obj
 0003:00001110       $SG16090                   0042b110     icedemo.obj
 0003:0000115c       $SG16128                   0042b15c     icedemo.obj
 0003:00001164       $SG16142                   0042b164     icedemo.obj
 0003:00001168       $SG16091                   0042b168     icedemo.obj
 0003:000011b4       $SG16136                   0042b1b4     icedemo.obj
 0003:000011bc       $SG16141                   0042b1bc     icedemo.obj
 0003:000011c4       $SG16147                   0042b1c4     icedemo.obj
 0003:000011c8       $SG16092                   0042b1c8     icedemo.obj
 0003:00001214       $SG16155                   0042b214     icedemo.obj
 0003:00001218       $SG16093                   0042b218     icedemo.obj
 0003:00001264       $SG16160                   0042b264     icedemo.obj
 0003:00001268       $SG16094                   0042b268     icedemo.obj
 0003:000012b4       $SG16164                   0042b2b4     icedemo.obj
 0003:000012bc       $SG16165                   0042b2bc     icedemo.obj
 0003:000012c0       $SG16095                   0042b2c0     icedemo.obj
 0003:0000130c       $SG16169                   0042b30c     icedemo.obj
 0003:00001314       $SG16170                   0042b314     icedemo.obj
 0003:00001318       $SG16096                   0042b318     icedemo.obj
 0003:00001364       $SG16175                   0042b364     icedemo.obj
 0003:00001368       $SG16097                   0042b368     icedemo.obj
 0003:000013b4       $SG16180                   0042b3b4     icedemo.obj
 0003:000013c0       $SG16098                   0042b3c0     icedemo.obj
 0003:0000140c       $SG16187                   0042b40c     icedemo.obj
 0003:00001410       $SG16099                   0042b410     icedemo.obj
 0003:0000145c       $SG16192                   0042b45c     icedemo.obj
 0003:00001460       $SG16100                   0042b460     icedemo.obj
 0003:000014ac       $SG16193                   0042b4ac     icedemo.obj
 0003:000014c4       $SG16196                   0042b4c4     icedemo.obj
 0003:000014dc       $SG16197                   0042b4dc     icedemo.obj
 0003:000014f8       $SG16101                   0042b4f8     icedemo.obj
 0003:00001544       $SG16199                   0042b544     icedemo.obj
 0003:00001558       $SG16102                   0042b558     icedemo.obj
 0003:000015a4       $SG16200                   0042b5a4     icedemo.obj
 0003:000015dc       $SG16205                   0042b5dc     icedemo.obj
 0003:00001610       $SG16103                   0042b610     icedemo.obj
 0003:0000165c       $SG16202                   0042b65c     icedemo.obj
 0003:00001684       $SG16206                   0042b684     icedemo.obj
 0003:000016b4       $SG16236                   0042b6b4     icedemo.obj
 0003:000016c0       $SG16104                   0042b6c0     icedemo.obj
 0003:0000170c       $SG14056                   0042b70c     icedemo.obj
 0003:0000171c       $SG16127                   0042b71c     icedemo.obj
 0003:00001724       $SG16146                   0042b724     icedemo.obj
 0003:0000172c       $SG16150                   0042b72c     icedemo.obj
 0003:00001744       $SG16154                   0042b744     icedemo.obj
 0003:0000174c       $SG16159                   0042b74c     icedemo.obj
 0003:00001754       $SG16174                   0042b754     icedemo.obj
 0003:0000175c       $SG16179                   0042b75c     icedemo.obj
 0003:0000177c       $SG16186                   0042b77c     icedemo.obj
 0003:00001784       $SG16191                   0042b784     icedemo.obj
 0003:0000178c       $SG16208                   0042b78c     icedemo.obj
 0003:000017a4       $SG16211                   0042b7a4     icedemo.obj
 0003:000017e4       $SG16237                   0042b7e4     icedemo.obj
 0003:000017f0       $SG16201                   0042b7f0     icedemo.obj
 0003:00001834       $SG16238                   0042b834     icedemo.obj
 0003:00001840       $SG16203                   0042b840     icedemo.obj
 0003:00001884       $SG16216                   0042b884     icedemo.obj
 0003:000018c4       $SG16239                   0042b8c4     icedemo.obj
 0003:000018d0       $SG16204                   0042b8d0     icedemo.obj
 0003:00001918       $SG16209                   0042b918     icedemo.obj
 0003:00001968       $SG16210                   0042b968     icedemo.obj
 0003:000019b4       $SG16213                   0042b9b4     icedemo.obj
 0003:000019cc       $SG16240                   0042b9cc     icedemo.obj
 0003:000019d8       $SG16214                   0042b9d8     icedemo.obj
 0003:00001a28       $SG16215                   0042ba28     icedemo.obj
 0003:00001a74       $SG16217                   0042ba74     icedemo.obj
 0003:00001ab4       $SG16241                   0042bab4     icedemo.obj
 0003:00001ac0       $SG16218                   0042bac0     icedemo.obj
 0003:00001b08       $SG16219                   0042bb08     icedemo.obj
 0003:00001b4c       $SG16244                   0042bb4c     icedemo.obj
 0003:00001b58       $SG16220                   0042bb58     icedemo.obj
 0003:00001ba0       $SG16242                   0042bba0     icedemo.obj
 0003:00001ba8       $SG16243                   0042bba8     icedemo.obj
 0003:00001bb0       $SG16245                   0042bbb0     icedemo.obj
 0003:00001bbc       $SG16246                   0042bbbc     icedemo.obj
 0003:00001bc8       $SG16247                   0042bbc8     icedemo.obj
 0003:00001bd4       $SG16248                   0042bbd4     icedemo.obj
 0003:00001be0       $SG16249                   0042bbe0     icedemo.obj
 0003:00001bec       $SG16250                   0042bbec     icedemo.obj
 0003:00001bfc       $SG16251                   0042bbfc     icedemo.obj
 0003:00001c0c       $SG16252                   0042bc0c     icedemo.obj
 0003:00001c1c       $SG16253                   0042bc1c     icedemo.obj
 0003:00001c2c       $SG16254                   0042bc2c     icedemo.obj
 0003:00001c40       $SG16255                   0042bc40     icedemo.obj
 0003:00001c54       $SG16256                   0042bc54     icedemo.obj
 0003:00001c5c       $SG16257                   0042bc5c     icedemo.obj
 0003:00001c64       $SG16258                   0042bc64     icedemo.obj
 0003:00001c70       $SG16259                   0042bc70     icedemo.obj
 0003:00001c7c       $SG16260                   0042bc7c     icedemo.obj
 0003:00001c94       $SG16264                   0042bc94     icedemo.obj
 0003:00001cb4       $SG16277                   0042bcb4     icedemo.obj
 0003:00001ce4       $SG16279                   0042bce4     icedemo.obj
 0003:00001cf0       _cand_type_prefs           0042bcf0     pjnath-i386-win32-vc8-release:ice_session.obj
 0003:00001cf4       _cand_type_names           0042bcf4     pjnath-i386-win32-vc8-release:ice_session.obj
 0003:00001d04       _check_state_name          0042bd04     pjnath-i386-win32-vc8-release:ice_session.obj
 0003:00001d18       _clist_state_name          0042bd18     pjnath-i386-win32-vc8-release:ice_session.obj
 0003:00001d24       _role_names                0042bd24     pjnath-i386-win32-vc8-release:ice_session.obj
 0003:00001d30       _srflx_pref_table          0042bd30     pjnath-i386-win32-vc8-release:ice_strans.obj
 0003:00001d38       _mandatory_attr_desc       0042bd38     pjnath-i386-win32-vc8-release:stun_msg.obj
 0003:00002058       _extended_attr_desc        0042c058     pjnath-i386-win32-vc8-release:stun_msg.obj
 0003:000020f8       _stun_err_msg_map          0042c0f8     pjnath-i386-win32-vc8-release:stun_msg.obj
 0003:00002188       _stun_method_names         0042c188     pjnath-i386-win32-vc8-release:stun_msg.obj
 0003:000021b0       _tsx_cb                    0042c1b0     pjnath-i386-win32-vc8-release:stun_session.obj
 0003:000021bc       _state_names               0042c1bc     pjnath-i386-win32-vc8-release:turn_session.obj
 0003:000021e4       _state_names               0042c1e4     pjlib-util-i386-win32-vc8-release:resolver.obj
 0003:000021f4       _id                        0042c1f4     pjlib-i386-win32-vc8-release:config.obj
 0003:000021f8       _thread_tls_id             0042c1f8     pjlib-i386-win32-vc8-release:os_core_win32.obj
 0003:000021fc       _thread_suspended_tls_id   0042c1fc     pjlib-i386-win32-vc8-release:log.obj
 0003:00002200       _thread_indent_tls_id      0042c200     pjlib-i386-win32-vc8-release:log.obj
 0003:00002204       _pj_log_max_level          0042c204     pjlib-i386-win32-vc8-release:log.obj
 0003:00002208       _log_writer                0042c208     pjlib-i386-win32-vc8-release:log.obj
 0003:0000220c       _log_decor                 0042c20c     pjlib-i386-win32-vc8-release:log.obj
 0003:00002210       _PJ_LOG_COLOR_0            0042c210     pjlib-i386-win32-vc8-release:log.obj
 0003:00002214       _PJ_LOG_COLOR_1            0042c214     pjlib-i386-win32-vc8-release:log.obj
 0003:00002218       _PJ_LOG_COLOR_2            0042c218     pjlib-i386-win32-vc8-release:log.obj
 0003:0000221c       _PJ_LOG_COLOR_3            0042c21c     pjlib-i386-win32-vc8-release:log.obj
 0003:00002220       _PJ_LOG_COLOR_4            0042c220     pjlib-i386-win32-vc8-release:log.obj
 0003:00002224       _PJ_LOG_COLOR_5            0042c224     pjlib-i386-win32-vc8-release:log.obj
 0003:00002228       _PJ_LOG_COLOR_6            0042c228     pjlib-i386-win32-vc8-release:log.obj
 0003:0000222c       _PJ_LOG_COLOR_77           0042c22c     pjlib-i386-win32-vc8-release:log.obj
 0003:00002230       ?ltexts@?2??pj_log@@9@9    0042c230     pjlib-i386-win32-vc8-release:log.obj
 0003:0000224c       ?wdays@?3??pj_log@@9@9     0042c24c     pjlib-i386-win32-vc8-release:log.obj
 0003:00002268       _pool_sizes                0042c268     pjlib-i386-win32-vc8-release:pool_caching.obj
 0003:000022a8       _null_lock_template        0042c2a8     pjlib-i386-win32-vc8-release:lock.obj
 0003:000022bc       _sem_lock_template         0042c2bc     pjlib-i386-win32-vc8-release:lock.obj
 0003:000022d0       _mutex_lock_template       0042c2d0     pjlib-i386-win32-vc8-release:lock.obj
 0003:000022e4       _thread_local_id           0042c2e4     pjlib-i386-win32-vc8-release:except.obj
 0003:000022e8       _tls                       0042c2e8     pjlib-i386-win32-vc8-release:pool_buf.obj
 0003:000022ec       ?hex@?1??hex2digit@@9@9    0042c2ec     pjlib-i386-win32-vc8-release:guid_win32.obj
 0003:00002338       $SG15797                   0042c338     icedemo.obj
 0003:00002339       $SG15799                   0042c339     icedemo.obj
 0003:0000233a       $SG16078                   0042c33a     icedemo.obj
 0003:0000233b       $SG16080                   0042c33b     icedemo.obj
 0003:0000233c       $SG16083                   0042c33c     icedemo.obj
 0003:0000233d       $SG16085                   0042c33d     icedemo.obj
 0003:0000233e       $SG16089                   0042c33e     icedemo.obj
 0003:0000233f       $SG16182                   0042c33f     icedemo.obj
 0003:00002340       $SG16198                   0042c340     icedemo.obj
 0003:00002341       $SG16207                   0042c341     icedemo.obj
 0003:00002342       $SG16212                   0042c342     icedemo.obj
 0003:00002343       $SG16221                   0042c343     icedemo.obj
 0003:00002348       _icedemo                   0042c348     icedemo.obj
 0003:00002b40       ?buffer@?1??icedemo_show_ice@@9@9 0042cb40     icedemo.obj
 0003:00002f28       _padding_char              0042cf28     pjnath-i386-win32-vc8-release:stun_msg.obj
 0003:00002f2c       ?pj_stun_tsx_id_counter@?5??pj_stun_msg_init@@9@9 0042cf2c     pjnath-i386-win32-vc8-release:stun_msg.obj
 0003:00002f34       ___getopt_initialized      0042cf34     pjlib-util-i386-win32-vc8-release:getopt.obj
 0003:00002f38       _nextchar                  0042cf38     pjlib-util-i386-win32-vc8-release:getopt.obj
 0003:00002f3c       _ordering                  0042cf3c     pjlib-util-i386-win32-vc8-release:getopt.obj
 0003:00002f40       _posixly_correct           0042cf40     pjlib-util-i386-win32-vc8-release:getopt.obj
 0003:00002f44       _first_nonopt              0042cf44     pjlib-util-i386-win32-vc8-release:getopt.obj
 0003:00002f48       _last_nonopt               0042cf48     pjlib-util-i386-win32-vc8-release:getopt.obj
 0003:00002f50       _initialized               0042cf50     pjlib-i386-win32-vc8-release:os_core_win32.obj
 0003:00002f54       _atexit_count              0042cf54     pjlib-i386-win32-vc8-release:os_core_win32.obj
 0003:00002f58       _main_thread               0042cf58     pjlib-i386-win32-vc8-release:os_core_win32.obj
 0003:00003058       _critical_section_mutex    0042d058     pjlib-i386-win32-vc8-release:os_core_win32.obj
 0003:00003090       _atexit_func               0042d090     pjlib-i386-win32-vc8-release:os_core_win32.obj
 0003:00003110       _err_msg_hnd_cnt           0042d110     pjlib-i386-win32-vc8-release:errno.obj
 0003:00003118       _err_msg_hnd               0042d118     pjlib-i386-win32-vc8-release:errno.obj
 0003:00003190       _g_last_thread             0042d190     pjlib-i386-win32-vc8-release:log.obj
 0003:00003198       ?buf@?1??pj_gethostname@@9@9 0042d198     pjlib-i386-win32-vc8-release:sock_bsd.obj
 0003:00003218       ?hostname@?1??pj_gethostname@@9@9 0042d218     pjlib-i386-win32-vc8-release:sock_bsd.obj
 0003:00003220       _base_time                 0042d220     pjlib-i386-win32-vc8-release:os_time_win32.obj
 0003:00003228       _s_hDLL                    0042d228     pjlib-i386-win32-vc8-release:ip_helper_win32.obj
 0003:0000322c       _s_pfnGetIpAddrTable       0042d22c     pjlib-i386-win32-vc8-release:ip_helper_win32.obj
 0003:00003230       _s_pfnGetAdapterAddresses  0042d230     pjlib-i386-win32-vc8-release:ip_helper_win32.obj
 0003:00003234       _s_pfnGetIpForwardTable    0042d234     pjlib-i386-win32-vc8-release:ip_helper_win32.obj
 0003:00003238       _s_pfnGetIfEntry           0042d238     pjlib-i386-win32-vc8-release:ip_helper_win32.obj
 0003:00003240       _exception_id_names        0042d240     pjlib-i386-win32-vc8-release:except.obj
 0003:00003280       ?unknown_name@?1??pj_exception_id_name@@9@9 0042d280     pjlib-i386-win32-vc8-release:except.obj
 0003:000032a0       _stack_based_factory       0042d2a0     pjlib-i386-win32-vc8-release:pool_buf.obj
 0003:000032c4       _is_initialized            0042d2c4     pjlib-i386-win32-vc8-release:pool_buf.obj
 0003:000032c8       _GS_ExceptionRecord        0042d2c8     MSVCRT:gs_report.obj
 0003:00003318       _GS_ContextRecord          0042d318     MSVCRT:gs_report.obj
 0003:000035f4       ?module_local_atexit_table@@3U_onexit_table_t@@A 0042d5f4     MSVCRT:utility.obj
 0003:00003600       ?module_local_at_quick_exit_table@@3U_onexit_table_t@@A 0042d600     MSVCRT:utility.obj
 0003:0000360c       ?is_initialized_as_dll@@3_NA 0042d60c     MSVCRT:utility.obj
 0004:00000000       __guard_fids__             0042e000     MSVCRT:exe_main.obj
 0004:00000004       __guard_fids__             0042e004     MSVCRT:exe_main.obj
 0004:00000008       __guard_fids__             0042e008     MSVCRT:exe_main.obj
 0004:0000000c       __guard_fids_?pre_c_initialization@@YAHXZ 0042e00c     MSVCRT:exe_main.obj
 0004:00000014       __guard_fids____scrt_set_unhandled_exception_filter 0042e014     MSVCRT:utility_desktop.obj
 0004:00000018       __guard_fids___except_handler4 0042e018     MSVCRT:_chandler4gs_.obj
 0004:0000001c       __guard_fids__             0042e01c     MSVCRT:guard_support.obj
